 PhysXCommon_64

 Timestamp is 67fa8981 (Sun Apr 13 00:40:49 2025)

 Preferred load address is 0000000180000000

 Start         Length     Name                   Class
 0001:00000000 00003770H .text$di                CODE
 0001:00003770 001f0100H .text$mn                CODE
 0001:001f3870 00000060H .text$mn$00             CODE
 0001:001f38d0 00000b00H .text$mn$21             CODE
 0001:001f43d0 000006d0H .text$x                 CODE
 0001:001f4aa0 0000000fH .text$yd                CODE
 0002:00000000 00000288H .idata$5                DATA
 0002:00000288 00000038H .00cfg                  DATA
 0002:000002c0 00000008H .CRT$XCA                DATA
 0002:000002c8 00001af0H .CRT$XCU                DATA
 0002:00001db8 00000008H .CRT$XCZ                DATA
 0002:00001dc0 00000008H .CRT$XIA                DATA
 0002:00001dc8 00000018H .CRT$XIC                DATA
 0002:00001de0 00000008H .CRT$XIZ                DATA
 0002:00001de8 00000008H .CRT$XPA                DATA
 0002:00001df0 00000010H .CRT$XPX                DATA
 0002:00001e00 00000008H .CRT$XPXA               DATA
 0002:00001e08 00000008H .CRT$XPZ                DATA
 0002:00001e10 00000008H .CRT$XTA                DATA
 0002:00001e18 00000008H .CRT$XTZ                DATA
 0002:00001e20 00000000H .gehcont$y              DATA
 0002:00001e20 00000000H .gfids$y                DATA
 0002:00001e20 00011840H .rdata                  DATA
 0002:00013660 000001a0H .rdata$00               DATA
 0002:00013800 00000000H .rdata$CastGuardVftablesA DATA
 0002:00013800 00000000H .rdata$CastGuardVftablesC DATA
 0002:00013800 0000043cH .rdata$r                DATA
 0002:00013c3c 000003fcH .rdata$voltmd           DATA
 0002:00014038 00000490H .rdata$zzzdbg           DATA
 0002:000144c8 00000008H .rtc$IAA                DATA
 0002:000144d0 00000008H .rtc$IZZ                DATA
 0002:000144d8 00000008H .rtc$TAA                DATA
 0002:000144e0 00000008H .rtc$TZZ                DATA
 0002:000144e8 00016a28H .xdata                  DATA
 0002:0002af10 00000084H .xdata$x                DATA
 0002:0002af94 00000020H .didat$2                DATA
 0002:0002afb4 00000024H .didat$3                DATA
 0002:0002afd8 000000c8H .didat$4                DATA
 0002:0002b0a0 00000418H .didat$6                DATA
 0002:0002b4b8 000001e8H .didat$7                DATA
 0002:0002b6a0 0000c638H .edata                  DATA
 0002:00037cd8 00000014H .idata$2                DATA
 0002:00037cec 00000014H .idata$3                DATA
 0002:00037d00 00000288H .idata$4                DATA
 0002:00037f88 000005dcH .idata$6                DATA
 0003:00000000 00001cb0H .data                   DATA
 0003:00001cb0 00001278H .data$r                 DATA
 0003:00002f28 000000f0H .data$rs                DATA
 0003:00003018 000000c8H .didat$5                DATA
 0003:000030e0 000047acH .bss                    DATA
 0004:00000000 0000d2f0H .pdata                  DATA
 0005:00000000 00002404H _RDATA                  DATA
 0006:00000000 00000100H .fptable                DATA
 0007:00000000 000000a0H .rsrc$01                DATA
 0007:000000a0 000004b0H .rsrc$02                DATA

  Address         Publics by Value              Rva+Base               Lib:Object

 0000:00000000       __AbsoluteZero             0000000000000000     <absolute>
 0000:00000000       ___safe_se_handler_count   0000000000000000     <absolute>
 0000:00000000       ___safe_se_handler_table   0000000000000000     <absolute>
 0000:00000000       __arm64x_extra_rfe_table   0000000000000000     <absolute>
 0000:00000000       __arm64x_extra_rfe_table_size 0000000000000000     <absolute>
 0000:00000000       __arm64x_native_entrypoint 0000000000000000     <absolute>
 0000:00000000       __arm64x_redirection_metadata 0000000000000000     <absolute>
 0000:00000000       __arm64x_redirection_metadata_count 0000000000000000     <absolute>
 0000:00000000       __dynamic_value_reloc_table 0000000000000000     <absolute>
 0000:00000000       __enclave_config           0000000000000000     <absolute>
 0000:00000000       __guard_check_icall_a64n_fptr 0000000000000000     <absolute>
 0000:00000000       __guard_eh_cont_count      0000000000000000     <absolute>
 0000:00000000       __guard_eh_cont_table      0000000000000000     <absolute>
 0000:00000000       __guard_fids_count         0000000000000000     <absolute>
 0000:00000000       __guard_fids_table         0000000000000000     <absolute>
 0000:00000000       __guard_iat_count          0000000000000000     <absolute>
 0000:00000000       __guard_iat_table          0000000000000000     <absolute>
 0000:00000000       __guard_longjmp_count      0000000000000000     <absolute>
 0000:00000000       __guard_longjmp_table      0000000000000000     <absolute>
 0000:00000000       __hybrid_auxiliary_delayload_iat 0000000000000000     <absolute>
 0000:00000000       __hybrid_auxiliary_delayload_iat_copy 0000000000000000     <absolute>
 0000:00000000       __hybrid_auxiliary_iat     0000000000000000     <absolute>
 0000:00000000       __hybrid_auxiliary_iat_copy 0000000000000000     <absolute>
 0000:00000000       __hybrid_code_map          0000000000000000     <absolute>
 0000:00000000       __hybrid_code_map_count    0000000000000000     <absolute>
 0000:00000000       __hybrid_image_info_bitfield 0000000000000000     <absolute>
 0000:00000000       __x64_code_ranges_to_entry_points 0000000000000000     <absolute>
 0000:00000000       __x64_code_ranges_to_entry_points_count 0000000000000000     <absolute>
 0000:00000100       __guard_flags              0000000000000100     <absolute>
 0000:00000000       __ImageBase                0000000180000000     <linker-defined>
 0001:00003770       ??0PtrTable@Cm@physx@@QEAA@W4PxEMPTY@2@@Z 0000000180004770 f i CmPtrTable.obj
 0001:00003790       ??0PtrTable@Cm@physx@@QEAA@XZ 0000000180004790 f   CmPtrTable.obj
 0001:000037a0       ??1AABBTreeBuildNode@Gu@physx@@QEAA@XZ 00000001800047a0 f   GuMeshFactory.obj
 0001:000037a0       ??1BigConvexDataBuilder@physx@@QEAA@XZ 00000001800047a0 f   GuCookingBigConvexDataBuilder.obj
 0001:000037a0       ??1Box@Gu@physx@@QEAA@XZ   00000001800047a0 f   GuBox.obj
 0001:000037a0       ??1HeightFieldData@Gu@physx@@QEAA@XZ 00000001800047a0 f   GuCCTSweepTests.obj
 0001:000037a0       ??1PtrTable@Cm@physx@@QEAA@XZ 00000001800047a0 f   CmPtrTable.obj
 0001:000037a0       ?build@CompanionPrunerIncremental@@UEAAXXZ 00000001800047a0 f   GuSecondaryPruner.obj
 0001:000037a0       ?checkTreeLeaf@IncrementalAABBTree@Gu@physx@@QEAAXPEAVIncrementalAABBTreeNode@23@I@Z 00000001800047a0 f   GuIncrementalAABBTree.obj
 0001:000037a0       ?execute@?$PxThreadT@V?$PxReflectionAllocator@VPxThreadImpl@physx@@@physx@@@physx@@UEAAXXZ 00000001800047a0 f   GuSDF.obj
 0001:000037a0       ?execute@PxRunnable@physx@@UEAAXXZ 00000001800047a0 f   GuSDF.obj
 0001:000037a0       ?merge@BucketPruner@Gu@physx@@UEAAXPEBX@Z 00000001800047a0 f   GuBucketPruner.obj
 0001:000037a0       ?merge@IncrementalAABBPruner@Gu@physx@@UEAAXPEBX@Z 00000001800047a0 f   GuIncrementalAABBPruner.obj
 0001:000037a0       ?onMeshIndexFormatChange@TriangleMeshBuilder@physx@@UEAAXXZ 00000001800047a0 f   GuCookingTriangleMesh.obj
 0001:000037a0       ?profile@Callback@RTree@Gu@physx@@UEAAXXZ 00000001800047a0 f   GuMidphaseRTree.obj
 0001:000037a0       ?purge@BucketPruner@Gu@physx@@UEAAXXZ 00000001800047a0 f   GuBucketPruner.obj
 0001:000037a0       ?requiresObjects@ConvexMesh@Gu@physx@@UEAAXAEAVPxProcessPxBaseCallback@3@@Z 00000001800047a0 f   GuConvexMesh.obj
 0001:000037a0       ?requiresObjects@DeformableVolumeMesh@Gu@physx@@UEAAXAEAVPxProcessPxBaseCallback@3@@Z 00000001800047a0 f   GuTetrahedronMesh.obj
 0001:000037a0       ?requiresObjects@HeightField@Gu@physx@@UEAAXAEAVPxProcessPxBaseCallback@3@@Z 00000001800047a0 f   GuHeightField.obj
 0001:000037a0       ?requiresObjects@TriangleMesh@Gu@physx@@UEAAXAEAVPxProcessPxBaseCallback@3@@Z 00000001800047a0 f   GuTriangleMesh.obj
 0001:000037a0       ?swapIndex@CompanionPrunerAABBTree@@UEAAXII@Z 00000001800047a0 f   GuSecondaryPruner.obj
 0001:000037a0       ?swapIndex@CompanionPrunerBucket@@UEAAXII@Z 00000001800047a0 f   GuSecondaryPruner.obj
 0001:000037a0       ?timeStampChange@CompanionPrunerAABBTree@@UEAAXXZ 00000001800047a0 f   GuSecondaryPruner.obj
 0001:000037a0       ?timeStampChange@CompanionPrunerBucket@@UEAAXXZ 00000001800047a0 f   GuSecondaryPruner.obj
 0001:000037a0       ?visualize@BasePruner@Gu@physx@@UEBAXAEAVPxRenderOutput@3@II@Z 00000001800047a0 f   GuIncrementalAABBPruner.obj
 0001:000037a0       _guard_check_icall_nop     00000001800047a0 f   LIBCMT:guard_support.obj
 0001:000037b0       ??4AABBTreeBounds@Gu@physx@@QEAAAEAV012@AEBV012@@Z 00000001800047b0 f i GuMeshFactory.obj
 0001:000037b0       ??4CmModuleUpdateLoader@Cm@physx@@QEAAAEAV012@AEBV012@@Z 00000001800047b0 f i CmWindowsModuleUpdateLoader.obj
 0001:000037b0       ??4PtrTable@Cm@physx@@QEAAAEAU012@AEBU012@@Z 00000001800047b0 f i CmPtrTable.obj
 0001:000037c0       ?add@PtrTable@Cm@physx@@QEAAXPEAXAEAVPtrTableStorageManager@23@@Z 00000001800047c0 f   CmPtrTable.obj
 0001:00003880       ?clear@PtrTable@Cm@physx@@QEAAXAEAVPtrTableStorageManager@23@@Z 0000000180004880 f   CmPtrTable.obj
 0001:000038f0       ?exportExtraData@PtrTable@Cm@physx@@QEAAXAEAVPxSerializationContext@3@@Z 00000001800048f0 f   CmPtrTable.obj
 0001:00003940       ?find@PtrTable@Cm@physx@@QEBAIPEBX@Z 0000000180004940 f   CmPtrTable.obj
 0001:00003970       ?getCount@PtrTable@Cm@physx@@QEBAIXZ 0000000180004970 f i CmPtrTable.obj
 0001:00003980       ?getPtrs@PtrTable@Cm@physx@@QEAAPEAPEAXXZ 0000000180004980 f i CmPtrTable.obj
 0001:00003980       ?getPtrs@PtrTable@Cm@physx@@QEBAPEBQEAXXZ 0000000180004980 f i CmPtrTable.obj
 0001:00003990       ?importExtraData@PtrTable@Cm@physx@@QEAAXAEAVPxDeserializationContext@3@@Z 0000000180004990 f   CmPtrTable.obj
 0001:000039c0       ?realloc@PtrTable@Cm@physx@@AEAAXIIAEAVPtrTableStorageManager@23@@Z 00000001800049c0 f   CmPtrTable.obj
 0001:00003a70       ?replaceWithLast@PtrTable@Cm@physx@@QEAAXIAEAVPtrTableStorageManager@23@@Z 0000000180004a70 f   CmPtrTable.obj
 0001:00003b70       ??_ECollection@Cm@physx@@UEAAPEAXI@Z 0000000180004b70 f i CmCollection.obj
 0001:00003b70       ??_GCollection@Cm@physx@@UEAAPEAXI@Z 0000000180004b70 f i CmCollection.obj
 0001:00003c20       ??_EPxCollection@physx@@MEAAPEAXI@Z 0000000180004c20 f i CmCollection.obj
 0001:00003c20       ??_GPxCollection@physx@@MEAAPEAXI@Z 0000000180004c20 f i CmCollection.obj
 0001:00003c50       ?add@Collection@Cm@physx@@UEAAXAEAVPxBase@3@_K@Z 0000000180004c50 f   CmCollection.obj
 0001:00003d40       ?add@Collection@Cm@physx@@UEAAXAEAVPxCollection@3@@Z 0000000180004d40 f   CmCollection.obj
 0001:00003ee0       ?addId@Collection@Cm@physx@@UEAAXAEAVPxBase@3@_K@Z 0000000180004ee0 f   CmCollection.obj
 0001:00004010       ?contains@Collection@Cm@physx@@UEBA_NAEAVPxBase@3@@Z 0000000180005010 f   CmCollection.obj
 0001:000040c0       ?create@?$PxHashBase@V?$PxPair@$$CB_KPEAVPxBase@physx@@@physx@@_KU?$PxHash@_K@2@UGetKey@?$PxHashMapBase@_KPEAVPxBase@physx@@U?$PxHash@_K@2@VPxAllocator@2@@2@VPxAllocator@2@$00@physx@@QEAAPEAV?$PxPair@$$CB_KPEAVPxBase@physx@@@2@AEB_KAEA_N@Z 00000001800050c0 f i CmCollection.obj
 0001:000040c0       ?create@?$PxHashBase@V?$PxPair@QEAVPxBase@physx@@_K@physx@@PEAVPxBase@2@U?$PxHash@PEAVPxBase@physx@@@2@UGetKey@?$PxHashMapBase@PEAVPxBase@physx@@_KU?$PxHash@PEAVPxBase@physx@@@2@VPxAllocator@2@@2@VPxAllocator@2@$00@physx@@QEAAPEAV?$PxPair@QEAVPxBase@physx@@_K@2@AEBQEAVPxBase@2@AEA_N@Z 00000001800050c0 f i CmCollection.obj
 0001:00004250       ?erase@?$PxHashBase@V?$PxPair@$$CB_KPEAVPxBase@physx@@@physx@@_KU?$PxHash@_K@2@UGetKey@?$PxHashMapBase@_KPEAVPxBase@physx@@U?$PxHash@_K@2@VPxAllocator@2@@2@VPxAllocator@2@$00@physx@@QEAA_NAEB_K@Z 0000000180005250 f i CmCollection.obj
 0001:00004250       ?erase@?$PxHashBase@V?$PxPair@QEAVPxBase@physx@@_K@physx@@PEAVPxBase@2@U?$PxHash@PEAVPxBase@physx@@@2@UGetKey@?$PxHashMapBase@PEAVPxBase@physx@@_KU?$PxHash@PEAVPxBase@physx@@@2@VPxAllocator@2@@2@VPxAllocator@2@$00@physx@@QEAA_NAEBQEAVPxBase@2@@Z 0000000180005250 f i CmCollection.obj
 0001:00004400       ?find@?$PxHashMapBase@_KPEAVPxBase@physx@@U?$PxHash@_K@2@VPxAllocator@2@@physx@@QEBAPEBV?$PxPair@$$CB_KPEAVPxBase@physx@@@2@AEB_K@Z 0000000180005400 f i CmCollection.obj
 0001:000044a0       ?find@Collection@Cm@physx@@UEBAPEAVPxBase@3@_K@Z 00000001800054a0 f   CmCollection.obj
 0001:000044d0       ?getId@Collection@Cm@physx@@UEBA_KAEBVPxBase@3@@Z 00000001800054d0 f   CmCollection.obj
 0001:00004580       ?getIds@Collection@Cm@physx@@UEBAIPEA_KII@Z 0000000180005580 f   CmCollection.obj
 0001:00004650       ?getNbIds@Collection@Cm@physx@@UEBAIXZ 0000000180005650 f   CmCollection.obj
 0001:00004660       ?getNbObjects@Collection@Cm@physx@@UEBAIXZ 0000000180005660 f   CmCollection.obj
 0001:00004670       ?getObject@Collection@Cm@physx@@UEBAAEAVPxBase@3@I@Z 0000000180005670 f   CmCollection.obj
 0001:00004680       ?getObjects@Collection@Cm@physx@@UEBAIPEAPEAVPxBase@3@II@Z 0000000180005680 f   CmCollection.obj
 0001:000046c0       ?release@Collection@Cm@physx@@UEAAXXZ 00000001800056c0 f i CmCollection.obj
 0001:000046e0       ?remove@Collection@Cm@physx@@UEAAXAEAVPxBase@3@@Z 00000001800056e0 f   CmCollection.obj
 0001:000047d0       ?remove@Collection@Cm@physx@@UEAAXAEAVPxCollection@3@@Z 00000001800057d0 f   CmCollection.obj
 0001:000048e0       ?removeId@Collection@Cm@physx@@UEAAX_K@Z 00000001800058e0 f   CmCollection.obj
 0001:00004960       ?reserveInternal@?$PxHashBase@V?$PxPair@$$CB_KPEAVPxBase@physx@@@physx@@_KU?$PxHash@_K@2@UGetKey@?$PxHashMapBase@_KPEAVPxBase@physx@@U?$PxHash@_K@2@VPxAllocator@2@@2@VPxAllocator@2@$00@physx@@AEAAXI@Z 0000000180005960 f i CmCollection.obj
 0001:00004960       ?reserveInternal@?$PxHashBase@V?$PxPair@QEAVPxBase@physx@@_K@physx@@PEAVPxBase@2@U?$PxHash@PEAVPxBase@physx@@@2@UGetKey@?$PxHashMapBase@PEAVPxBase@physx@@_KU?$PxHash@PEAVPxBase@physx@@@2@VPxAllocator@2@@2@VPxAllocator@2@$00@physx@@AEAAXI@Z 0000000180005960 f i CmCollection.obj
 0001:00004b40       PxCreateCollection         0000000180005b40 f   CmCollection.obj
 0001:00004c30       ??0RadixSort@Cm@physx@@QEAA@XZ 0000000180005c30 f   CmRadixSort.obj
 0001:00004c60       ??0RadixSortBuffered@Cm@physx@@QEAA@XZ 0000000180005c60 f   CmRadixSort.obj
 0001:00004c90       ??1RadixSort@Cm@physx@@UEAA@XZ 0000000180005c90 f   CmRadixSort.obj
 0001:00004ca0       ??1RadixSortBuffered@Cm@physx@@UEAA@XZ 0000000180005ca0 f   CmRadixSort.obj
 0001:00004cd0       ??_ERadixSort@Cm@physx@@UEAAPEAXI@Z 0000000180005cd0 f i CmRadixSort.obj
 0001:00004d60       ??_ERadixSortBuffered@Cm@physx@@UEAAPEAXI@Z 0000000180005d60 f i CmRadixSort.obj
 0001:00004e50       ?CheckResize@RadixSortBuffered@Cm@physx@@AEAAXI@Z 0000000180005e50 f i CmRadixSort.obj
 0001:00004e90       ?GetNbHits@RadixSort@Cm@physx@@QEBAIXZ 0000000180005e90 f i CmRadixSort.obj
 0001:00004ea0       ?GetNbTotalCalls@RadixSort@Cm@physx@@QEBAIXZ 0000000180005ea0 f i CmRadixSort.obj
 0001:00004eb0       ?GetRanks@RadixSort@Cm@physx@@QEBAPEBIXZ 0000000180005eb0 f i CmRadixSort.obj
 0001:00004eb0       ?getGridModelInvMass@DeformableVolumeAuxData@Gu@physx@@UEAAPEAMXZ 0000000180005eb0 f i GuTetrahedronMesh.obj
 0001:00004eb0       ?getHeightField@HeightFieldUtil@Gu@physx@@QEBAAEBVHeightField@23@XZ 0000000180005eb0 f i GuCCTSweepTests.obj
 0001:00004eb0       ?getSimulationMesh@DeformableVolumeMesh@Gu@physx@@UEAAPEAVPxTetrahedronMesh@3@XZ 0000000180005eb0 f i GuTetrahedronMesh.obj
 0001:00004eb0       ?getSimulationMesh@DeformableVolumeMesh@Gu@physx@@UEBAPEBVPxTetrahedronMesh@3@XZ 0000000180005eb0 f i GuTetrahedronMesh.obj
 0001:00004ec0       ?GetRecyclable@RadixSort@Cm@physx@@QEBAPEAIXZ 0000000180005ec0 f i CmRadixSort.obj
 0001:00004ec0       ?GetValencies@BigConvexData@physx@@QEBAPEBUValency@Gu@2@XZ 0000000180005ec0 f i GuBigConvexData.obj
 0001:00004ec0       ?getCollisionMesh@DeformableVolumeMesh@Gu@physx@@UEAAPEAVPxTetrahedronMesh@3@XZ 0000000180005ec0 f i GuTetrahedronMesh.obj
 0001:00004ec0       ?getCollisionMesh@DeformableVolumeMesh@Gu@physx@@UEBAPEBVPxTetrahedronMesh@3@XZ 0000000180005ec0 f i GuTetrahedronMesh.obj
 0001:00004ec0       ?getHeightFieldGeometry@HeightFieldUtil@Gu@physx@@QEBAAEBVPxHeightFieldGeometry@3@XZ 0000000180005ec0 f i GuCCTSweepTests.obj
 0001:00004ec0       ?getObjects@PruningPool@Gu@physx@@QEBAPEAUPrunerPayload@23@XZ 0000000180005ec0 f i GuIncrementalAABBPrunerCore.obj
 0001:00004ec0       ?getPos@AABBTreeBuildNode@Gu@physx@@QEBAPEBV123@XZ 0000000180005ec0 f i GuMeshFactory.obj
 0001:00004ec0       ?getVertices@TetrahedronMesh@Gu@physx@@UEBAPEBV?$PxVec3T@M@3@XZ 0000000180005ec0 f i GuTetrahedronMesh.obj
 0001:00004ec0       ?getVertices@TriangleMesh@Gu@physx@@UEBAPEBV?$PxVec3T@M@3@XZ 0000000180005ec0 f i GuTriangleMesh.obj
 0001:00004ed0       ?Resize@RadixSortBuffered@Cm@physx@@AEAA_NI@Z 0000000180005ed0 f   CmRadixSort.obj
 0001:00004fd0       ?SetBuffers@RadixSort@Cm@physx@@QEAA_NPEAI00PEAPEAI@Z 0000000180005fd0 f   CmRadixSort.obj
 0001:00005010       ?Sort@RadixSort@Cm@physx@@QEAAAEAV123@PEBIIW4RadixHint@23@@Z 0000000180006010 f   CmRadixSort.obj
 0001:000056c0       ?Sort@RadixSort@Cm@physx@@QEAAAEAV123@PEBMI@Z 00000001800066c0 f   CmRadixSort.obj
 0001:00005e50       ?Sort@RadixSortBuffered@Cm@physx@@QEAAAEAV123@PEBIIW4RadixHint@23@@Z 0000000180006e50 f   CmRadixSort.obj
 0001:00005ef0       ?Sort@RadixSortBuffered@Cm@physx@@QEAAAEAV123@PEBMI@Z 0000000180006ef0 f   CmRadixSort.obj
 0001:00005f80       ?invalidateRanks@RadixSort@Cm@physx@@QEAAXXZ 0000000180006f80 f i CmRadixSort.obj
 0001:00005f90       ?reset@RadixSortBuffered@Cm@physx@@QEAAXXZ 0000000180006f90 f   CmRadixSort.obj
 0001:00006010       ?ReadHeader@Cm@physx@@YA_NEEEEAEAIAEA_NAEAVPxInputStream@2@@Z 0000000180007010 f   CmSerialize.obj
 0001:00006170       ?ReadIndices@Cm@physx@@YAXGIPEAGAEAVPxInputStream@2@_N@Z 0000000180007170 f   CmSerialize.obj
 0001:00006300       ?StoreIndices@Cm@physx@@YAXGIPEBGAEAVPxOutputStream@2@_N@Z 0000000180007300 f   CmSerialize.obj
 0001:000063f0       ?WriteHeader@Cm@physx@@YA_NEEEEI_NAEAVPxOutputStream@2@@Z 00000001800073f0 f   CmSerialize.obj
 0001:00006520       ?computeMaxIndex@physx@@YAGPEBGI@Z 0000000180007520 f   CmSerialize.obj
 0001:00006550       ?computeMaxIndex@physx@@YAIPEBII@Z 0000000180007550 f   CmSerialize.obj
 0001:00006580       ?readByteBuffer@physx@@YAXPEAEIAEAVPxInputStream@1@@Z 0000000180007580 f   CmSerialize.obj
 0001:00006580       ?writeByteBuffer@physx@@YAXPEBEIAEAVPxOutputStream@1@@Z 0000000180007580 f   CmSerialize.obj
 0001:000065a0       ?readChunk@physx@@YAXAEAC000AEAVPxInputStream@1@@Z 00000001800075a0 f   CmSerialize.obj
 0001:00006620       ?readDword@physx@@YAI_NAEAVPxInputStream@1@@Z 0000000180007620 f   CmSerialize.obj
 0001:00006680       ?readFloat@physx@@YAM_NAEAVPxInputStream@1@@Z 0000000180007680 f   CmSerialize.obj
 0001:000066e0       ?readFloatBuffer@physx@@YA_NPEAMI_NAEAVPxInputStream@1@@Z 00000001800076e0 f   CmSerialize.obj
 0001:00006760       ?readHeader@physx@@YA_NCCCCAEAIAEA_NAEAVPxInputStream@1@@Z 0000000180007760 f   CmSerialize.obj
 0001:000068b0       ?readIndices@physx@@YAXIIPEAIAEAVPxInputStream@1@_N@Z 00000001800078b0 f   CmSerialize.obj
 0001:000069e0       ?readWord@physx@@YAG_NAEAVPxInputStream@1@@Z 00000001800079e0 f   CmSerialize.obj
 0001:00006a20       ?readWordBuffer@physx@@YAXPEAGI_NAEAVPxInputStream@1@@Z 0000000180007a20 f   CmSerialize.obj
 0001:00006a90       ?storeIndices@physx@@YAXIIPEBIAEAVPxOutputStream@1@_N@Z 0000000180007a90 f   CmSerialize.obj
 0001:00006c20       ?writeDword@physx@@YAXI_NAEAVPxOutputStream@1@@Z 0000000180007c20 f   CmSerialize.obj
 0001:00006c70       ?writeFloat@physx@@YAXM_NAEAVPxOutputStream@1@@Z 0000000180007c70 f   CmSerialize.obj
 0001:00006cc0       ?writeFloatBuffer@physx@@YAXPEBMI_NAEAVPxOutputStream@1@@Z 0000000180007cc0 f   CmSerialize.obj
 0001:00006d60       ?writeHeader@physx@@YA_NCCCCI_NAEAVPxOutputStream@1@@Z 0000000180007d60 f   CmSerialize.obj
 0001:00006e90       ?writeWord@physx@@YAXG_NAEAVPxOutputStream@1@@Z 0000000180007e90 f   CmSerialize.obj
 0001:00006ed0       ?writeWordBuffer@physx@@YAXPEBGI_NAEAVPxOutputStream@1@@Z 0000000180007ed0 f   CmSerialize.obj
 0001:00006f50       ??6PxRenderOutput@physx@@QEAAAEAV01@AEBV?$PxTransformT@M@1@@Z 0000000180007f50 f i CmVisualization.obj
 0001:000070d0       ??6PxRenderOutput@physx@@QEAAAEAV01@AEBV?$PxVec3T@M@1@@Z 00000001800080d0 f i CmVisualization.obj
 0001:000073d0       ?renderOutputDebugArrow@Cm@physx@@YAXAEAVPxRenderOutput@2@AEBUPxDebugArrow@2@@Z 00000001800083d0 f   CmVisualization.obj
 0001:00007770       ?renderOutputDebugBasis@Cm@physx@@YAXAEAVPxRenderOutput@2@AEBUPxDebugBasis@2@@Z 0000000180008770 f   CmVisualization.obj
 0001:00007d00       ?renderOutputDebugBox@Cm@physx@@YAXAEAVPxRenderOutput@2@AEBVPxBounds3@2@@Z 0000000180008d00 f   CmVisualization.obj
 0001:00007f70       ?renderOutputDebugCircle@Cm@physx@@YAXAEAVPxRenderOutput@2@IM@Z 0000000180008f70 f   CmVisualization.obj
 0001:00008050       ?visualizeAngularLimit@Cm@physx@@YAXAEAVPxRenderOutput@2@MAEBV?$PxTransformT@M@2@MM@Z 0000000180009050 f   CmVisualization.obj
 0001:000081e0       ?visualizeDoubleCone@Cm@physx@@YAXAEAVPxRenderOutput@2@MAEBV?$PxTransformT@M@2@M@Z 00000001800091e0 f   CmVisualization.obj
 0001:000083e0       ?visualizeJointFrames@Cm@physx@@YAXAEAVPxRenderOutput@2@MAEBV?$PxTransformT@M@2@1@Z 00000001800093e0 f   CmVisualization.obj
 0001:000090d0       ?visualizeLimitCone@Cm@physx@@YAXAEAVPxRenderOutput@2@MAEBV?$PxTransformT@M@2@MM@Z 000000018000a0d0 f   CmVisualization.obj
 0001:00009300       ?visualizeLinearLimit@Cm@physx@@YAXAEAVPxRenderOutput@2@MAEBV?$PxTransformT@M@2@1M@Z 000000018000a300 f   CmVisualization.obj
 0001:000098f0       ??0CmModuleUpdateLoader@Cm@physx@@QEAA@PEBD@Z 000000018000a8f0 f   CmWindowsModuleUpdateLoader.obj
 0001:00009930       ??1CmModuleUpdateLoader@Cm@physx@@QEAA@XZ 000000018000a930 f   CmWindowsModuleUpdateLoader.obj
 0001:00009960       ?LoadModule@CmModuleUpdateLoader@Cm@physx@@QEAAPEAUHINSTANCE__@@PEBD0@Z 000000018000a960 f   CmWindowsModuleUpdateLoader.obj
 0001:000099d0       __local_stdio_printf_options 000000018000a9d0 f i CmWindowsModuleUpdateLoader.obj
 0001:000099e0       printf                     000000018000a9e0 f i CmWindowsModuleUpdateLoader.obj
 0001:00009a40       ?commonDelayHook@@YAP6A_JXZIPEAUDelayLoadInfo@@@Z 000000018000aa40 f   CmWindowsDelayLoadHook.obj
 0001:00009b20       PxSetPhysXCommonDelayLoadHook 000000018000ab20 f   CmWindowsDelayLoadHook.obj
 0001:00009b30       ??0?$PxQuatT@M@physx@@QEAA@AEBV?$PxMat33T@M@1@@Z 000000018000ab30 f i GuBox.obj
 0001:00009d30       ??0Box@Gu@physx@@QEAA@AEBV012@@Z 000000018000ad30 f i GuBox.obj
 0001:00009d30       ??4Box@Gu@physx@@QEAAAEBV012@AEBV012@@Z 000000018000ad30 f i GuBox.obj
 0001:00009d90       ??0Box@Gu@physx@@QEAA@AEBV?$PxVec3T@M@2@0AEBV?$PxMat33T@M@2@@Z 000000018000ad90 f i GuBox.obj
 0001:00009e00       ??0AABBTreeBuildNode@Gu@physx@@QEAA@XZ 000000018000ae00 f i GuMeshFactory.obj
 0001:00009e00       ??0BigConvexData@physx@@QEAA@W4PxEMPTY@1@@Z 000000018000ae00 f i GuBigConvexData.obj
 0001:00009e00       ??0Box@Gu@physx@@QEAA@XZ   000000018000ae00 f i GuBox.obj
 0001:00009e00       ??0HeightFieldData@Gu@physx@@QEAA@W4PxEMPTY@2@@Z 000000018000ae00 f i GuCCTSweepTests.obj
 0001:00009e00       ?getAABB@AABBTreeBuildNode@Gu@physx@@QEBAAEBVPxBounds3@3@XZ 000000018000ae00 f i GuMeshFactory.obj
 0001:00009e00       ?getPaddedBounds@HeightFieldData@Gu@physx@@QEBAAEBVCenterExtentsPadded@23@XZ 000000018000ae00 f i GuCCTSweepTests.obj
 0001:00009e10       ?computeAABBExtent@Box@Gu@physx@@QEBA?AV?$PxVec3T@M@3@XZ 000000018000ae10 f i GuBox.obj
 0001:00009ed0       ?computeBoxPoints@Box@Gu@physx@@QEBAXPEIAV?$PxVec3T@M@3@@Z 000000018000aed0 f i GuBox.obj
 0001:00009f10       ?computeOBBPoints@Gu@physx@@YAXPEIAV?$PxVec3T@M@2@AEBV32@1111@Z 000000018000af10 f   GuBox.obj
 0001:0000a190       ?create@Box@Gu@physx@@QEAAXAEBVCapsule@23@@Z 000000018000b190 f   GuBox.obj
 0001:0000a3c0       ?getBoxEdges@Gu@physx@@YAPEBEXZ 000000018000b3c0 f   GuBox.obj
 0001:0000a3d0       ?getTransform@Box@Gu@physx@@QEBA?AV?$PxTransformT@M@3@XZ 000000018000b3d0 f i GuBox.obj
 0001:0000a430       ?isValid@Box@Gu@physx@@QEBA_NXZ 000000018000b430 f i GuBox.obj
 0001:0000a450       ?rotate@Box@Gu@physx@@QEBA?AV?$PxVec3T@M@3@AEBV43@@Z 000000018000b450 f i GuBox.obj
 0001:0000a4e0       ?rotateInv@Box@Gu@physx@@QEBA?AV?$PxVec3T@M@3@AEBV43@@Z 000000018000b4e0 f i GuBox.obj
 0001:0000a570       ?setAxes@Box@Gu@physx@@QEAAXAEBV?$PxVec3T@M@3@00@Z 000000018000b570 f i GuBox.obj
 0001:0000a5b0       ?setEmpty@Box@Gu@physx@@QEAAXXZ 000000018000b5b0 f i GuBox.obj
 0001:0000a5f0       ?transform@Box@Gu@physx@@QEBA?AV?$PxVec3T@M@3@AEBV43@@Z 000000018000b5f0 f i GuBox.obj
 0001:0000a690       ?PxComputeBasisVectors@physx@@YAXAEBV?$PxVec3T@M@1@0AEAV21@11@Z 000000018000b690 f i GuCapsule.obj
 0001:0000a830       ?computeBoxAroundCapsule@Gu@physx@@YAXAEBVCapsule@12@AEAVBox@12@@Z 000000018000b830 f   GuCapsule.obj
 0001:0000a980       ??0HeightFieldData@Gu@physx@@QEAA@$$QEAU012@@Z 000000018000b980 f i GuCCTSweepTests.obj
 0001:0000a980       ??0HeightFieldData@Gu@physx@@QEAA@AEBU012@@Z 000000018000b980 f i GuCCTSweepTests.obj
 0001:0000a980       ??4HeightFieldData@Gu@physx@@QEAAAEAU012@$$QEAU012@@Z 000000018000b980 f i GuCCTSweepTests.obj
 0001:0000a980       ??4HeightFieldData@Gu@physx@@QEAAAEAU012@AEBU012@@Z 000000018000b980 f i GuCCTSweepTests.obj
 0001:0000a9e0       ??0HeightFieldData@Gu@physx@@QEAA@XZ 000000018000b9e0 f i GuCCTSweepTests.obj
 0001:0000a9f0       ??0HeightFieldTraceUtil@Gu@physx@@QEAA@AEBVPxHeightFieldGeometry@2@@Z 000000018000b9f0 f i GuCCTSweepTests.obj
 0001:0000a9f0       ??0HeightFieldUtil@Gu@physx@@QEAA@AEBVPxHeightFieldGeometry@2@@Z 000000018000b9f0 f i GuCCTSweepTests.obj
 0001:0000aa30       ??4AABBTreeBuildParams@Gu@physx@@QEAAAEAV012@AEBV012@@Z 000000018000ba30 f i GuMeshFactory.obj
 0001:0000aa30       ??4HeightFieldTraceUtil@Gu@physx@@QEAAAEAV012@$$QEAV012@@Z 000000018000ba30 f i GuCCTSweepTests.obj
 0001:0000aa30       ??4HeightFieldTraceUtil@Gu@physx@@QEAAAEAV012@AEBV012@@Z 000000018000ba30 f i GuCCTSweepTests.obj
 0001:0000aa30       ??4HeightFieldUtil@Gu@physx@@QEAAAEAV012@AEBV012@@Z 000000018000ba30 f i GuCCTSweepTests.obj
 0001:0000aa50       ??4HeightFieldUtil@Gu@physx@@QEAAAEAV012@$$QEAV012@@Z 000000018000ba50 f i GuCCTSweepTests.obj
 0001:0000aab0       ??_EEntityReport@Gu@physx@@UEAAPEAXI@Z 000000018000bab0 f i GuSweepsHF.obj
 0001:0000aab0       ??_EOverlapCallback@PxBVH@physx@@UEAAPEAXI@Z 000000018000bab0 f i GuQuerySystem.obj
 0001:0000aab0       ??_EOverlapReport@Gu@physx@@UEAAPEAXI@Z 000000018000bab0 f i GuCCTSweepTests.obj
 0001:0000aab0       ??_ERaycastCallback@PxBVH@physx@@UEAAPEAXI@Z 000000018000bab0 f i GuQuerySystem.obj
 0001:0000aab0       ??_ERemapCallback@RTreeCooker@physx@@UEAAPEAXI@Z 000000018000bab0 f i GuCookingTriangleMesh.obj
 0001:0000aab0       ??_GEntityReport@Gu@physx@@UEAAPEAXI@Z 000000018000bab0 f i GuSweepsHF.obj
 0001:0000aab0       ??_GOverlapCallback@PxBVH@physx@@UEAAPEAXI@Z 000000018000bab0 f i GuQuerySystem.obj
 0001:0000aab0       ??_GOverlapReport@Gu@physx@@UEAAPEAXI@Z 000000018000bab0 f i GuCCTSweepTests.obj
 0001:0000aab0       ??_GRaycastCallback@PxBVH@physx@@UEAAPEAXI@Z 000000018000bab0 f i GuQuerySystem.obj
 0001:0000aab0       ??_GRemapCallback@RTreeCooker@physx@@UEAAPEAXI@Z 000000018000bab0 f i GuCookingTriangleMesh.obj
 0001:0000aae0       ??_H@YAXPEAX_K1P6APEAX0@Z@Z 000000018000bae0 f i GuCCTSweepTests.obj
 0001:0000ab30       ?ceilUp@HeightFieldTraceUtil@Gu@physx@@SAMM@Z 000000018000bb30 f i GuCCTSweepTests.obj
 0001:0000ab70       ?floorDown@HeightFieldTraceUtil@Gu@physx@@SAMM@Z 000000018000bb70 f i GuCCTSweepTests.obj
 0001:0000abb0       ?getHeightAtShapePoint@HeightFieldUtil@Gu@physx@@QEBAMMM@Z 000000018000bbb0 f i GuCCTSweepTests.obj
 0001:0000ac10       ?getHeightInternal2@HeightField@Gu@physx@@QEBAMIMM@Z 000000018000bc10 f i GuCCTSweepTests.obj
 0001:0000ad80       ?getNormalAtShapePoint@HeightFieldUtil@Gu@physx@@QEBA?AV?$PxVec3T@M@3@MM@Z 000000018000bd80 f i GuCCTSweepTests.obj
 0001:0000ae40       ?getNormal_2@HeightField@Gu@physx@@QEBA?AV?$PxVec3T@M@3@IMMMMM@Z 000000018000be40 f i GuCCTSweepTests.obj
 0001:0000af60       ?getOneOverColumnScale@HeightFieldUtil@Gu@physx@@QEBAMXZ 000000018000bf60 f i GuCCTSweepTests.obj
 0001:0000af70       ?getOneOverHeightScale@HeightFieldUtil@Gu@physx@@QEBAMXZ 000000018000bf70 f i GuCCTSweepTests.obj
 0001:0000af80       ?getOneOverRowScale@HeightFieldUtil@Gu@physx@@QEBAMXZ 000000018000bf80 f i GuCCTSweepTests.obj
 0001:0000af90       ?hf2shapen@HeightFieldUtil@Gu@physx@@QEBA?AV?$PxVec3T@M@3@AEBV43@@Z 000000018000bf90 f i GuCCTSweepTests.obj
 0001:0000af90       ?shape2hfp@HeightFieldUtil@Gu@physx@@QEBA?AV?$PxVec3T@M@3@AEBV43@@Z 000000018000bf90 f i GuCCTSweepTests.obj
 0001:0000afd0       ?hf2shapep@HeightFieldUtil@Gu@physx@@QEBA?AV?$PxVec3T@M@3@AEBV43@@Z 000000018000bfd0 f i GuCCTSweepTests.obj
 0001:0000b010       ?hf2worldn@HeightFieldUtil@Gu@physx@@QEBA?AV?$PxVec3T@M@3@AEBV?$PxTransformT@M@3@AEBV43@@Z 000000018000c010 f i GuCCTSweepTests.obj
 0001:0000b180       ?hf2worldp@HeightFieldUtil@Gu@physx@@QEBA?AV?$PxVec3T@M@3@AEBV?$PxTransformT@M@3@AEBV43@@Z 000000018000c180 f i GuCCTSweepTests.obj
 0001:0000b300       ?overlapAABBTriangles0to1@HeightFieldUtil@Gu@physx@@QEBAXAEBV?$PxTransformT@M@3@AEBVPxBounds3@3@AEAVOverlapReport@23@I@Z 000000018000c300 f i GuCCTSweepTests.obj
 0001:0000b680       ?overlapAABBTriangles@HeightFieldUtil@Gu@physx@@QEBAXAEBV?$PxTransformT@M@3@0AEBVPxBounds3@3@AEAVOverlapReport@23@I@Z 000000018000c680 f i GuCCTSweepTests.obj
 0001:0000bca0       ?overlapAABBTriangles@HeightFieldUtil@Gu@physx@@QEBAXAEBV?$PxTransformT@M@3@AEBVPxBounds3@3@AEAVOverlapReport@23@I@Z 000000018000cca0 f i GuCCTSweepTests.obj
 0001:0000c350       ?sweepBoxTriangles_Precise@Gu@physx@@YA_NIPEBVPxTriangle@2@_NAEBVPxBoxGeometry@2@AEBV?$PxTransformT@M@2@AEBV?$PxVec3T@M@2@MAEAUPxGeomSweepHit@2@PEBIMV?$PxFlags@W4Enum@PxHitFlag@physx@@G@2@@Z 000000018000d350 f   GuCCTSweepTests.obj
 0001:0000d110       ?sweepBox_BoxGeom_Precise@@YA_NAEBVPxGeometry@physx@@AEBV?$PxTransformT@M@2@AEBVPxBoxGeometry@2@1AEBVBox@Gu@2@AEBV?$PxVec3T@M@2@MAEAUPxGeomSweepHit@2@V?$PxFlags@W4Enum@PxHitFlag@physx@@G@2@MPEAUPxQueryThreadContext@2@@Z 000000018000e110 f   GuCCTSweepTests.obj
 0001:0000d2d0       ?sweepBox_CapsuleGeom_Precise@@YA_NAEBVPxGeometry@physx@@AEBV?$PxTransformT@M@2@AEBVPxBoxGeometry@2@1AEBVBox@Gu@2@AEBV?$PxVec3T@M@2@MAEAUPxGeomSweepHit@2@V?$PxFlags@W4Enum@PxHitFlag@physx@@G@2@MPEAUPxQueryThreadContext@2@@Z 000000018000e2d0 f   GuCCTSweepTests.obj
 0001:0000d6a0       ?sweepBox_HeightFieldGeom_Precise@@YA_NAEBVPxGeometry@physx@@AEBV?$PxTransformT@M@2@AEBVPxBoxGeometry@2@1AEBVBox@Gu@2@AEBV?$PxVec3T@M@2@MAEAUPxGeomSweepHit@2@V?$PxFlags@W4Enum@PxHitFlag@physx@@G@2@MPEAUPxQueryThreadContext@2@@Z 000000018000e6a0 f   GuCCTSweepTests.obj
 0001:0000dea0       ?sweepBox_SphereGeom_Precise@@YA_NAEBVPxGeometry@physx@@AEBV?$PxTransformT@M@2@AEBVPxBoxGeometry@2@1AEBVBox@Gu@2@AEBV?$PxVec3T@M@2@MAEAUPxGeomSweepHit@2@V?$PxFlags@W4Enum@PxHitFlag@physx@@G@2@MPEAUPxQueryThreadContext@2@@Z 000000018000eea0 f   GuCCTSweepTests.obj
 0001:0000e170       ?sweepCapsule_BoxGeom_Precise@@YA_NAEBVPxGeometry@physx@@AEBV?$PxTransformT@M@2@AEBVPxCapsuleGeometry@2@1AEBVCapsule@Gu@2@AEBV?$PxVec3T@M@2@MAEAUPxGeomSweepHit@2@V?$PxFlags@W4Enum@PxHitFlag@physx@@G@2@MPEAUPxQueryThreadContext@2@@Z 000000018000f170 f   GuCCTSweepTests.obj
 0001:0000e800       ??0?$CacheMap@UCachedEdge@Gu@physx@@$0IA@@Gu@physx@@QEAA@XZ 000000018000f800 f i GuGeometryQuery.obj
 0001:0000e8c0       ??0?$CacheMap@UCachedVertex@Gu@physx@@$0IA@@Gu@physx@@QEAA@XZ 000000018000f8c0 f i GuGeometryQuery.obj
 0001:0000e980       ??0MultiplePersistentContactManifold@Gu@physx@@QEAA@XZ 000000018000f980 f i GuGeometryQuery.obj
 0001:0000e9f0       ??0PCMMeshContactGeneration@Gu@physx@@QEAA@AEBT__m128@@0AEBVPxTransformV@aos@2@1AEAVMultiplePersistentContactManifold@12@AEAVPxContactBuffer@2@PEAV?$PxInlineArray@I$0DMA@V?$PxReflectionAllocator@I@physx@@@2@PEAVPxRenderOutput@2@@Z 000000018000f9f0 f i GuGeometryQuery.obj
 0001:0000f320       ??4MultiplePersistentContactManifold@Gu@physx@@QEAAAEAV012@$$QEAV012@@Z 0000000180010320 f i GuGeometryQuery.obj
 0001:0000f630       ??4MultiplePersistentContactManifold@Gu@physx@@QEAAAEAV012@AEBV012@@Z 0000000180010630 f i GuGeometryQuery.obj
 0001:0000f650       ??_E?$SupportLocalImpl@VBoxV@Gu@physx@@@Gu@physx@@UEAAPEAXI@Z 0000000180010650 f i GuGeometryQuery.obj
 0001:0000f650       ??_E?$SupportLocalImpl@VConvexHullNoScaleV@Gu@physx@@@Gu@physx@@UEAAPEAXI@Z 0000000180010650 f i GuMTD.obj
 0001:0000f650       ??_E?$SupportLocalImpl@VConvexHullV@Gu@physx@@@Gu@physx@@UEAAPEAXI@Z 0000000180010650 f i GuGeometryQuery.obj
 0001:0000f650       ??_E?$SupportLocalImpl@VTriangleV@Gu@physx@@@Gu@physx@@UEAAPEAXI@Z 0000000180010650 f i GuPCMContactConvexCommon.obj
 0001:0000f650       ??_G?$SupportLocalImpl@VBoxV@Gu@physx@@@Gu@physx@@UEAAPEAXI@Z 0000000180010650 f i GuGeometryQuery.obj
 0001:0000f650       ??_G?$SupportLocalImpl@VConvexHullNoScaleV@Gu@physx@@@Gu@physx@@UEAAPEAXI@Z 0000000180010650 f i GuMTD.obj
 0001:0000f650       ??_G?$SupportLocalImpl@VConvexHullV@Gu@physx@@@Gu@physx@@UEAAPEAXI@Z 0000000180010650 f i GuGeometryQuery.obj
 0001:0000f650       ??_G?$SupportLocalImpl@VTriangleV@Gu@physx@@@Gu@physx@@UEAAPEAXI@Z 0000000180010650 f i GuPCMContactConvexCommon.obj
 0001:0000f680       ??_ESupportLocal@Gu@physx@@UEAAPEAXI@Z 0000000180010680 f i GuGeometryQuery.obj
 0001:0000f680       ??_GSupportLocal@Gu@physx@@UEAAPEAXI@Z 0000000180010680 f i GuGeometryQuery.obj
 0001:0000f6b0       ?clearManifold@MultiplePersistentContactManifold@Gu@physx@@QEAAXXZ 00000001800106b0 f i GuGeometryQuery.obj
 0001:0000f710       ?computeGeomBounds@PxGeometryQuery@physx@@SAXAEAVPxBounds3@2@AEBVPxGeometry@2@AEBV?$PxTransformT@M@2@MMV?$PxFlags@W4Enum@PxGeometryQueryFlag@physx@@I@2@@Z 0000000180010710 f   GuGeometryQuery.obj
 0001:0000f790       ?computePenetration@PxGeometryQuery@physx@@SA_NAEAV?$PxVec3T@M@2@AEAMAEBVPxGeometry@2@AEBV?$PxTransformT@M@2@23V?$PxFlags@W4Enum@PxGeometryQueryFlag@physx@@I@2@@Z 0000000180010790 f   GuGeometryQuery.obj
 0001:0000f910       ?doSupport@?$SupportLocalImpl@VBoxV@Gu@physx@@@Gu@physx@@UEBA?AT__m128@@AEBT4@@Z 0000000180010910 f i GuGeometryQuery.obj
 0001:0000f940       ?doSupport@?$SupportLocalImpl@VBoxV@Gu@physx@@@Gu@physx@@UEBAXAEBT__m128@@AEAT4@1@Z 0000000180010940 f i GuGeometryQuery.obj
 0001:0000f990       ?doSupport@?$SupportLocalImpl@VConvexHullV@Gu@physx@@@Gu@physx@@UEBA?AT__m128@@AEBT4@@Z 0000000180010990 f i GuGeometryQuery.obj
 0001:0000fa70       ?doSupport@?$SupportLocalImpl@VConvexHullV@Gu@physx@@@Gu@physx@@UEBAXAEBT__m128@@AEAT4@1@Z 0000000180010a70 f i GuGeometryQuery.obj
 0001:0000fdd0       ?generateTriangleContacts@PxGeometryQuery@physx@@SA_NAEBVPxGeometry@2@AEBV?$PxTransformT@M@2@QEBV?$PxVec3T@M@2@IMMMAEAVPxContactBuffer@2@@Z 0000000180010dd0 f   GuGeometryQuery.obj
 0001:00011790       ?getEmptyManifold@MultiplePersistentContactManifold@Gu@physx@@QEAAPEAVSinglePersistentContactManifold@23@XZ 0000000180012790 f i GuGeometryQuery.obj
 0001:000117b0       ?getManifold@MultiplePersistentContactManifold@Gu@physx@@QEAAPEAVSinglePersistentContactManifold@23@I@Z 00000001800127b0 f i GuGeometryQuery.obj
 0001:000117b0       ?getManifold@MultiplePersistentContactManifold@Gu@physx@@QEBAPEBVSinglePersistentContactManifold@23@I@Z 00000001800127b0 f i GuGeometryQuery.obj
 0001:000117d0       ?getUniqueID@PxCustomGeometry@physx@@SAIXZ 00000001800127d0 f   GuGeometryQuery.obj
 0001:000117f0       ?hillClimbing@ConvexHullV@Gu@physx@@QEBAIAEBT__m128@@@Z 00000001800127f0 f i GuGeometryQuery.obj
 0001:00011a20       ?initialize@MultiplePersistentContactManifold@Gu@physx@@QEAAXXZ 0000000180012a20 f i GuGeometryQuery.obj
 0001:00011a80       ?invalidate@MultiplePersistentContactManifold@Gu@physx@@QEBAIAEBVPxTransformV@aos@3@AEBT__m128@@1@Z 0000000180012a80 f i GuGeometryQuery.obj
 0001:00011af0       ?invalidate@MultiplePersistentContactManifold@Gu@physx@@QEBAIAEBVPxTransformV@aos@3@AEBT__m128@@@Z 0000000180012af0 f i GuGeometryQuery.obj
 0001:00011b60       ?isUnit@?$PxQuatT@M@physx@@QEBA_NXZ 0000000180012b60 f i GuGeometryQuery.obj
 0001:00011c20       ?isValid@PxGeometryQuery@physx@@SA_NAEBVPxGeometry@2@@Z 0000000180012c20 f   GuGeometryQuery.obj
 0001:00011f20       ?maxTransformPositionDelta@MultiplePersistentContactManifold@Gu@physx@@QEBA?AT__m128@@AEBT4@@Z 0000000180012f20 f i GuGeometryQuery.obj
 0001:00011f60       ?overlap@PxGeometryQuery@physx@@SA_NAEBVPxGeometry@2@AEBV?$PxTransformT@M@2@01V?$PxFlags@W4Enum@PxGeometryQueryFlag@physx@@I@2@PEAUPxQueryThreadContext@2@@Z 0000000180012f60 f   GuGeometryQuery.obj
 0001:00012030       ?pointDistance@PxGeometryQuery@physx@@SAMAEBV?$PxVec3T@M@2@AEBVPxGeometry@2@AEBV?$PxTransformT@M@2@PEAV32@PEAIV?$PxFlags@W4Enum@PxGeometryQueryFlag@physx@@I@2@@Z 0000000180013030 f   GuGeometryQuery.obj
 0001:000127c0       ?populateVerts@?$SupportLocalImpl@VBoxV@Gu@physx@@@Gu@physx@@UEBAXPEBEIPEBV?$PxVec3T@M@3@PEAT__m128@@@Z 00000001800137c0 f i GuGeometryQuery.obj
 0001:00012800       ?populateVerts@?$SupportLocalImpl@VConvexHullV@Gu@physx@@@Gu@physx@@UEBAXPEBEIPEBV?$PxVec3T@M@3@PEAT__m128@@@Z 0000000180013800 f i GuGeometryQuery.obj
 0001:00012860       ?raycast@PxGeometryQuery@physx@@SAIAEBV?$PxVec3T@M@2@0AEBVPxGeometry@2@AEBV?$PxTransformT@M@2@MV?$PxFlags@W4Enum@PxHitFlag@physx@@G@2@IPEIAUPxGeomRaycastHit@2@IV?$PxFlags@W4Enum@PxGeometryQueryFlag@physx@@I@2@PEAUPxQueryThreadContext@2@@Z 0000000180013860 f   GuGeometryQuery.obj
 0001:00012960       ?reduceManifoldContactsInDifferentPatches@MultiplePersistentContactManifold@Gu@physx@@QEBAIPEAPEAUPCMContactPatch@23@IPEAVMeshPersistentContact@23@IAEBT__m128@@@Z 0000000180013960 f i GuGeometryQuery.obj
 0001:00012ad0       ?refineContactPatchConnective@MultiplePersistentContactManifold@Gu@physx@@QEBAXPEAPEAUPCMContactPatch@23@IPEAVMeshPersistentContact@23@AEBT__m128@@@Z 0000000180013ad0 f i GuGeometryQuery.obj
 0001:00012bc0       ?refreshManifold@MultiplePersistentContactManifold@Gu@physx@@QEAAXAEBVPxMatTransformV@aos@3@AEBT__m128@@1@Z 0000000180013bc0 f i GuGeometryQuery.obj
 0001:00012cc0       ?setRelativeTransform@MultiplePersistentContactManifold@Gu@physx@@QEAAXAEBVPxTransformV@aos@3@@Z 0000000180013cc0 f i GuGeometryQuery.obj
 0001:00012cd0       ?supportVertexIndex@ConvexHullV@Gu@physx@@QEBAIAEBT__m128@@@Z 0000000180013cd0 f i GuGeometryQuery.obj
 0001:00012f50       ?sweep@PxGeometryQuery@physx@@SA_NAEBV?$PxVec3T@M@2@MAEBVPxGeometry@2@AEBV?$PxTransformT@M@2@12AEAUPxGeomSweepHit@2@V?$PxFlags@W4Enum@PxHitFlag@physx@@G@2@MV?$PxFlags@W4Enum@PxGeometryQueryFlag@physx@@I@2@PEAUPxQueryThreadContext@2@@Z 0000000180013f50 f   GuGeometryQuery.obj
 0001:000133e0       ?computeBoxPoints@Gu@physx@@YAXAEBVPxBounds3@2@PEIAV?$PxVec3T@M@2@@Z 00000001800143e0 f   GuInternal.obj
 0001:00013480       ?computeSweptBox@Gu@physx@@YAXAEAVBox@12@AEBV?$PxVec3T@M@2@1AEBV?$PxMat33T@M@2@1M@Z 0000000180014480 f   GuInternal.obj
 0001:000139c0       ?getPlane@Gu@physx@@YA?AVPxPlane@2@AEBV?$PxTransformT@M@2@@Z 00000001800149c0 f   GuInternal.obj
 0001:00013a70       ??_ECallbackRaycast@RTree@Gu@physx@@UEAAPEAXI@Z 0000000180014a70 f i GuMidphaseRTree.obj
 0001:00013a70       ??_ECallbackRefit@RTree@Gu@physx@@UEAAPEAXI@Z 0000000180014a70 f i GuTriangleMeshRTree.obj
 0001:00013a70       ??_EPxInsertionCallback@physx@@MEAAPEAXI@Z 0000000180014a70 f i GuMeshFactory.obj
 0001:00013a70       ??_GCallbackRaycast@RTree@Gu@physx@@UEAAPEAXI@Z 0000000180014a70 f i GuMidphaseRTree.obj
 0001:00013a70       ??_GCallbackRefit@RTree@Gu@physx@@UEAAPEAXI@Z 0000000180014a70 f i GuTriangleMeshRTree.obj
 0001:00013a70       ??_GPxInsertionCallback@physx@@MEAAPEAXI@Z 0000000180014a70 f i GuMeshFactory.obj
 0001:00013e40       ??$copy@V?$PxReflectionAllocator@USlab@NodeAllocator@Gu@physx@@@physx@@@?$PxArray@USlab@NodeAllocator@Gu@physx@@V?$PxReflectionAllocator@USlab@NodeAllocator@Gu@physx@@@4@@physx@@IEAAXAEBV01@@Z 0000000180014e40 f i GuMeshFactory.obj
 0001:00013f00       ??0AABBTreeBounds@Gu@physx@@QEAA@XZ 0000000180014f00 f i GuMeshFactory.obj
 0001:00013f10       ??0AABBTreeBuildNode@Gu@physx@@QEAA@AEBV012@@Z 0000000180014f10 f i GuMeshFactory.obj
 0001:00013f10       ??4AABBTreeBuildNode@Gu@physx@@QEAAAEAV012@AEBV012@@Z 0000000180014f10 f i GuMeshFactory.obj
 0001:00013f50       ??0AABBTreeBuildParams@Gu@physx@@QEAA@IIPEBVAABBTreeBounds@12@W4BVHBuildStrategy@12@@Z 0000000180014f50 f i GuMeshFactory.obj
 0001:00013f70       ??0MeshFactory@Gu@physx@@QEAA@XZ 0000000180014f70 f   GuMeshFactory.obj
 0001:00014170       ??0NodeAllocator@Gu@physx@@QEAA@AEBV012@@Z 0000000180015170 f i GuMeshFactory.obj
 0001:000141b0       ??0TriangleMeshData@Gu@physx@@QEAA@XZ 00000001800151b0 f i GuMeshFactory.obj
 0001:000142d0       ??1AABBTreeBounds@Gu@physx@@QEAA@XZ 00000001800152d0 f i GuMeshFactory.obj
 0001:000142e0       ??1AABBTreeBuildParams@Gu@physx@@QEAA@XZ 00000001800152e0 f i GuMeshFactory.obj
 0001:000142e0       ?reset@AABBTreeBuildParams@Gu@physx@@QEAAXXZ 00000001800152e0 f i GuMeshFactory.obj
 0001:00014330       ??1CollisionMeshMappingData@Gu@physx@@UEAA@XZ 0000000180015330 f i GuMeshFactory.obj
 0001:00014480       ??1DeformableVolumeCollisionData@Gu@physx@@UEAA@XZ 0000000180015480 f i GuMeshFactory.obj
 0001:000145c0       ??1DeformableVolumeSimulationData@Gu@physx@@UEAA@XZ 00000001800155c0 f i GuMeshFactory.obj
 0001:000146e0       ??1MeshDataBase@Gu@physx@@UEAA@XZ 00000001800156e0 f i GuMeshFactory.obj
 0001:00014820       ??1MeshFactory@Gu@physx@@MEAA@XZ 0000000180015820 f   GuMeshFactory.obj
 0001:00014960       ??1RTreeTriangleData@Gu@physx@@UEAA@XZ 0000000180015960 f i GuMeshFactory.obj
 0001:000149d0       ??1TetrahedronMeshData@Gu@physx@@QEAA@XZ 00000001800159d0 f i GuMeshFactory.obj
 0001:00014a60       ??1TriangleMeshData@Gu@physx@@UEAA@XZ 0000000180015a60 f i GuMeshFactory.obj
 0001:00014b90       ??4NodeAllocator@Gu@physx@@QEAAAEAV012@AEBV012@@Z 0000000180015b90 f i GuMeshFactory.obj
 0001:00014c40       ??_EMeshFactory@Gu@physx@@MEAAPEAXI@Z 0000000180015c40 f i GuMeshFactory.obj
 0001:00014d60       ??_FAABBTreeBuildParams@Gu@physx@@QEAAXXZ 0000000180015d60 f i GuMeshFactory.obj
 0001:00014d80       ??_EBV4TriangleData@Gu@physx@@UEAAPEAXI@Z 0000000180015d80 f i GuMeshFactory.obj
 0001:00014d80       ??_GBV4TriangleData@Gu@physx@@UEAAPEAXI@Z 0000000180015d80 f i GuMeshFactory.obj
 0001:00014e10       ??_ECollisionMeshMappingData@Gu@physx@@UEAAPEAXI@Z 0000000180015e10 f i GuMeshFactory.obj
 0001:00014e10       ??_GCollisionMeshMappingData@Gu@physx@@UEAAPEAXI@Z 0000000180015e10 f i GuMeshFactory.obj
 0001:00014e80       ??_EDeformableVolumeCollisionData@Gu@physx@@UEAAPEAXI@Z 0000000180015e80 f i GuMeshFactory.obj
 0001:00014e80       ??_GDeformableVolumeCollisionData@Gu@physx@@UEAAPEAXI@Z 0000000180015e80 f i GuMeshFactory.obj
 0001:00014ef0       ??_EDeformableVolumeSimulationData@Gu@physx@@UEAAPEAXI@Z 0000000180015ef0 f i GuMeshFactory.obj
 0001:00014ef0       ??_GDeformableVolumeSimulationData@Gu@physx@@UEAAPEAXI@Z 0000000180015ef0 f i GuMeshFactory.obj
 0001:00014f60       ??_EMeshDataBase@Gu@physx@@UEAAPEAXI@Z 0000000180015f60 f i GuMeshFactory.obj
 0001:00014f60       ??_GMeshDataBase@Gu@physx@@UEAAPEAXI@Z 0000000180015f60 f i GuMeshFactory.obj
 0001:00014fd0       ??_EPxCollisionMeshMappingData@physx@@UEAAPEAXI@Z 0000000180015fd0 f i GuMeshFactory.obj
 0001:00014fd0       ??_GPxCollisionMeshMappingData@physx@@UEAAPEAXI@Z 0000000180015fd0 f i GuMeshFactory.obj
 0001:00015020       ??_ERTreeTriangleData@Gu@physx@@UEAAPEAXI@Z 0000000180016020 f i GuMeshFactory.obj
 0001:00015020       ??_GRTreeTriangleData@Gu@physx@@UEAAPEAXI@Z 0000000180016020 f i GuMeshFactory.obj
 0001:000150d0       ??_ETriangleMeshData@Gu@physx@@UEAAPEAXI@Z 00000001800160d0 f i GuMeshFactory.obj
 0001:000150d0       ??_GTriangleMeshData@Gu@physx@@UEAAPEAXI@Z 00000001800160d0 f i GuMeshFactory.obj
 0001:00015140       ??_V@YAXPEAX_K@Z           0000000180016140 f i LIBCMT:delete_array_size.obj
 0001:00015140       ?__global_delete@@YAXPEAX_K@Z 0000000180016140 f i GuMeshFactory.obj
 0001:00015150       ?addBVH@MeshFactory@Gu@physx@@QEAAXPEAVBVH@23@_N@Z 0000000180016150 f   GuMeshFactory.obj
 0001:000151d0       ?addConvexMesh@MeshFactory@Gu@physx@@QEAAXPEAVConvexMesh@23@_N@Z 00000001800161d0 f   GuMeshFactory.obj
 0001:00015250       ?addDeformableVolumeMesh@MeshFactory@Gu@physx@@QEAAXPEAVDeformableVolumeMesh@23@_N@Z 0000000180016250 f   GuMeshFactory.obj
 0001:000152d0       ?addFactoryListener@MeshFactory@Gu@physx@@QEAAXAEAVMeshFactoryListener@23@@Z 00000001800162d0 f   GuMeshFactory.obj
 0001:00015340       ?addHeightField@MeshFactory@Gu@physx@@QEAAXPEAVHeightField@23@_N@Z 0000000180016340 f   GuMeshFactory.obj
 0001:000153c0       ?addTetrahedronMesh@MeshFactory@Gu@physx@@QEAAXPEAVTetrahedronMesh@23@_N@Z 00000001800163c0 f   GuMeshFactory.obj
 0001:00015440       ?addTriangleMesh@MeshFactory@Gu@physx@@QEAAXPEAVTriangleMesh@23@_N@Z 0000000180016440 f   GuMeshFactory.obj
 0001:000154c0       ?allocate@?$PxArray@USlab@NodeAllocator@Gu@physx@@V?$PxReflectionAllocator@USlab@NodeAllocator@Gu@physx@@@4@@physx@@IEAAPEAUSlab@NodeAllocator@Gu@2@IPEAI@Z 00000001800164c0 f i GuMeshFactory.obj
 0001:00015550       ?allocateAdjacencies@TriangleMeshData@Gu@physx@@QEAAPEAIXZ 0000000180016550 f i GuMeshFactory.obj
 0001:000155c0       ?allocateExtraTrigData@TriangleMeshData@Gu@physx@@QEAAPEAEXZ 00000001800165c0 f i GuMeshFactory.obj
 0001:00015630       ?allocateFaceRemap@TriangleMeshData@Gu@physx@@QEAAPEAIXZ 0000000180016630 f i GuMeshFactory.obj
 0001:000156a0       ?allocateGridModelData@DeformableVolumeSimulationData@Gu@physx@@QEAAXIIIIIII@Z 00000001800166a0 f i GuMeshFactory.obj
 0001:00015910       ?allocateMaterials@TetrahedronMeshData@Gu@physx@@QEAAPEAGXZ 0000000180016910 f i GuMeshFactory.obj
 0001:00015980       ?allocateMaterials@TriangleMeshData@Gu@physx@@QEAAPEAGXZ 0000000180016980 f i GuMeshFactory.obj
 0001:000159f0       ?allocateTetrahedrons@TetrahedronMeshData@Gu@physx@@QEAAXII@Z 00000001800169f0 f i GuMeshFactory.obj
 0001:00015a80       ?allocateTriangles@TriangleMeshData@Gu@physx@@QEAAPEAXI_NI@Z 0000000180016a80 f i GuMeshFactory.obj
 0001:00015b70       ?allocateVertices@MeshDataBase@Gu@physx@@QEAAPEAV?$PxVec3T@M@3@I@Z 0000000180016b70 f i GuMeshFactory.obj
 0001:00015be0       ?allocateVertices@TetrahedronMeshData@Gu@physx@@QEAAPEAV?$PxVec3T@M@3@II@Z 0000000180016be0 f i GuMeshFactory.obj
 0001:00015c80       ?allocatemappingData@CollisionMeshMappingData@Gu@physx@@QEAAXIIII@Z 0000000180016c80 f i GuMeshFactory.obj
 0001:00015e60       ?create@?$PxHashBase@PEAVBVH@Gu@physx@@PEAV123@U?$PxHash@PEAVBVH@Gu@physx@@@3@UGetKey@?$PxHashSetBase@PEAVBVH@Gu@physx@@U?$PxHash@PEAVBVH@Gu@physx@@@3@VPxAllocator@3@$00@3@VPxAllocator@3@$00@physx@@QEAAPEAPEAVBVH@Gu@2@AEBQEAV342@AEA_N@Z 0000000180016e60 f i GuMeshFactory.obj
 0001:00015e60       ?create@?$PxHashBase@PEAVConvexMesh@Gu@physx@@PEAV123@U?$PxHash@PEAVConvexMesh@Gu@physx@@@3@UGetKey@?$PxHashSetBase@PEAVConvexMesh@Gu@physx@@U?$PxHash@PEAVConvexMesh@Gu@physx@@@3@VPxAllocator@3@$00@3@VPxAllocator@3@$00@physx@@QEAAPEAPEAVConvexMesh@Gu@2@AEBQEAV342@AEA_N@Z 0000000180016e60 f i GuMeshFactory.obj
 0001:00015e60       ?create@?$PxHashBase@PEAVDeformableVolumeMesh@Gu@physx@@PEAV123@U?$PxHash@PEAVDeformableVolumeMesh@Gu@physx@@@3@UGetKey@?$PxHashSetBase@PEAVDeformableVolumeMesh@Gu@physx@@U?$PxHash@PEAVDeformableVolumeMesh@Gu@physx@@@3@VPxAllocator@3@$00@3@VPxAllocator@3@$00@physx@@QEAAPEAPEAVDeformableVolumeMesh@Gu@2@AEBQEAV342@AEA_N@Z 0000000180016e60 f i GuMeshFactory.obj
 0001:00015e60       ?create@?$PxHashBase@PEAVHeightField@Gu@physx@@PEAV123@U?$PxHash@PEAVHeightField@Gu@physx@@@3@UGetKey@?$PxHashSetBase@PEAVHeightField@Gu@physx@@U?$PxHash@PEAVHeightField@Gu@physx@@@3@VPxAllocator@3@$00@3@VPxAllocator@3@$00@physx@@QEAAPEAPEAVHeightField@Gu@2@AEBQEAV342@AEA_N@Z 0000000180016e60 f i GuMeshFactory.obj
 0001:00015e60       ?create@?$PxHashBase@PEAVTetrahedronMesh@Gu@physx@@PEAV123@U?$PxHash@PEAVTetrahedronMesh@Gu@physx@@@3@UGetKey@?$PxHashSetBase@PEAVTetrahedronMesh@Gu@physx@@U?$PxHash@PEAVTetrahedronMesh@Gu@physx@@@3@VPxAllocator@3@$00@3@VPxAllocator@3@$00@physx@@QEAAPEAPEAVTetrahedronMesh@Gu@2@AEBQEAV342@AEA_N@Z 0000000180016e60 f i GuMeshFactory.obj
 0001:00015e60       ?create@?$PxHashBase@PEAVTriangleMesh@Gu@physx@@PEAV123@U?$PxHash@PEAVTriangleMesh@Gu@physx@@@3@UGetKey@?$PxHashSetBase@PEAVTriangleMesh@Gu@physx@@U?$PxHash@PEAVTriangleMesh@Gu@physx@@@3@VPxAllocator@3@$00@3@VPxAllocator@3@$00@physx@@QEAAPEAPEAVTriangleMesh@Gu@2@AEBQEAV342@AEA_N@Z 0000000180016e60 f i GuMeshFactory.obj
 0001:00015ff0       ?createBVH@MeshFactory@Gu@physx@@IEAAPEAVPxBVH@3@AEAVBVHData@23@@Z 0000000180016ff0 f   GuMeshFactory.obj
 0001:000160e0       ?createBVH@MeshFactory@Gu@physx@@QEAAPEAVPxBVH@3@AEAVPxInputStream@3@@Z 00000001800170e0 f   GuMeshFactory.obj
 0001:00016200       ?createBVH@MeshFactory@Gu@physx@@QEAAPEAVPxBVH@3@PEAX@Z 0000000180017200 f   GuMeshFactory.obj
 0001:00016210       ?createConvexMesh@MeshFactory@Gu@physx@@IEAAPEAVPxConvexMesh@3@AEAUConvexHullInitData@23@@Z 0000000180017210 f   GuMeshFactory.obj
 0001:00016300       ?createConvexMesh@MeshFactory@Gu@physx@@QEAAPEAVPxConvexMesh@3@AEAVPxInputStream@3@@Z 0000000180017300 f   GuMeshFactory.obj
 0001:00016420       ?createConvexMesh@MeshFactory@Gu@physx@@QEAAPEAVPxConvexMesh@3@PEAX@Z 0000000180017420 f   GuMeshFactory.obj
 0001:00016430       ?createDeformableVolumeMesh@MeshFactory@Gu@physx@@IEAAPEAVPxDeformableVolumeMesh@3@AEAVDeformableVolumeMeshData@23@@Z 0000000180017430 f   GuMeshFactory.obj
 0001:00016520       ?createDeformableVolumeMesh@MeshFactory@Gu@physx@@QEAAPEAVPxDeformableVolumeMesh@3@AEAVPxInputStream@3@@Z 0000000180017520 f   GuMeshFactory.obj
 0001:00016b20       ?createDeformableVolumeMesh@MeshFactory@Gu@physx@@QEAAPEAVPxDeformableVolumeMesh@3@PEAX@Z 0000000180017b20 f   GuMeshFactory.obj
 0001:00016b30       ?createHeightField@MeshFactory@Gu@physx@@QEAAPEAVPxHeightField@3@AEAVPxInputStream@3@@Z 0000000180017b30 f   GuMeshFactory.obj
 0001:00016c50       ?createHeightField@MeshFactory@Gu@physx@@QEAAPEAVPxHeightField@3@PEAX@Z 0000000180017c50 f   GuMeshFactory.obj
 0001:00016d40       ?createTetrahedronMesh@MeshFactory@Gu@physx@@IEAAPEAVPxTetrahedronMesh@3@AEAVTetrahedronMeshData@23@@Z 0000000180017d40 f   GuMeshFactory.obj
 0001:00016e30       ?createTetrahedronMesh@MeshFactory@Gu@physx@@QEAAPEAVPxTetrahedronMesh@3@AEAVPxInputStream@3@@Z 0000000180017e30 f   GuMeshFactory.obj
 0001:00016ea0       ?createTetrahedronMesh@MeshFactory@Gu@physx@@QEAAPEAVPxTetrahedronMesh@3@PEAX@Z 0000000180017ea0 f   GuMeshFactory.obj
 0001:00016eb0       ?createTriangleMesh@MeshFactory@Gu@physx@@IEAAPEAVPxTriangleMesh@3@AEAVTriangleMeshData@23@@Z 0000000180017eb0 f   GuMeshFactory.obj
 0001:00017030       ?createTriangleMesh@MeshFactory@Gu@physx@@QEAAPEAVPxTriangleMesh@3@AEAVPxInputStream@3@@Z 0000000180018030 f   GuMeshFactory.obj
 0001:00017090       ?createTriangleMesh@MeshFactory@Gu@physx@@QEAAPEAVPxTriangleMesh@3@PEAX@Z 0000000180018090 f   GuMeshFactory.obj
 0001:000170a0       ?erase@?$PxHashBase@PEAVBVH@Gu@physx@@PEAV123@U?$PxHash@PEAVBVH@Gu@physx@@@3@UGetKey@?$PxHashSetBase@PEAVBVH@Gu@physx@@U?$PxHash@PEAVBVH@Gu@physx@@@3@VPxAllocator@3@$00@3@VPxAllocator@3@$00@physx@@QEAA_NAEBQEAVBVH@Gu@2@@Z 00000001800180a0 f i GuMeshFactory.obj
 0001:000170a0       ?erase@?$PxHashBase@PEAVConvexMesh@Gu@physx@@PEAV123@U?$PxHash@PEAVConvexMesh@Gu@physx@@@3@UGetKey@?$PxHashSetBase@PEAVConvexMesh@Gu@physx@@U?$PxHash@PEAVConvexMesh@Gu@physx@@@3@VPxAllocator@3@$00@3@VPxAllocator@3@$00@physx@@QEAA_NAEBQEAVConvexMesh@Gu@2@@Z 00000001800180a0 f i GuMeshFactory.obj
 0001:000170a0       ?erase@?$PxHashBase@PEAVDeformableVolumeMesh@Gu@physx@@PEAV123@U?$PxHash@PEAVDeformableVolumeMesh@Gu@physx@@@3@UGetKey@?$PxHashSetBase@PEAVDeformableVolumeMesh@Gu@physx@@U?$PxHash@PEAVDeformableVolumeMesh@Gu@physx@@@3@VPxAllocator@3@$00@3@VPxAllocator@3@$00@physx@@QEAA_NAEBQEAVDeformableVolumeMesh@Gu@2@@Z 00000001800180a0 f i GuMeshFactory.obj
 0001:000170a0       ?erase@?$PxHashBase@PEAVHeightField@Gu@physx@@PEAV123@U?$PxHash@PEAVHeightField@Gu@physx@@@3@UGetKey@?$PxHashSetBase@PEAVHeightField@Gu@physx@@U?$PxHash@PEAVHeightField@Gu@physx@@@3@VPxAllocator@3@$00@3@VPxAllocator@3@$00@physx@@QEAA_NAEBQEAVHeightField@Gu@2@@Z 00000001800180a0 f i GuMeshFactory.obj
 0001:000170a0       ?erase@?$PxHashBase@PEAVTetrahedronMesh@Gu@physx@@PEAV123@U?$PxHash@PEAVTetrahedronMesh@Gu@physx@@@3@UGetKey@?$PxHashSetBase@PEAVTetrahedronMesh@Gu@physx@@U?$PxHash@PEAVTetrahedronMesh@Gu@physx@@@3@VPxAllocator@3@$00@3@VPxAllocator@3@$00@physx@@QEAA_NAEBQEAVTetrahedronMesh@Gu@2@@Z 00000001800180a0 f i GuMeshFactory.obj
 0001:000170a0       ?erase@?$PxHashBase@PEAVTriangleMesh@Gu@physx@@PEAV123@U?$PxHash@PEAVTriangleMesh@Gu@physx@@@3@UGetKey@?$PxHashSetBase@PEAVTriangleMesh@Gu@physx@@U?$PxHash@PEAVTriangleMesh@Gu@physx@@@3@VPxAllocator@3@$00@3@VPxAllocator@3@$00@physx@@QEAA_NAEBQEAVTriangleMesh@Gu@2@@Z 00000001800180a0 f i GuMeshFactory.obj
 0001:00017220       ?getBVHs@MeshFactory@Gu@physx@@QEBAIPEAPEAVPxBVH@3@II@Z 0000000180018220 f   GuMeshFactory.obj
 0001:000172c0       ?getBounds@AABBTreeBounds@Gu@physx@@QEAAPEAVPxBounds3@3@XZ 00000001800182c0 f i GuMeshFactory.obj
 0001:000172c0       ?getBounds@AABBTreeBounds@Gu@physx@@QEBAPEBVPxBounds3@3@XZ 00000001800182c0 f i GuMeshFactory.obj
 0001:000172d0       ?getConvexMeshes@MeshFactory@Gu@physx@@QEBAIPEAPEAVPxConvexMesh@3@II@Z 00000001800182d0 f   GuMeshFactory.obj
 0001:00017370       ?getDeformableVolumeMeshes@MeshFactory@Gu@physx@@QEBAIPEAPEAVPxDeformableVolumeMesh@3@II@Z 0000000180018370 f   GuMeshFactory.obj
 0001:00017410       ?getHeightFields@MeshFactory@Gu@physx@@QEBAIPEAPEAVPxHeightField@3@II@Z 0000000180018410 f   GuMeshFactory.obj
 0001:000174b0       ?getNbBVHs@MeshFactory@Gu@physx@@QEBAIXZ 00000001800184b0 f   GuMeshFactory.obj
 0001:000174f0       ?getNbConvexMeshes@MeshFactory@Gu@physx@@QEBAIXZ 00000001800184f0 f   GuMeshFactory.obj
 0001:00017530       ?getNbDeformableVolumeMeshes@MeshFactory@Gu@physx@@QEBAIXZ 0000000180018530 f   GuMeshFactory.obj
 0001:00017570       ?getNbHeightFields@MeshFactory@Gu@physx@@QEBAIXZ 0000000180018570 f   GuMeshFactory.obj
 0001:000175b0       ?getNbPrimitives@AABBTreeBuildNode@Gu@physx@@QEBAIXZ 00000001800185b0 f i GuMeshFactory.obj
 0001:000175b0       ?getNbRuntimePrimitives@AABBTreeBuildNode@Gu@physx@@QEBAIXZ 00000001800185b0 f i GuMeshFactory.obj
 0001:000175c0       ?getNbTetrahedronMeshes@MeshFactory@Gu@physx@@QEBAIXZ 00000001800185c0 f   GuMeshFactory.obj
 0001:00017600       ?getNbTriangleMeshes@MeshFactory@Gu@physx@@QEBAIXZ 0000000180018600 f   GuMeshFactory.obj
 0001:00017640       ?getNeg@AABBTreeBuildNode@Gu@physx@@QEBAPEBV123@XZ 0000000180018640 f i GuMeshFactory.obj
 0001:00017660       ?getPrimitives@AABBTreeBuildNode@Gu@physx@@QEAAPEAIPEAI@Z 0000000180018660 f i GuMeshFactory.obj
 0001:00017660       ?getPrimitives@AABBTreeBuildNode@Gu@physx@@QEBAPEBIPEBI@Z 0000000180018660 f i GuMeshFactory.obj
 0001:00017670       ?getTetrahedronMeshes@MeshFactory@Gu@physx@@QEBAIPEAPEAVPxTetrahedronMesh@3@II@Z 0000000180018670 f   GuMeshFactory.obj
 0001:00017700       ?getTriangleMeshes@MeshFactory@Gu@physx@@QEBAIPEAPEAVPxTriangleMesh@3@II@Z 0000000180018700 f   GuMeshFactory.obj
 0001:00017790       ?growAndPushBack@?$PxArray@PEAVMeshFactoryListener@Gu@physx@@V?$PxReflectionAllocator@PEAVMeshFactoryListener@Gu@physx@@@3@@physx@@IEAAAEAPEAVMeshFactoryListener@Gu@2@AEBQEAV342@@Z 0000000180018790 f i GuMeshFactory.obj
 0001:000178b0       ?isLeaf@AABBTreeBuildNode@Gu@physx@@QEBA_NXZ 00000001800188b0 f i GuMeshFactory.obj
 0001:00019360       ?moveFrom@AABBTreeBounds@Gu@physx@@QEAAXAEAV123@@Z 000000018001a360 f i GuMeshFactory.obj
 0001:00019370       ?notifyFactoryListener@MeshFactory@Gu@physx@@QEAAXPEBVPxBase@3@G@Z 000000018001a370 f   GuMeshFactory.obj
 0001:000193e0       ?ownsMemory@AABBTreeBounds@Gu@physx@@QEBA_NXZ 000000018001a3e0 f i GuMeshFactory.obj
 0001:000196c0       ?recreate@?$PxArray@USlab@NodeAllocator@Gu@physx@@V?$PxReflectionAllocator@USlab@NodeAllocator@Gu@physx@@@4@@physx@@IEAAXI@Z 000000018001a6c0 f i GuMeshFactory.obj
 0001:000197b0       ?release@CollisionMeshMappingData@Gu@physx@@UEAAXXZ 000000018001a7b0 f i GuMeshFactory.obj
 0001:000197d0       ?release@MeshFactory@Gu@physx@@QEAAXXZ 000000018001a7d0 f   GuMeshFactory.obj
 0001:000198d0       ?remove@MeshFactory@Gu@physx@@QEAA_NAEAVPxBase@3@@Z 000000018001a8d0 f   GuMeshFactory.obj
 0001:000199d0       ?removeBVH@MeshFactory@Gu@physx@@QEAA_NAEAVPxBVH@3@@Z 000000018001a9d0 f   GuMeshFactory.obj
 0001:00019a20       ?removeConvexMesh@MeshFactory@Gu@physx@@QEAA_NAEAVPxConvexMesh@3@@Z 000000018001aa20 f   GuMeshFactory.obj
 0001:00019a70       ?removeDeformableVolumeMesh@MeshFactory@Gu@physx@@QEAA_NAEAVPxDeformableVolumeMesh@3@@Z 000000018001aa70 f   GuMeshFactory.obj
 0001:00019ac0       ?removeFactoryListener@MeshFactory@Gu@physx@@QEAAXAEAVMeshFactoryListener@23@@Z 000000018001aac0 f   GuMeshFactory.obj
 0001:00019b50       ?removeHeightField@MeshFactory@Gu@physx@@QEAA_NAEAVPxHeightField@3@@Z 000000018001ab50 f   GuMeshFactory.obj
 0001:00019ba0       ?removeTetrahedronMesh@MeshFactory@Gu@physx@@QEAA_NAEAVPxTetrahedronMesh@3@@Z 000000018001aba0 f   GuMeshFactory.obj
 0001:00019bf0       ?removeTriangleMesh@MeshFactory@Gu@physx@@QEAA_NAEAVPxTriangleMesh@3@@Z 000000018001abf0 f   GuMeshFactory.obj
 0001:00019c40       ?reserveInternal@?$PxHashBase@PEAVBVH@Gu@physx@@PEAV123@U?$PxHash@PEAVBVH@Gu@physx@@@3@UGetKey@?$PxHashSetBase@PEAVBVH@Gu@physx@@U?$PxHash@PEAVBVH@Gu@physx@@@3@VPxAllocator@3@$00@3@VPxAllocator@3@$00@physx@@AEAAXI@Z 000000018001ac40 f i GuMeshFactory.obj
 0001:00019c40       ?reserveInternal@?$PxHashBase@PEAVConvexMesh@Gu@physx@@PEAV123@U?$PxHash@PEAVConvexMesh@Gu@physx@@@3@UGetKey@?$PxHashSetBase@PEAVConvexMesh@Gu@physx@@U?$PxHash@PEAVConvexMesh@Gu@physx@@@3@VPxAllocator@3@$00@3@VPxAllocator@3@$00@physx@@AEAAXI@Z 000000018001ac40 f i GuMeshFactory.obj
 0001:00019c40       ?reserveInternal@?$PxHashBase@PEAVDeformableVolumeMesh@Gu@physx@@PEAV123@U?$PxHash@PEAVDeformableVolumeMesh@Gu@physx@@@3@UGetKey@?$PxHashSetBase@PEAVDeformableVolumeMesh@Gu@physx@@U?$PxHash@PEAVDeformableVolumeMesh@Gu@physx@@@3@VPxAllocator@3@$00@3@VPxAllocator@3@$00@physx@@AEAAXI@Z 000000018001ac40 f i GuMeshFactory.obj
 0001:00019c40       ?reserveInternal@?$PxHashBase@PEAVHeightField@Gu@physx@@PEAV123@U?$PxHash@PEAVHeightField@Gu@physx@@@3@UGetKey@?$PxHashSetBase@PEAVHeightField@Gu@physx@@U?$PxHash@PEAVHeightField@Gu@physx@@@3@VPxAllocator@3@$00@3@VPxAllocator@3@$00@physx@@AEAAXI@Z 000000018001ac40 f i GuMeshFactory.obj
 0001:00019c40       ?reserveInternal@?$PxHashBase@PEAVTetrahedronMesh@Gu@physx@@PEAV123@U?$PxHash@PEAVTetrahedronMesh@Gu@physx@@@3@UGetKey@?$PxHashSetBase@PEAVTetrahedronMesh@Gu@physx@@U?$PxHash@PEAVTetrahedronMesh@Gu@physx@@@3@VPxAllocator@3@$00@3@VPxAllocator@3@$00@physx@@AEAAXI@Z 000000018001ac40 f i GuMeshFactory.obj
 0001:00019c40       ?reserveInternal@?$PxHashBase@PEAVTriangleMesh@Gu@physx@@PEAV123@U?$PxHash@PEAVTriangleMesh@Gu@physx@@@3@UGetKey@?$PxHashSetBase@PEAVTriangleMesh@Gu@physx@@U?$PxHash@PEAVTriangleMesh@Gu@physx@@@3@VPxAllocator@3@$00@3@VPxAllocator@3@$00@physx@@AEAAXI@Z 000000018001ac40 f i GuMeshFactory.obj
 0001:00019e10       ?setBounds@AABBTreeBounds@Gu@physx@@QEAAXPEAVPxBounds3@3@@Z 000000018001ae10 f i GuMeshFactory.obj
 0001:00019e20       ?setNbRunTimePrimitives@AABBTreeBuildNode@Gu@physx@@QEAAXI@Z 000000018001ae20 f i GuMeshFactory.obj
 0001:00019e30       ?takeOwnership@AABBTreeBounds@Gu@physx@@QEAAXXZ 000000018001ae30 f i GuMeshFactory.obj
 0001:00019e40       getInsertionCallback       000000018001ae40 f   GuMeshFactory.obj
 0001:00019e50       ?doSupport@?$SupportLocalImpl@VConvexHullNoScaleV@Gu@physx@@@Gu@physx@@UEBA?AT__m128@@AEBT4@@Z 000000018001ae50 f i GuMTD.obj
 0001:00019ea0       ?doSupport@?$SupportLocalImpl@VConvexHullNoScaleV@Gu@physx@@@Gu@physx@@UEBAXAEBT__m128@@AEAT4@1@Z 000000018001aea0 f i GuMTD.obj
 0001:0001a020       ?populateVerts@?$SupportLocalImpl@VConvexHullNoScaleV@Gu@physx@@@Gu@physx@@UEBAXPEBEIPEBV?$PxVec3T@M@3@PEAT__m128@@@Z 000000018001b020 f i GuMTD.obj
 0001:0001a060       ?getInternalData@TriangleMesh@Gu@physx@@UEBA_NAEAUPxTriangleMeshInternalData@3@_N@Z 000000018001b060 f   GuTriangleMesh.obj
 0001:0001a060       ?isDynamic@Pruner@Gu@physx@@UEBA_NXZ 000000018001b060 f   GuIncrementalAABBPruner.obj
 0001:0001b580       ??$gjk@U?$LocalConvex@VCapsuleV@Gu@physx@@@Gu@physx@@U?$LocalConvex@VConvexHullV@Gu@physx@@@23@@Gu@physx@@YA?AW4GjkStatus@01@AEBU?$LocalConvex@VCapsuleV@Gu@physx@@@01@AEBU?$LocalConvex@VConvexHullV@Gu@physx@@@01@AEBT__m128@@2AEAT5@333@Z 000000018001c580 f i GuMTD.obj
 0001:0001c2e0       ??_E?$LocalConvex@UCustomConvexV@@@Gu@physx@@UEAAPEAXI@Z 000000018001d2e0 f i GuGjkQuery.obj
 0001:0001c2e0       ??_E?$LocalConvex@UPointConvexV@@@Gu@physx@@UEAAPEAXI@Z 000000018001d2e0 f i GuGjkQuery.obj
 0001:0001c2e0       ??_E?$LocalConvex@VBoxV@Gu@physx@@@Gu@physx@@UEAAPEAXI@Z 000000018001d2e0 f i GuSweepTests.obj
 0001:0001c2e0       ??_E?$LocalConvex@VCapsuleV@Gu@physx@@@Gu@physx@@UEAAPEAXI@Z 000000018001d2e0 f i GuMTD.obj
 0001:0001c2e0       ??_E?$LocalConvex@VConvexHullNoScaleV@Gu@physx@@@Gu@physx@@UEAAPEAXI@Z 000000018001d2e0 f i GuPCMContactBoxConvex.obj
 0001:0001c2e0       ??_E?$LocalConvex@VConvexHullV@Gu@physx@@@Gu@physx@@UEAAPEAXI@Z 000000018001d2e0 f i GuMTD.obj
 0001:0001c2e0       ??_E?$LocalConvex@VTetrahedronV@Gu@physx@@@Gu@physx@@UEAAPEAXI@Z 000000018001d2e0 f i GuCookingTetrahedronMesh.obj
 0001:0001c2e0       ??_E?$LocalConvex@VTriangleV@Gu@physx@@@Gu@physx@@UEAAPEAXI@Z 000000018001d2e0 f i GuSweepTests.obj
 0001:0001c2e0       ??_EGjkConvex@Gu@physx@@UEAAPEAXI@Z 000000018001d2e0 f i GuMTD.obj
 0001:0001c2e0       ??_G?$LocalConvex@UCustomConvexV@@@Gu@physx@@UEAAPEAXI@Z 000000018001d2e0 f i GuGjkQuery.obj
 0001:0001c2e0       ??_G?$LocalConvex@UPointConvexV@@@Gu@physx@@UEAAPEAXI@Z 000000018001d2e0 f i GuGjkQuery.obj
 0001:0001c2e0       ??_G?$LocalConvex@VBoxV@Gu@physx@@@Gu@physx@@UEAAPEAXI@Z 000000018001d2e0 f i GuSweepTests.obj
 0001:0001c2e0       ??_G?$LocalConvex@VCapsuleV@Gu@physx@@@Gu@physx@@UEAAPEAXI@Z 000000018001d2e0 f i GuMTD.obj
 0001:0001c2e0       ??_G?$LocalConvex@VConvexHullNoScaleV@Gu@physx@@@Gu@physx@@UEAAPEAXI@Z 000000018001d2e0 f i GuPCMContactBoxConvex.obj
 0001:0001c2e0       ??_G?$LocalConvex@VConvexHullV@Gu@physx@@@Gu@physx@@UEAAPEAXI@Z 000000018001d2e0 f i GuMTD.obj
 0001:0001c2e0       ??_G?$LocalConvex@VTetrahedronV@Gu@physx@@@Gu@physx@@UEAAPEAXI@Z 000000018001d2e0 f i GuCookingTetrahedronMesh.obj
 0001:0001c2e0       ??_G?$LocalConvex@VTriangleV@Gu@physx@@@Gu@physx@@UEAAPEAXI@Z 000000018001d2e0 f i GuSweepTests.obj
 0001:0001c2e0       ??_GGjkConvex@Gu@physx@@UEAAPEAXI@Z 000000018001d2e0 f i GuMTD.obj
 0001:00020d40       ?getCenter@?$LocalConvex@UCustomConvexV@@@Gu@physx@@UEBA?AT__m128@@XZ 0000000180021d40 f i GuGjkQuery.obj
 0001:00020d40       ?getCenter@?$LocalConvex@UPointConvexV@@@Gu@physx@@UEBA?AT__m128@@XZ 0000000180021d40 f i GuGjkQuery.obj
 0001:00020d40       ?getCenter@?$LocalConvex@VBoxV@Gu@physx@@@Gu@physx@@UEBA?AT__m128@@XZ 0000000180021d40 f i GuSweepTests.obj
 0001:00020d40       ?getCenter@?$LocalConvex@VCapsuleV@Gu@physx@@@Gu@physx@@UEBA?AT__m128@@XZ 0000000180021d40 f i GuMTD.obj
 0001:00020d40       ?getCenter@?$LocalConvex@VConvexHullNoScaleV@Gu@physx@@@Gu@physx@@UEBA?AT__m128@@XZ 0000000180021d40 f i GuPCMContactBoxConvex.obj
 0001:00020d40       ?getCenter@?$LocalConvex@VConvexHullV@Gu@physx@@@Gu@physx@@UEBA?AT__m128@@XZ 0000000180021d40 f i GuMTD.obj
 0001:00020d40       ?getCenter@?$LocalConvex@VTetrahedronV@Gu@physx@@@Gu@physx@@UEBA?AT__m128@@XZ 0000000180021d40 f i GuCookingTetrahedronMesh.obj
 0001:00020d40       ?getCenter@?$LocalConvex@VTriangleV@Gu@physx@@@Gu@physx@@UEBA?AT__m128@@XZ 0000000180021d40 f i GuSweepTests.obj
 0001:00020d50       ?getSweepMargin@?$LocalConvex@VCapsuleV@Gu@physx@@@Gu@physx@@UEBA?AT__m128@@XZ 0000000180021d50 f i GuMTD.obj
 0001:00020d50       ?getSweepMargin@?$RelativeConvex@VCapsuleV@Gu@physx@@@Gu@physx@@UEBA?AT__m128@@XZ 0000000180021d50 f i GuCCDSweepPrimitives.obj
 0001:00020d60       ?getSweepMargin@?$LocalConvex@UCustomConvexV@@@Gu@physx@@UEBA?AT__m128@@XZ 0000000180021d60 f i GuGjkQuery.obj
 0001:00020d60       ?getSweepMargin@?$LocalConvex@UPointConvexV@@@Gu@physx@@UEBA?AT__m128@@XZ 0000000180021d60 f i GuGjkQuery.obj
 0001:00020d60       ?getSweepMargin@?$LocalConvex@VBoxV@Gu@physx@@@Gu@physx@@UEBA?AT__m128@@XZ 0000000180021d60 f i GuSweepTests.obj
 0001:00020d60       ?getSweepMargin@?$LocalConvex@VConvexHullNoScaleV@Gu@physx@@@Gu@physx@@UEBA?AT__m128@@XZ 0000000180021d60 f i GuPCMContactBoxConvex.obj
 0001:00020d60       ?getSweepMargin@?$LocalConvex@VConvexHullV@Gu@physx@@@Gu@physx@@UEBA?AT__m128@@XZ 0000000180021d60 f i GuMTD.obj
 0001:00020d60       ?getSweepMargin@?$RelativeConvex@UCustomConvexV@@@Gu@physx@@UEBA?AT__m128@@XZ 0000000180021d60 f i GuGjkQuery.obj
 0001:00020d60       ?getSweepMargin@?$RelativeConvex@VBoxV@Gu@physx@@@Gu@physx@@UEBA?AT__m128@@XZ 0000000180021d60 f i GuOverlapTests.obj
 0001:00020d60       ?getSweepMargin@?$RelativeConvex@VConvexHullNoScaleV@Gu@physx@@@Gu@physx@@UEBA?AT__m128@@XZ 0000000180021d60 f i GuPCMContactConvexConvex.obj
 0001:00020d60       ?getSweepMargin@?$RelativeConvex@VConvexHullV@Gu@physx@@@Gu@physx@@UEBA?AT__m128@@XZ 0000000180021d60 f i GuOverlapTests.obj
 0001:00020d80       ?getSweepMargin@GjkConvex@Gu@physx@@UEBA?AT__m128@@XZ 0000000180021d80 f i GuMTD.obj
 0001:00020da0       ?pointConvexDistance@@YA_NAEAV?$PxVec3T@M@physx@@0AEAMAEBV12@PEBVConvexMesh@Gu@2@AEBVPxMeshScale@2@AEBUPxTransformPadded@2@@Z 0000000180021da0 f   GuMTD.obj
 0001:00021b10       ?support@?$LocalConvex@VCapsuleV@Gu@physx@@@Gu@physx@@UEBA?AT__m128@@AEBT4@@Z 0000000180022b10 f i GuMTD.obj
 0001:00021b70       ?support@?$LocalConvex@VCapsuleV@Gu@physx@@@Gu@physx@@UEBA?AT__m128@@AEBT4@AEAH@Z 0000000180022b70 f i GuMTD.obj
 0001:00021be0       ?support@?$LocalConvex@VConvexHullV@Gu@physx@@@Gu@physx@@UEBA?AT__m128@@AEBT4@@Z 0000000180022be0 f i GuMTD.obj
 0001:00021cc0       ?support@?$LocalConvex@VConvexHullV@Gu@physx@@@Gu@physx@@UEBA?AT__m128@@AEBT4@AEAH@Z 0000000180022cc0 f i GuMTD.obj
 0001:00021d90       ?support@GjkConvex@Gu@physx@@UEBA?AT__m128@@AEBT4@@Z 0000000180022d90 f i GuMTD.obj
 0001:00021db0       ?support@GjkConvex@Gu@physx@@UEBA?AT__m128@@AEBT4@AEAH@Z 0000000180022db0 f i GuMTD.obj
 0001:00021dd0       ?supportPoint@?$LocalConvex@VCapsuleV@Gu@physx@@@Gu@physx@@UEBA?AT__m128@@H@Z 0000000180022dd0 f i GuMTD.obj
 0001:00021e00       ?supportPoint@?$LocalConvex@VConvexHullV@Gu@physx@@@Gu@physx@@UEBA?AT__m128@@H@Z 0000000180022e00 f i GuMTD.obj
 0001:00021e50       ?supportPoint@GjkConvex@Gu@physx@@UEBA?AT__m128@@H@Z 0000000180022e50 f i GuMTD.obj
 0001:00021e70       ?supportPoint@?$RelativeConvex@VBoxV@Gu@physx@@@Gu@physx@@UEBA?AT__m128@@H@Z 0000000180022e70 f i GuOverlapTests.obj
 0001:00021ee0       ?support@?$RelativeConvex@VBoxV@Gu@physx@@@Gu@physx@@UEBA?AT__m128@@AEBT4@@Z 0000000180022ee0 f i GuOverlapTests.obj
 0001:00021f60       ?support@?$RelativeConvex@VBoxV@Gu@physx@@@Gu@physx@@UEBA?AT__m128@@AEBT4@AEAH@Z 0000000180022f60 f i GuOverlapTests.obj
 0001:00021ff0       ?getCenter@?$RelativeConvex@UCustomConvexV@@@Gu@physx@@UEBA?AT__m128@@XZ 0000000180022ff0 f i GuGjkQuery.obj
 0001:00021ff0       ?getCenter@?$RelativeConvex@VBoxV@Gu@physx@@@Gu@physx@@UEBA?AT__m128@@XZ 0000000180022ff0 f i GuOverlapTests.obj
 0001:00021ff0       ?getCenter@?$RelativeConvex@VCapsuleV@Gu@physx@@@Gu@physx@@UEBA?AT__m128@@XZ 0000000180022ff0 f i GuCCDSweepPrimitives.obj
 0001:00021ff0       ?getCenter@?$RelativeConvex@VConvexHullNoScaleV@Gu@physx@@@Gu@physx@@UEBA?AT__m128@@XZ 0000000180022ff0 f i GuPCMContactConvexConvex.obj
 0001:00021ff0       ?getCenter@?$RelativeConvex@VConvexHullV@Gu@physx@@@Gu@physx@@UEBA?AT__m128@@XZ 0000000180022ff0 f i GuOverlapTests.obj
 0001:00021ff0       ?getCenter@?$RelativeConvex@VTriangleV@Gu@physx@@@Gu@physx@@UEBA?AT__m128@@XZ 0000000180022ff0 f i GuCCDSweepPrimitives.obj
 0001:00022030       ??_E?$RelativeConvex@UCustomConvexV@@@Gu@physx@@UEAAPEAXI@Z 0000000180023030 f i GuGjkQuery.obj
 0001:00022030       ??_E?$RelativeConvex@VBoxV@Gu@physx@@@Gu@physx@@UEAAPEAXI@Z 0000000180023030 f i GuOverlapTests.obj
 0001:00022030       ??_E?$RelativeConvex@VCapsuleV@Gu@physx@@@Gu@physx@@UEAAPEAXI@Z 0000000180023030 f i GuCCDSweepPrimitives.obj
 0001:00022030       ??_E?$RelativeConvex@VConvexHullNoScaleV@Gu@physx@@@Gu@physx@@UEAAPEAXI@Z 0000000180023030 f i GuPCMContactConvexConvex.obj
 0001:00022030       ??_E?$RelativeConvex@VConvexHullV@Gu@physx@@@Gu@physx@@UEAAPEAXI@Z 0000000180023030 f i GuOverlapTests.obj
 0001:00022030       ??_E?$RelativeConvex@VTriangleV@Gu@physx@@@Gu@physx@@UEAAPEAXI@Z 0000000180023030 f i GuCCDSweepPrimitives.obj
 0001:00022030       ??_G?$RelativeConvex@UCustomConvexV@@@Gu@physx@@UEAAPEAXI@Z 0000000180023030 f i GuGjkQuery.obj
 0001:00022030       ??_G?$RelativeConvex@VBoxV@Gu@physx@@@Gu@physx@@UEAAPEAXI@Z 0000000180023030 f i GuOverlapTests.obj
 0001:00022030       ??_G?$RelativeConvex@VCapsuleV@Gu@physx@@@Gu@physx@@UEAAPEAXI@Z 0000000180023030 f i GuCCDSweepPrimitives.obj
 0001:00022030       ??_G?$RelativeConvex@VConvexHullNoScaleV@Gu@physx@@@Gu@physx@@UEAAPEAXI@Z 0000000180023030 f i GuPCMContactConvexConvex.obj
 0001:00022030       ??_G?$RelativeConvex@VConvexHullV@Gu@physx@@@Gu@physx@@UEAAPEAXI@Z 0000000180023030 f i GuOverlapTests.obj
 0001:00022030       ??_G?$RelativeConvex@VTriangleV@Gu@physx@@@Gu@physx@@UEAAPEAXI@Z 0000000180023030 f i GuCCDSweepPrimitives.obj
 0001:000241d0       ?supportPoint@?$RelativeConvex@VConvexHullV@Gu@physx@@@Gu@physx@@UEBA?AT__m128@@H@Z 00000001800251d0 f i GuOverlapTests.obj
 0001:00024250       ?support@?$RelativeConvex@VConvexHullV@Gu@physx@@@Gu@physx@@UEBA?AT__m128@@AEBT4@@Z 0000000180025250 f i GuOverlapTests.obj
 0001:00024380       ?support@?$RelativeConvex@VConvexHullV@Gu@physx@@@Gu@physx@@UEBA?AT__m128@@AEBT4@AEAH@Z 0000000180025380 f i GuOverlapTests.obj
 0001:000249f0       ??$gjk@U?$RelativeConvex@VBoxV@Gu@physx@@@Gu@physx@@U?$LocalConvex@VConvexHullV@Gu@physx@@@23@@Gu@physx@@YA?AW4GjkStatus@01@AEBU?$RelativeConvex@VBoxV@Gu@physx@@@01@AEBU?$LocalConvex@VConvexHullV@Gu@physx@@@01@AEBT__m128@@2AEAT5@333@Z 00000001800259f0 f i GuOverlapTests.obj
 0001:000257a0       ??$gjk@U?$RelativeConvex@VConvexHullV@Gu@physx@@@Gu@physx@@U?$LocalConvex@VConvexHullV@Gu@physx@@@23@@Gu@physx@@YA?AW4GjkStatus@01@AEBU?$RelativeConvex@VConvexHullV@Gu@physx@@@01@AEBU?$LocalConvex@VConvexHullV@Gu@physx@@@01@AEBT__m128@@2AEAT5@333@Z 00000001800267a0 f i GuOverlapTests.obj
 0001:000270d0       ??0?$Convex@UConvexShape@Gu@physx@@@RefGjkEpa@Gu@physx@@QEAA@AEBUConvexShape@23@AEBV?$PxTransformT@M@3@@Z 00000001800280d0 f i GuOverlapTests.obj
 0001:00027570       ??0?$GjkDistance@UConvexShape@Gu@physx@@@RefGjkEpa@Gu@physx@@QEAA@AEAU?$Convex@UConvexShape@Gu@physx@@@123@0@Z 0000000180028570 f i GuOverlapTests.obj
 0001:00027750       ?ComputeCubemapNearestOffset@physx@@YAIAEBV?$PxVec3T@M@1@I@Z 0000000180028750 f i GuOverlapTests.obj
 0001:00027850       ?addPoint@?$GjkDistance@UConvexShape@Gu@physx@@@RefGjkEpa@Gu@physx@@QEAAMAEBV?$PxVec3T@M@4@@Z 0000000180028850 f i GuOverlapTests.obj
 0001:00027990       ?computeClosest@?$GjkDistance@UConvexShape@Gu@physx@@@RefGjkEpa@Gu@physx@@QEAAXXZ 0000000180028990 f i GuOverlapTests.obj
 0001:00028f60       ?computePoints@?$GjkDistance@UConvexShape@Gu@physx@@@RefGjkEpa@Gu@physx@@QEAAXAEAV?$PxVec3T@M@4@0@Z 0000000180029f60 f i GuOverlapTests.obj
 0001:00029390       ?getBounds@?$Convex@UConvexShape@Gu@physx@@@RefGjkEpa@Gu@physx@@QEBA?AVPxBounds3@4@XZ 000000018002a390 f i GuOverlapTests.obj
 0001:00029c50       ?getOverlapFuncTable@Gu@physx@@YAPEAY0L@Q6A_NAEBVPxGeometry@2@AEBV?$PxTransformT@M@2@01PEAUTriggerCache@12@PEAUPxQueryThreadContext@2@@ZXZ 000000018002ac50 f   GuOverlapTests.obj
 0001:0002b800       ?supportIndex@?$Convex@UConvexShape@Gu@physx@@@RefGjkEpa@Gu@physx@@QEAAEAEBV?$PxVec3T@M@4@@Z 000000018002c800 f i GuOverlapTests.obj
 0001:0002bbc0       ??_ESupport@PxGjkQuery@physx@@UEAAPEAXI@Z 000000018002cbc0 f i GuRaycastTests.obj
 0001:0002bbc0       ??_GSupport@PxGjkQuery@physx@@UEAAPEAXI@Z 000000018002cbc0 f i GuRaycastTests.obj
 0001:0002bbf0       ?raycast_box@@YAIAEBVPxGeometry@physx@@AEBV?$PxTransformT@M@2@AEBV?$PxVec3T@M@2@2MV?$PxFlags@W4Enum@PxHitFlag@physx@@G@2@IPEIAUPxGeomRaycastHit@2@IPEAUPxQueryThreadContext@2@@Z 000000018002cbf0 f   GuRaycastTests.obj
 0001:0002c240       ?raycast_sphere@@YAIAEBVPxGeometry@physx@@AEBV?$PxTransformT@M@2@AEBV?$PxVec3T@M@2@2MV?$PxFlags@W4Enum@PxHitFlag@physx@@G@2@IPEIAUPxGeomRaycastHit@2@IPEAUPxQueryThreadContext@2@@Z 000000018002d240 f   GuRaycastTests.obj
 0001:0002c3d0       ?raycast_capsule@@YAIAEBVPxGeometry@physx@@AEBV?$PxTransformT@M@2@AEBV?$PxVec3T@M@2@2MV?$PxFlags@W4Enum@PxHitFlag@physx@@G@2@IPEIAUPxGeomRaycastHit@2@IPEAUPxQueryThreadContext@2@@Z 000000018002d3d0 f   GuRaycastTests.obj
 0001:0002c930       ?raycast_plane@@YAIAEBVPxGeometry@physx@@AEBV?$PxTransformT@M@2@AEBV?$PxVec3T@M@2@2MV?$PxFlags@W4Enum@PxHitFlag@physx@@G@2@IPEIAUPxGeomRaycastHit@2@IPEAUPxQueryThreadContext@2@@Z 000000018002d930 f   GuRaycastTests.obj
 0001:0002caa0       ?raycast_convexMesh@@YAIAEBVPxGeometry@physx@@AEBV?$PxTransformT@M@2@AEBV?$PxVec3T@M@2@2MV?$PxFlags@W4Enum@PxHitFlag@physx@@G@2@IPEIAUPxGeomRaycastHit@2@IPEAUPxQueryThreadContext@2@@Z 000000018002daa0 f   GuRaycastTests.obj
 0001:0002d5a0       ?getMidphaseID@RTreeTriangleMesh@Gu@physx@@UEBA?AW4Enum@PxMeshMidPhase@3@XZ 000000018002e5a0 f   GuTriangleMeshRTree.obj
 0001:0002d5a0       ?getMidphaseID@RTreeTriangleMeshBuilder@physx@@UEBA?AW4Enum@PxMeshMidPhase@2@XZ 000000018002e5a0 f   GuCookingTriangleMesh.obj
 0001:0002d5a0       ?getTetrahedraRemap@TetrahedronMesh@Gu@physx@@UEBAPEBIXZ 000000018002e5a0 f   GuTetrahedronMesh.obj
 0001:0002d5a0       ?raycast_particlesystem@@YAIAEBVPxGeometry@physx@@AEBV?$PxTransformT@M@2@AEBV?$PxVec3T@M@2@2MV?$PxFlags@W4Enum@PxHitFlag@physx@@G@2@IPEIAUPxGeomRaycastHit@2@IPEAUPxQueryThreadContext@2@@Z 000000018002e5a0 f   GuRaycastTests.obj
 0001:0002d5a0       ?raycast_softbody@@YAIAEBVPxGeometry@physx@@AEBV?$PxTransformT@M@2@AEBV?$PxVec3T@M@2@2MV?$PxFlags@W4Enum@PxHitFlag@physx@@G@2@IPEIAUPxGeomRaycastHit@2@IPEAUPxQueryThreadContext@2@@Z 000000018002e5a0 f   GuRaycastTests.obj
 0001:0002d5b0       ?raycast_triangleMesh@@YAIAEBVPxGeometry@physx@@AEBV?$PxTransformT@M@2@AEBV?$PxVec3T@M@2@2MV?$PxFlags@W4Enum@PxHitFlag@physx@@G@2@IPEIAUPxGeomRaycastHit@2@IPEAUPxQueryThreadContext@2@@Z 000000018002e5b0 f   GuRaycastTests.obj
 0001:0002d640       ?raycast_heightField@@YAIAEBVPxGeometry@physx@@AEBV?$PxTransformT@M@2@AEBV?$PxVec3T@M@2@2MV?$PxFlags@W4Enum@PxHitFlag@physx@@G@2@IPEIAUPxGeomRaycastHit@2@IPEAUPxQueryThreadContext@2@@Z 000000018002e640 f   GuRaycastTests.obj
 0001:0002f2f0       ??Dphysx@@YA?AV?$PxMat34T@M@0@AEBVPxMeshScale@0@AEBV?$PxTransformT@M@0@@Z 00000001800302f0 f i GuRaycastTests.obj
 0001:0002fdd0       ?getRaycastFuncTable@Gu@physx@@YAAEAY0L@Q6AIAEBVPxGeometry@2@AEBV?$PxTransformT@M@2@AEBV?$PxVec3T@M@2@2MV?$PxFlags@W4Enum@PxHitFlag@physx@@G@2@IPEIAUPxGeomRaycastHit@2@IPEAUPxQueryThreadContext@2@@ZXZ 0000000180030dd0 f   GuRaycastTests.obj
 0001:0002fde0       ?supportLocal@ConvexShape@Gu@physx@@QEBA?AV?$PxVec3T@M@3@AEBV43@@Z 0000000180030de0 f i GuRaycastTests.obj
 0001:0002fe90       ??Dphysx@@YA?AV?$PxMat34T@M@0@AEBV?$PxTransformT@M@0@AEBVPxMeshScale@0@@Z 0000000180030e90 f i GuSweepMTD.obj
 0001:000303d0       ??_E?$MeshHitCallback@UPxGeomRaycastHit@physx@@@Gu@physx@@UEAAPEAXI@Z 00000001800313d0 f i GuSweepMTD.obj
 0001:000303d0       ??_G?$MeshHitCallback@UPxGeomRaycastHit@physx@@@Gu@physx@@UEAAPEAXI@Z 00000001800313d0 f i GuSweepMTD.obj
 0001:00030400       ??_EMeshMTDGenerationCallback@@UEAAPEAXI@Z 0000000180031400 f i GuSweepMTD.obj
 0001:00030400       ??_GMeshMTDGenerationCallback@@UEAAPEAXI@Z 0000000180031400 f i GuSweepMTD.obj
 0001:00030430       ??_EMidPhaseQueryLocalReport@@UEAAPEAXI@Z 0000000180031430 f i GuSweepMTD.obj
 0001:00030430       ??_ERTreeCookerRemap@@UEAAPEAXI@Z 0000000180031430 f i GuCookingTriangleMesh.obj
 0001:00030430       ??_GMidPhaseQueryLocalReport@@UEAAPEAXI@Z 0000000180031430 f i GuSweepMTD.obj
 0001:00030430       ??_GRTreeCookerRemap@@UEAAPEAXI@Z 0000000180031430 f i GuCookingTriangleMesh.obj
 0001:00030460       ?computeBox_HeightFieldMTD@Gu@physx@@YA_NAEBVPxHeightFieldGeometry@2@AEBV?$PxTransformT@M@2@AEBVBox@12@1M_NAEAUPxGeomSweepHit@2@@Z 0000000180031460 f   GuSweepMTD.obj
 0001:00031220       ?computeBox_TriangleMeshMTD@Gu@physx@@YA_NAEBVPxTriangleMeshGeometry@2@AEBV?$PxTransformT@M@2@AEBVBox@12@1M_NAEAUPxGeomSweepHit@2@@Z 0000000180032220 f   GuSweepMTD.obj
 0001:00032260       ?computeCapsule_CapsuleMTD@Gu@physx@@YA_NAEBVCapsule@12@0AEAUPxGeomSweepHit@2@@Z 0000000180033260 f   GuSweepMTD.obj
 0001:000324a0       ?computeCapsule_HeightFieldMTD@Gu@physx@@YA_NAEBVPxHeightFieldGeometry@2@AEBV?$PxTransformT@M@2@AEAVCapsuleV@12@M_NAEAUPxGeomSweepHit@2@@Z 00000001800334a0 f   GuSweepMTD.obj
 0001:00032c70       ?computeCapsule_TriangleMeshMTD@Gu@physx@@YA_NAEBVPxTriangleMeshGeometry@2@AEBV?$PxTransformT@M@2@AEAVCapsuleV@12@M_NAEAUPxGeomSweepHit@2@@Z 0000000180033c70 f   GuSweepMTD.obj
 0001:00033510       ?computeConvex_HeightFieldMTD@Gu@physx@@YA_NAEBVPxHeightFieldGeometry@2@AEBV?$PxTransformT@M@2@AEBVPxConvexMeshGeometry@2@1M_NAEAUPxGeomSweepHit@2@@Z 0000000180034510 f   GuSweepMTD.obj
 0001:00034810       ?computeConvex_TriangleMeshMTD@Gu@physx@@YA_NAEBVPxTriangleMeshGeometry@2@AEBV?$PxTransformT@M@2@AEBVPxConvexMeshGeometry@2@1M_NAEAUPxGeomSweepHit@2@@Z 0000000180035810 f   GuSweepMTD.obj
 0001:00035e10       ?computePlane_BoxMTD@Gu@physx@@YA_NAEBVPxPlane@2@AEBVBox@12@AEAUPxGeomSweepHit@2@@Z 0000000180036e10 f   GuSweepMTD.obj
 0001:000360b0       ?computePlane_CapsuleMTD@Gu@physx@@YA_NAEBVPxPlane@2@AEBVCapsule@12@AEAUPxGeomSweepHit@2@@Z 00000001800370b0 f   GuSweepMTD.obj
 0001:000361d0       ?computePlane_ConvexMTD@Gu@physx@@YA_NAEBVPxPlane@2@AEBVPxConvexMeshGeometry@2@AEBV?$PxTransformT@M@2@AEAUPxGeomSweepHit@2@@Z 00000001800371d0 f   GuSweepMTD.obj
 0001:00036d00       ?computeSphere_CapsuleMTD@Gu@physx@@YA_NAEBVSphere@12@AEBVCapsule@12@AEAUPxGeomSweepHit@2@@Z 0000000180037d00 f   GuSweepMTD.obj
 0001:00036eb0       ?computeSphere_SphereMTD@Gu@physx@@YA_NAEBVSphere@12@0AEAUPxGeomSweepHit@2@@Z 0000000180037eb0 f   GuSweepMTD.obj
 0001:00036fa0       ?getInverse@?$PxMat33T@M@physx@@QEBA?BV12@XZ 0000000180037fa0 f i GuSweepMTD.obj
 0001:000371f0       ?growAndPushBack@?$PxArray@IV?$PxReflectionAllocator@I@physx@@@physx@@IEAAAEAIAEBI@Z 00000001800381f0 f i GuSweepMTD.obj
 0001:00037310       ?init@FastVertex2ShapeScaling@Cm@physx@@QEAAXAEBV?$PxVec3T@M@3@AEBV?$PxQuatT@M@3@@Z 0000000180038310 f i GuSweepMTD.obj
 0001:00037c00       ?processHit@MeshMTDGenerationCallback@@UEAA_NAEBUPxGeomRaycastHit@physx@@AEBV?$PxVec3T@M@3@11AEAMPEBI@Z 0000000180038c00 f i GuSweepMTD.obj
 0001:00037c50       ?recreate@?$PxArray@IV?$PxReflectionAllocator@I@physx@@@physx@@IEAAXI@Z 0000000180038c50 f i GuSweepMTD.obj
 0001:00037d40       ?reportTouchedTris@MidPhaseQueryLocalReport@@UEAA_NIPEBI@Z 0000000180038d40 f i GuSweepMTD.obj
 0001:00037db0       ??$gjkPenetration@U?$LocalConvex@VCapsuleV@Gu@physx@@@Gu@physx@@U?$LocalConvex@VConvexHullV@Gu@physx@@@23@@Gu@physx@@YA?AW4GjkStatus@01@AEBU?$LocalConvex@VCapsuleV@Gu@physx@@@01@AEBU?$LocalConvex@VConvexHullV@Gu@physx@@@01@AEBT__m128@@2_NPEIAE4AEAEAEAUGjkOutput@01@@Z 0000000180038db0 f i GuSweepSharedTests.obj
 0001:00037e20       ??$gjkPenetration@U?$LocalConvex@VCapsuleV@Gu@physx@@@Gu@physx@@U?$LocalConvex@VConvexHullV@Gu@physx@@@23@@Gu@physx@@YA?AW4GjkStatus@01@AEBU?$LocalConvex@VCapsuleV@Gu@physx@@@01@AEBU?$LocalConvex@VConvexHullV@Gu@physx@@@01@AEBT__m128@@2_NPEIAE4PEIAT5@5AEAEAEAUGjkOutput@01@@Z 0000000180038e20 f i GuSweepSharedTests.obj
 0001:00039340       ??$gjkPenetration@U?$RelativeConvex@VBoxV@Gu@physx@@@Gu@physx@@U?$LocalConvex@VConvexHullV@Gu@physx@@@23@@Gu@physx@@YA?AW4GjkStatus@01@AEBU?$RelativeConvex@VBoxV@Gu@physx@@@01@AEBU?$LocalConvex@VConvexHullV@Gu@physx@@@01@AEBT__m128@@2_NPEIAE4AEAEAEAUGjkOutput@01@@Z 000000018003a340 f i GuSweepSharedTests.obj
 0001:000393b0       ??$gjkPenetration@U?$RelativeConvex@VBoxV@Gu@physx@@@Gu@physx@@U?$LocalConvex@VConvexHullV@Gu@physx@@@23@@Gu@physx@@YA?AW4GjkStatus@01@AEBU?$RelativeConvex@VBoxV@Gu@physx@@@01@AEBU?$LocalConvex@VConvexHullV@Gu@physx@@@01@AEBT__m128@@2_NPEIAE4PEIAT5@5AEAEAEAUGjkOutput@01@@Z 000000018003a3b0 f i GuSweepSharedTests.obj
 0001:0003a930       ??$gjkPenetration@U?$RelativeConvex@VConvexHullV@Gu@physx@@@Gu@physx@@U?$LocalConvex@VConvexHullV@Gu@physx@@@23@@Gu@physx@@YA?AW4GjkStatus@01@AEBU?$RelativeConvex@VConvexHullV@Gu@physx@@@01@AEBU?$LocalConvex@VConvexHullV@Gu@physx@@@01@AEBT__m128@@2_NPEIAE4AEAEAEAUGjkOutput@01@@Z 000000018003b930 f i GuSweepSharedTests.obj
 0001:0003a9a0       ??$gjkPenetration@U?$RelativeConvex@VConvexHullV@Gu@physx@@@Gu@physx@@U?$LocalConvex@VConvexHullV@Gu@physx@@@23@@Gu@physx@@YA?AW4GjkStatus@01@AEBU?$RelativeConvex@VConvexHullV@Gu@physx@@@01@AEBU?$LocalConvex@VConvexHullV@Gu@physx@@@01@AEBT__m128@@2_NPEIAE4PEIAT5@5AEAEAEAUGjkOutput@01@@Z 000000018003b9a0 f i GuSweepSharedTests.obj
 0001:0003bfc0       ??$gjkRaycast@U?$LocalConvex@VCapsuleV@Gu@physx@@@Gu@physx@@U?$LocalConvex@VConvexHullV@Gu@physx@@@23@@Gu@physx@@YA_NAEBU?$LocalConvex@VCapsuleV@Gu@physx@@@01@AEBU?$LocalConvex@VConvexHullV@Gu@physx@@@01@AEBT__m128@@222AEAT4@33M@Z 000000018003cfc0 f i GuSweepSharedTests.obj
 0001:0003cd20       ??$gjkRaycast@U?$RelativeConvex@VBoxV@Gu@physx@@@Gu@physx@@U?$LocalConvex@VConvexHullV@Gu@physx@@@23@@Gu@physx@@YA_NAEBU?$RelativeConvex@VBoxV@Gu@physx@@@01@AEBU?$LocalConvex@VConvexHullV@Gu@physx@@@01@AEBT__m128@@222AEAT4@33M@Z 000000018003dd20 f i GuSweepSharedTests.obj
 0001:0003db10       ??$gjkRaycast@U?$RelativeConvex@VConvexHullV@Gu@physx@@@Gu@physx@@U?$LocalConvex@VConvexHullV@Gu@physx@@@23@@Gu@physx@@YA_NAEBU?$RelativeConvex@VConvexHullV@Gu@physx@@@01@AEBU?$LocalConvex@VConvexHullV@Gu@physx@@@01@AEBT__m128@@222AEAT4@33M@Z 000000018003eb10 f i GuSweepSharedTests.obj
 0001:0003e8e0       ??$gjkRaycastPenetration@U?$RelativeConvex@VConvexHullV@Gu@physx@@@Gu@physx@@U?$LocalConvex@VConvexHullV@Gu@physx@@@23@@Gu@physx@@YA_NAEBU?$RelativeConvex@VConvexHullV@Gu@physx@@@01@AEBU?$LocalConvex@VConvexHullV@Gu@physx@@@01@AEBT__m128@@222AEAT4@33M_N@Z 000000018003f8e0 f i GuSweepSharedTests.obj
 0001:0003f4b0       ?sweepBox_ConvexGeom@@YA_NAEBVPxGeometry@physx@@AEBV?$PxTransformT@M@2@AEBVPxBoxGeometry@2@1AEBVBox@Gu@2@AEBV?$PxVec3T@M@2@MAEAUPxGeomSweepHit@2@V?$PxFlags@W4Enum@PxHitFlag@physx@@G@2@MPEAUPxQueryThreadContext@2@@Z 00000001800404b0 f   GuSweepSharedTests.obj
 0001:000402d0       ?sweepBox_PlaneGeom@@YA_NAEBVPxGeometry@physx@@AEBV?$PxTransformT@M@2@AEBVPxBoxGeometry@2@1AEBVBox@Gu@2@AEBV?$PxVec3T@M@2@MAEAUPxGeomSweepHit@2@V?$PxFlags@W4Enum@PxHitFlag@physx@@G@2@MPEAUPxQueryThreadContext@2@@Z 00000001800412d0 f   GuSweepSharedTests.obj
 0001:000406a0       ?sweepCapsuleTriangles@Gu@physx@@YA_NIPEBVPxTriangle@2@_NAEBVPxCapsuleGeometry@2@AEBV?$PxTransformT@M@2@AEBV?$PxVec3T@M@2@MAEAUPxGeomSweepHit@2@PEBIMV?$PxFlags@W4Enum@PxHitFlag@physx@@G@2@@Z 00000001800416a0 f   GuSweepSharedTests.obj
 0001:00040890       ?sweepCapsule_CapsuleGeom@@YA_NAEBVPxGeometry@physx@@AEBV?$PxTransformT@M@2@AEBVPxCapsuleGeometry@2@1AEBVCapsule@Gu@2@AEBV?$PxVec3T@M@2@MAEAUPxGeomSweepHit@2@V?$PxFlags@W4Enum@PxHitFlag@physx@@G@2@MPEAUPxQueryThreadContext@2@@Z 0000000180041890 f   GuSweepSharedTests.obj
 0001:00040a70       ?sweepCapsule_ConvexGeom@@YA_NAEBVPxGeometry@physx@@AEBV?$PxTransformT@M@2@AEBVPxCapsuleGeometry@2@1AEBVCapsule@Gu@2@AEBV?$PxVec3T@M@2@MAEAUPxGeomSweepHit@2@V?$PxFlags@W4Enum@PxHitFlag@physx@@G@2@MPEAUPxQueryThreadContext@2@@Z 0000000180041a70 f   GuSweepSharedTests.obj
 0001:000417a0       ?sweepCapsule_PlaneGeom@@YA_NAEBVPxGeometry@physx@@AEBV?$PxTransformT@M@2@AEBVPxCapsuleGeometry@2@1AEBVCapsule@Gu@2@AEBV?$PxVec3T@M@2@MAEAUPxGeomSweepHit@2@V?$PxFlags@W4Enum@PxHitFlag@physx@@G@2@MPEAUPxQueryThreadContext@2@@Z 00000001800427a0 f   GuSweepSharedTests.obj
 0001:00041a80       ?sweepCapsule_SphereGeom@@YA_NAEBVPxGeometry@physx@@AEBV?$PxTransformT@M@2@AEBVPxCapsuleGeometry@2@1AEBVCapsule@Gu@2@AEBV?$PxVec3T@M@2@MAEAUPxGeomSweepHit@2@V?$PxFlags@W4Enum@PxHitFlag@physx@@G@2@MPEAUPxQueryThreadContext@2@@Z 0000000180042a80 f   GuSweepSharedTests.obj
 0001:00041c20       ?sweepConvex_BoxGeom@@YA_NAEBVPxGeometry@physx@@AEBV?$PxTransformT@M@2@AEBVPxConvexMeshGeometry@2@1AEBV?$PxVec3T@M@2@MAEAUPxGeomSweepHit@2@V?$PxFlags@W4Enum@PxHitFlag@physx@@G@2@MPEAUPxQueryThreadContext@2@@Z 0000000180042c20 f   GuSweepSharedTests.obj
 0001:00041e40       ?sweepConvex_CapsuleGeom@@YA_NAEBVPxGeometry@physx@@AEBV?$PxTransformT@M@2@AEBVPxConvexMeshGeometry@2@1AEBV?$PxVec3T@M@2@MAEAUPxGeomSweepHit@2@V?$PxFlags@W4Enum@PxHitFlag@physx@@G@2@MPEAUPxQueryThreadContext@2@@Z 0000000180042e40 f   GuSweepSharedTests.obj
 0001:00042070       ?sweepConvex_ConvexGeom@@YA_NAEBVPxGeometry@physx@@AEBV?$PxTransformT@M@2@AEBVPxConvexMeshGeometry@2@1AEBV?$PxVec3T@M@2@MAEAUPxGeomSweepHit@2@V?$PxFlags@W4Enum@PxHitFlag@physx@@G@2@MPEAUPxQueryThreadContext@2@@Z 0000000180043070 f   GuSweepSharedTests.obj
 0001:00043080       ?sweepConvex_PlaneGeom@@YA_NAEBVPxGeometry@physx@@AEBV?$PxTransformT@M@2@AEBVPxConvexMeshGeometry@2@1AEBV?$PxVec3T@M@2@MAEAUPxGeomSweepHit@2@V?$PxFlags@W4Enum@PxHitFlag@physx@@G@2@MPEAUPxQueryThreadContext@2@@Z 0000000180044080 f   GuSweepSharedTests.obj
 0001:000434c0       ?sweepConvex_SphereGeom@@YA_NAEBVPxGeometry@physx@@AEBV?$PxTransformT@M@2@AEBVPxConvexMeshGeometry@2@1AEBV?$PxVec3T@M@2@MAEAUPxGeomSweepHit@2@V?$PxFlags@W4Enum@PxHitFlag@physx@@G@2@MPEAUPxQueryThreadContext@2@@Z 00000001800444c0 f   GuSweepSharedTests.obj
 0001:00044080       ?sweepCapsule_BoxGeom@@YA_NAEBVPxGeometry@physx@@AEBV?$PxTransformT@M@2@AEBVPxCapsuleGeometry@2@1AEBVCapsule@Gu@2@AEBV?$PxVec3T@M@2@MAEAUPxGeomSweepHit@2@V?$PxFlags@W4Enum@PxHitFlag@physx@@G@2@MPEAUPxQueryThreadContext@2@@Z 0000000180045080 f   GuSweepTests.obj
 0001:00044930       ?sweepBox_SphereGeom@@YA_NAEBVPxGeometry@physx@@AEBV?$PxTransformT@M@2@AEBVPxBoxGeometry@2@1AEBVBox@Gu@2@AEBV?$PxVec3T@M@2@MAEAUPxGeomSweepHit@2@V?$PxFlags@W4Enum@PxHitFlag@physx@@G@2@MPEAUPxQueryThreadContext@2@@Z 0000000180045930 f   GuSweepTests.obj
 0001:00045010       ?sweepBox_CapsuleGeom@@YA_NAEBVPxGeometry@physx@@AEBV?$PxTransformT@M@2@AEBVPxBoxGeometry@2@1AEBVBox@Gu@2@AEBV?$PxVec3T@M@2@MAEAUPxGeomSweepHit@2@V?$PxFlags@W4Enum@PxHitFlag@physx@@G@2@MPEAUPxQueryThreadContext@2@@Z 0000000180046010 f   GuSweepTests.obj
 0001:000458e0       ?sweepBox_BoxGeom@@YA_NAEBVPxGeometry@physx@@AEBV?$PxTransformT@M@2@AEBVPxBoxGeometry@2@1AEBVBox@Gu@2@AEBV?$PxVec3T@M@2@MAEAUPxGeomSweepHit@2@V?$PxFlags@W4Enum@PxHitFlag@physx@@G@2@MPEAUPxQueryThreadContext@2@@Z 00000001800468e0 f   GuSweepTests.obj
 0001:00047150       ??$gjkPenetration@U?$LocalConvex@VCapsuleV@Gu@physx@@@Gu@physx@@U?$LocalConvex@VBoxV@Gu@physx@@@23@@Gu@physx@@YA?AW4GjkStatus@01@AEBU?$LocalConvex@VCapsuleV@Gu@physx@@@01@AEBU?$LocalConvex@VBoxV@Gu@physx@@@01@AEBT__m128@@2_NPEIAE4AEAEAEAUGjkOutput@01@@Z 0000000180048150 f i GuSweepTests.obj
 0001:000471c0       ??$gjkPenetration@U?$LocalConvex@VCapsuleV@Gu@physx@@@Gu@physx@@U?$LocalConvex@VBoxV@Gu@physx@@@23@@Gu@physx@@YA?AW4GjkStatus@01@AEBU?$LocalConvex@VCapsuleV@Gu@physx@@@01@AEBU?$LocalConvex@VBoxV@Gu@physx@@@01@AEBT__m128@@2_NPEIAE4PEIAT5@5AEAEAEAUGjkOutput@01@@Z 00000001800481c0 f i GuSweepTests.obj
 0001:00048640       ??$gjkPenetration@U?$RelativeConvex@VBoxV@Gu@physx@@@Gu@physx@@U?$LocalConvex@VBoxV@Gu@physx@@@23@@Gu@physx@@YA?AW4GjkStatus@01@AEBU?$RelativeConvex@VBoxV@Gu@physx@@@01@AEBU?$LocalConvex@VBoxV@Gu@physx@@@01@AEBT__m128@@2_NPEIAE4AEAEAEAUGjkOutput@01@@Z 0000000180049640 f i GuSweepTests.obj
 0001:000486b0       ??$gjkPenetration@U?$RelativeConvex@VBoxV@Gu@physx@@@Gu@physx@@U?$LocalConvex@VBoxV@Gu@physx@@@23@@Gu@physx@@YA?AW4GjkStatus@01@AEBU?$RelativeConvex@VBoxV@Gu@physx@@@01@AEBU?$LocalConvex@VBoxV@Gu@physx@@@01@AEBT__m128@@2_NPEIAE4PEIAT5@5AEAEAEAUGjkOutput@01@@Z 00000001800496b0 f i GuSweepTests.obj
 0001:00049b60       ??$gjkRaycast@U?$LocalConvex@VCapsuleV@Gu@physx@@@Gu@physx@@U?$LocalConvex@VBoxV@Gu@physx@@@23@@Gu@physx@@YA_NAEBU?$LocalConvex@VCapsuleV@Gu@physx@@@01@AEBU?$LocalConvex@VBoxV@Gu@physx@@@01@AEBT__m128@@222AEAT4@33M@Z 000000018004ab60 f i GuSweepTests.obj
 0001:0004a740       ??$gjkRaycast@U?$LocalConvex@VTriangleV@Gu@physx@@@Gu@physx@@U?$LocalConvex@VBoxV@Gu@physx@@@23@@Gu@physx@@YA_NAEBU?$LocalConvex@VTriangleV@Gu@physx@@@01@AEBU?$LocalConvex@VBoxV@Gu@physx@@@01@AEBT__m128@@222AEAT4@33M@Z 000000018004b740 f i GuSweepTests.obj
 0001:0004b390       ??$gjkRaycast@U?$RelativeConvex@VBoxV@Gu@physx@@@Gu@physx@@U?$LocalConvex@VBoxV@Gu@physx@@@23@@Gu@physx@@YA_NAEBU?$RelativeConvex@VBoxV@Gu@physx@@@01@AEBU?$LocalConvex@VBoxV@Gu@physx@@@01@AEBT__m128@@222AEAT4@33M@Z 000000018004c390 f i GuSweepTests.obj
 0001:0004bfe0       ?getSweepFuncTable@Gu@physx@@YAAEBUGeomSweepFuncs@12@XZ 000000018004cfe0 f   GuSweepTests.obj
 0001:0004bff0       ?getSweepMargin@?$LocalConvex@VTetrahedronV@Gu@physx@@@Gu@physx@@UEBA?AT__m128@@XZ 000000018004cff0 f i GuCookingTetrahedronMesh.obj
 0001:0004bff0       ?getSweepMargin@?$LocalConvex@VTriangleV@Gu@physx@@@Gu@physx@@UEBA?AT__m128@@XZ 000000018004cff0 f i GuSweepTests.obj
 0001:0004bff0       ?getSweepMargin@?$RelativeConvex@VTriangleV@Gu@physx@@@Gu@physx@@UEBA?AT__m128@@XZ 000000018004cff0 f i GuCCDSweepPrimitives.obj
 0001:0004c000       ?support@?$LocalConvex@VBoxV@Gu@physx@@@Gu@physx@@UEBA?AT__m128@@AEBT4@@Z 000000018004d000 f i GuSweepTests.obj
 0001:0004c030       ?support@?$LocalConvex@VBoxV@Gu@physx@@@Gu@physx@@UEBA?AT__m128@@AEBT4@AEAH@Z 000000018004d030 f i GuSweepTests.obj
 0001:0004c070       ?support@?$LocalConvex@VTriangleV@Gu@physx@@@Gu@physx@@UEBA?AT__m128@@AEBT4@@Z 000000018004d070 f i GuSweepTests.obj
 0001:0004c100       ?support@?$LocalConvex@VTriangleV@Gu@physx@@@Gu@physx@@UEBA?AT__m128@@AEBT4@AEAH@Z 000000018004d100 f i GuSweepTests.obj
 0001:0004c1e0       ?supportPoint@?$LocalConvex@VBoxV@Gu@physx@@@Gu@physx@@UEBA?AT__m128@@H@Z 000000018004d1e0 f i GuSweepTests.obj
 0001:0004c220       ?supportPoint@?$LocalConvex@VTetrahedronV@Gu@physx@@@Gu@physx@@UEBA?AT__m128@@H@Z 000000018004d220 f i GuCookingTetrahedronMesh.obj
 0001:0004c220       ?supportPoint@?$LocalConvex@VTriangleV@Gu@physx@@@Gu@physx@@UEBA?AT__m128@@H@Z 000000018004d220 f i GuSweepTests.obj
 0001:0004c240       ?sweepBoxTriangles@Gu@physx@@YA_NIPEBVPxTriangle@2@_NAEBVPxBoxGeometry@2@AEBV?$PxTransformT@M@2@AEBV?$PxVec3T@M@2@MAEAUPxGeomSweepHit@2@PEBIMV?$PxFlags@W4Enum@PxHitFlag@physx@@G@2@@Z 000000018004d240 f   GuSweepTests.obj
 0001:0004ccb0       ??$PxSort@HU?$Comparer@V?$PxVec3T@M@physx@@@MeshAnalyzer@Gu@physx@@V?$PxReflectionAllocator@H@4@@physx@@YAXPEAHIAEBU?$Comparer@V?$PxVec3T@M@physx@@@MeshAnalyzer@Gu@0@AEBV?$PxReflectionAllocator@H@0@I@Z 000000018004dcb0 f i GuSDF.obj
 0001:0004d2f0       ??$PxSort@HU?$PxLess@H@physx@@V?$PxReflectionAllocator@H@2@@physx@@YAXPEAHIAEBU?$PxLess@H@0@AEBV?$PxReflectionAllocator@H@0@I@Z 000000018004e2f0 f i GuSDF.obj
 0001:0004d740       ??$copy@V?$PxReflectionAllocator@I@physx@@@?$PxArray@IV?$PxReflectionAllocator@I@physx@@@physx@@IEAAXAEBV01@@Z 000000018004e740 f i GuSDF.obj
 0001:0004d7b0       ??$copy@V?$PxReflectionAllocator@M@physx@@@?$PxArray@MV?$PxReflectionAllocator@M@physx@@@physx@@IEAAXAEBV01@@Z 000000018004e7b0 f i GuSDF.obj
 0001:0004d810       ??$copy@V?$PxReflectionAllocator@V?$PxVec3T@M@physx@@@physx@@@?$PxArray@V?$PxVec3T@M@physx@@V?$PxReflectionAllocator@V?$PxVec3T@M@physx@@@2@@physx@@IEAAXAEBV01@@Z 000000018004e810 f i GuSDF.obj
 0001:0004d870       ??$mapDuplicatePoints@V?$PxVec3T@M@physx@@M@MeshAnalyzer@Gu@physx@@SAXPEBV?$PxVec3T@M@2@IAEAV?$PxArray@HV?$PxReflectionAllocator@H@physx@@@2@M@Z 000000018004e870 f i GuSDF.obj
 0001:0004dbf0       ??$splitRanges@V?$PxVec3T@M@physx@@M@MeshAnalyzer@Gu@physx@@CAXAEAV?$PxArray@URange@MeshAnalyzer@Gu@physx@@V?$PxReflectionAllocator@URange@MeshAnalyzer@Gu@physx@@@4@@2@AEBV?$PxArray@HV?$PxReflectionAllocator@H@physx@@@2@PEBV?$PxVec3T@M@2@HM@Z 000000018004ebf0 f i GuSDF.obj
 0001:0004de60       ??$traverseBVH@VClosestDistanceToTrimeshTraversalController@Gu@physx@@@Gu@physx@@YAXPEBUBVHNode@01@AEAVClosestDistanceToTrimeshTraversalController@01@H@Z 000000018004ee60 f i GuSDF.obj
 0001:0004e250       ??$traverseBVH@VLineSegmentTrimeshIntersectionTraversalController@Gu@physx@@@Gu@physx@@YAXPEBUBVHNode@01@AEAVLineSegmentTrimeshIntersectionTraversalController@01@H@Z 000000018004f250 f i GuSDF.obj
 0001:0004e750       ??0?$PxThreadT@V?$PxReflectionAllocator@VPxThreadImpl@physx@@@physx@@@physx@@QEAA@P6APEAXPEAX@Z0PEBDAEBV?$PxReflectionAllocator@VPxThreadImpl@physx@@@1@@Z 000000018004f750 f i GuSDF.obj
 0001:0004e810       ??0CellToPoint@Gu@physx@@QEAA@I@Z 000000018004f810 f i GuSDF.obj
 0001:0004e910       ??0IsosurfaceThreadData@Gu@physx@@QEAA@AEBU012@@Z 000000018004f910 f i GuSDF.obj
 0001:0004e990       ??1CellToPoint@Gu@physx@@QEAA@XZ 000000018004f990 f i GuSDF.obj
 0001:0004ea70       ??1IsosurfaceThreadData@Gu@physx@@QEAA@XZ 000000018004fa70 f i GuSDF.obj
 0001:0004eb20       ??1SDF@Gu@physx@@QEAA@XZ   000000018004fb20 f   GuSDF.obj
 0001:0004ebc0       ??_E?$PxThreadT@V?$PxReflectionAllocator@VPxThreadImpl@physx@@@physx@@@physx@@UEAAPEAXI@Z 000000018004fbc0 f i GuSDF.obj
 0001:0004ebc0       ??_G?$PxThreadT@V?$PxReflectionAllocator@VPxThreadImpl@physx@@@physx@@@physx@@UEAAPEAXI@Z 000000018004fbc0 f i GuSDF.obj
 0001:0004ec70       ??_EPxRunnable@physx@@UEAAPEAXI@Z 000000018004fc70 f i GuSDF.obj
 0001:0004ec70       ??_GPxRunnable@physx@@UEAAPEAXI@Z 000000018004fc70 f i GuSDF.obj
 0001:0004eca0       ?PxCreatePointOntoTriangleMeshProjector@Gu@physx@@YAPEAVPxPointOntoTriangleMeshProjector@12@PEBV?$PxVec3T@M@2@PEBII@Z 000000018004fca0 f   GuSDF.obj
 0001:0004eda0       ?SDFUsingWindingNumbers@Gu@physx@@YAXAEAV?$PxArray@UBVHNode@Gu@physx@@V?$PxReflectionAllocator@UBVHNode@Gu@physx@@@3@@2@AEAV?$PxHashMap@IU?$ClusterApproximationT@MV?$PxVec3T@M@physx@@@Gu@physx@@U?$PxHash@I@3@VPxAllocator@3@@2@PEBV?$PxVec3T@M@2@PEBIIIIIPEAMAEAUGridQueryPointSampler@12@PEAV52@I_N7@Z 000000018004fda0 f   GuSDF.obj
 0001:0004f2c0       ?SDFUsingWindingNumbers@Gu@physx@@YAXPEBV?$PxVec3T@M@2@PEBIIIIIPEAMV32@3PEAV32@_NIPEAVPxSDFBuilder@2@@Z 00000001800502c0 f   GuSDF.obj
 0001:0004f790       ?SDFUsingWindingNumbersSparse@Gu@physx@@YAXPEBV?$PxVec3T@M@2@PEBIIIIIAEBV32@2MIAEAV?$PxArray@MV?$PxReflectionAllocator@M@physx@@@2@AEAV?$PxArray@IV?$PxReflectionAllocator@I@physx@@@2@33AEAM5IPEAVPxSDFBuilder@2@@Z 0000000180050790 f   GuSDF.obj
 0001:000501e0       ?allocate@?$PxArray@HV?$PxInlineAllocator@$0EAA@V?$PxReflectionAllocator@H@physx@@@physx@@@physx@@IEAAPEAHIPEAI@Z 00000001800511e0 f i GuSDF.obj
 0001:000502a0       ?allocate@?$PxArray@IV?$PxReflectionAllocator@I@physx@@@physx@@IEAAPEAIIPEAI@Z 00000001800512a0 f i GuSDF.obj
 0001:00050330       ?allocate@?$PxArray@MV?$PxReflectionAllocator@M@physx@@@physx@@IEAAPEAMIPEAI@Z 0000000180051330 f i GuSDF.obj
 0001:000503c0       ?allocate@?$PxArray@V?$PxVec3T@M@physx@@V?$PxReflectionAllocator@V?$PxVec3T@M@physx@@@2@@physx@@IEAAPEAV?$PxVec3T@M@2@IPEAI@Z 00000001800513c0 f i GuSDF.obj
 0001:00050460       ?allocateSdfs@SDF@Gu@physx@@QEAAPEAMAEBV?$PxVec3T@M@3@AEBMIIIIIIIMMI@Z 0000000180051460 f   GuSDF.obj
 0001:00050670       ?analyzeAndFixMesh@Gu@physx@@YAXPEBV?$PxVec3T@M@2@PEBIIAEAV?$PxArray@IV?$PxReflectionAllocator@I@physx@@@2@@Z 0000000180051670 f   GuSDF.obj
 0001:00050ec0       ?buildTree@Gu@physx@@YAXPEBIIPEBV?$PxVec3T@M@2@AEAV?$PxArray@UBVHNode@Gu@physx@@V?$PxReflectionAllocator@UBVHNode@Gu@physx@@@3@@2@M@Z 0000000180051ec0 f   GuSDF.obj
 0001:000510f0       ?computeIsosurfaceTrianglesThreadJob@Gu@physx@@YAPEAXPEAX@Z 00000001800520f0 f   GuSDF.obj
 0001:000514c0       ?computeIsosurfaceVerticesThreadJob@Gu@physx@@YAPEAXPEAX@Z 00000001800524c0 f   GuSDF.obj
 0001:00051980       ?computeSDFThreadJob@Gu@physx@@YAPEAXPEAX@Z 0000000180052980 f   GuSDF.obj
 0001:00052430       ?convertSparseSDFTo3DTextureLayout@Gu@physx@@YAXIIIIPEAIPEBMIAEAV?$PxArray@MV?$PxReflectionAllocator@M@physx@@@2@AEAI33@Z 0000000180053430 f   GuSDF.obj
 0001:000527b0       ?copy@?$PxArray@MV?$PxReflectionAllocator@M@physx@@@physx@@KAXPEAM0PEBM@Z 00000001800537b0 f i GuSDF.obj
 0001:00052810       ?copy@?$PxArray@V?$PxVec3T@M@physx@@V?$PxReflectionAllocator@V?$PxVec3T@M@physx@@@2@@physx@@KAXPEAV?$PxVec3T@M@2@0PEBV32@@Z 0000000180053810 f i GuSDF.obj
 0001:000528e0       ?create@?$PxHashBase@V?$PxPair@$$CBUSortedTriangle@Gu@physx@@H@physx@@USortedTriangle@Gu@2@UTriangleHash@42@UGetKey@?$PxHashMapBase@USortedTriangle@Gu@physx@@HUTriangleHash@23@VPxAllocator@3@@2@VPxAllocator@2@$00@physx@@QEAAPEAV?$PxPair@$$CBUSortedTriangle@Gu@physx@@H@2@AEBUSortedTriangle@Gu@2@AEA_N@Z 00000001800538e0 f i GuSDF.obj
 0001:00052a10       ?create@?$PxHashBase@V?$PxPair@$$CB_KH@physx@@_KU?$PxHash@_K@2@UGetKey@?$PxHashMapBase@_KHU?$PxHash@_K@physx@@VPxAllocator@2@@2@VPxAllocator@2@$00@physx@@QEAAPEAV?$PxPair@$$CB_KH@2@AEB_KAEA_N@Z 0000000180053a10 f i GuMeshAnalysis.obj
 0001:00052a10       ?create@?$PxHashBase@V?$PxPair@$$CB_KI@physx@@_KU?$PxHash@_K@2@UGetKey@?$PxHashMapBase@_KIU?$PxHash@_K@physx@@VPxAllocator@2@@2@VPxAllocator@2@$00@physx@@QEAAPEAV?$PxPair@$$CB_KI@2@AEB_KAEA_N@Z 0000000180053a10 f i GuSDF.obj
 0001:00052ba0       ?createTriangles@Gu@physx@@YAXHHHMQEAMAEBUCellToPoint@12@AEBV?$PxArray@V?$PxVec3T@M@physx@@V?$PxReflectionAllocator@V?$PxVec3T@M@physx@@@2@@2@AEAV?$PxArray@IV?$PxReflectionAllocator@I@physx@@@2@@Z 0000000180053ba0 f i GuSDF.obj
 0001:00053460       ?decodeDense@SDF@Gu@physx@@QEBAMHHH@Z 0000000180054460 f   GuSDF.obj
 0001:00053760       ?decodeSparse@SDF@Gu@physx@@QEBAMHHH@Z 0000000180054760 f   GuSDF.obj
 0001:00053770       ?exportExtraData@SDF@Gu@physx@@QEAAXAEAVPxSerializationContext@3@@Z 0000000180054770 f   GuSDF.obj
 0001:00053810       ?extractIsosurfaceFromSDF@Gu@physx@@YAXAEBVSDF@12@AEAV?$PxArray@V?$PxVec3T@M@physx@@V?$PxReflectionAllocator@V?$PxVec3T@M@physx@@@2@@2@AEAV?$PxArray@IV?$PxReflectionAllocator@I@physx@@@2@I@Z 0000000180054810 f   GuSDF.obj
 0001:00054110       ?extractIsosurfaceFromSDFSerial@Gu@physx@@YAXAEBVSDF@12@AEAV?$PxArray@V?$PxVec3T@M@physx@@V?$PxReflectionAllocator@V?$PxVec3T@M@physx@@@2@@2@AEAV?$PxArray@IV?$PxReflectionAllocator@I@physx@@@2@@Z 0000000180055110 f   GuSDF.obj
 0001:00054f40       ?find@CellToPoint@Gu@physx@@QEBAPEBV?$PxPair@$$CB_KI@3@HHH@Z 0000000180055f40 f i GuSDF.obj
 0001:00055050       ?fixSdfForNonClosedGeometry@Gu@physx@@YAXIIIPEAMAEBV?$PxVec3T@M@2@@Z 0000000180056050 f   GuSDF.obj
 0001:000560e0       ?generatePointInCell@Gu@physx@@YA_NAEBVSDF@12@HHHAEAV?$PxVec3T@M@2@QEAY111M@Z 00000001800570e0 f   GuSDF.obj
 0001:000564d0       ?growAndPushBack@?$PxArray@HV?$PxInlineAllocator@$0EAA@V?$PxReflectionAllocator@H@physx@@@physx@@@physx@@IEAAAEAHAEBH@Z 00000001800574d0 f i GuSDF.obj
 0001:000565c0       ?growAndPushBack@?$PxArray@MV?$PxReflectionAllocator@M@physx@@@physx@@IEAAAEAMAEBM@Z 00000001800575c0 f i GuSDF.obj
 0001:00056700       ?growAndPushBack@?$PxArray@PEAV?$PxThreadT@V?$PxReflectionAllocator@VPxThreadImpl@physx@@@physx@@@physx@@V?$PxReflectionAllocator@PEAV?$PxThreadT@V?$PxReflectionAllocator@VPxThreadImpl@physx@@@physx@@@physx@@@2@@physx@@IEAAAEAPEAV?$PxThreadT@V?$PxReflectionAllocator@VPxThreadImpl@physx@@@physx@@@2@AEBQEAV32@@Z 0000000180057700 f i GuSDF.obj
 0001:00056820       ?growAndPushBack@?$PxArray@UIsosurfaceThreadData@Gu@physx@@V?$PxReflectionAllocator@UIsosurfaceThreadData@Gu@physx@@@3@@physx@@IEAAAEAUIsosurfaceThreadData@Gu@2@AEBU342@@Z 0000000180057820 f i GuSDF.obj
 0001:000569f0       ?growAndPushBack@?$PxArray@UMutation@Gu@physx@@V?$PxReflectionAllocator@UMutation@Gu@physx@@@3@@physx@@IEAAAEAUMutation@Gu@2@AEBU342@@Z 00000001800579f0 f i GuSDF.obj
 0001:00056b10       ?growAndPushBack@?$PxArray@URange@Gu@physx@@V?$PxReflectionAllocator@URange@Gu@physx@@@3@@physx@@IEAAAEAURange@Gu@2@AEBU342@@Z 0000000180057b10 f i GuSDF.obj
 0001:00056c40       ?growAndPushBack@?$PxArray@URange@MeshAnalyzer@Gu@physx@@V?$PxReflectionAllocator@URange@MeshAnalyzer@Gu@physx@@@4@@physx@@IEAAAEAURange@MeshAnalyzer@Gu@2@AEBU3452@@Z 0000000180057c40 f i GuSDF.obj
 0001:00056d60       ?growAndPushBack@?$PxArray@USDFCalculationData@Gu@physx@@V?$PxReflectionAllocator@USDFCalculationData@Gu@physx@@@3@@physx@@IEAAAEAUSDFCalculationData@Gu@2@AEBU342@@Z 0000000180057d60 f i GuSDF.obj
 0001:00056ee0       ?growAndPushBack@?$PxArray@V?$PxVec3T@M@physx@@V?$PxReflectionAllocator@V?$PxVec3T@M@physx@@@2@@physx@@IEAAAEAV?$PxVec3T@M@2@AEBV32@@Z 0000000180057ee0 f i GuSDF.obj
 0001:00057000       ?importExtraData@SDF@Gu@physx@@QEAAXAEAVPxDeserializationContext@3@@Z 0000000180058000 f   GuSDF.obj
 0001:00057070       ?populateSubgridCache@Gu@physx@@YAXAEBVSDF@12@AEAV?$PxArray@MV?$PxReflectionAllocator@M@physx@@@2@HHH@Z 0000000180058070 f i GuSDF.obj
 0001:00057410       ?projectPoint@PointOntoTriangleMeshProjector@Gu@physx@@UEAA?AV?$PxVec3T@M@3@AEBV43@@Z 0000000180058410 f i GuSDF.obj
 0001:00057480       ?projectPoint@PointOntoTriangleMeshProjector@Gu@physx@@UEAA?AV?$PxVec3T@M@3@AEBV43@AEAI@Z 0000000180058480 f i GuSDF.obj
 0001:00057500       ?recreate@?$PxArray@HV?$PxReflectionAllocator@H@physx@@@physx@@IEAAXI@Z 0000000180058500 f i GuSDF.obj
 0001:000575f0       ?recreate@?$PxArray@MV?$PxReflectionAllocator@M@physx@@@physx@@IEAAXI@Z 00000001800585f0 f i GuSDF.obj
 0001:00057720       ?recreate@?$PxArray@PEAUMap@Gu@physx@@V?$PxReflectionAllocator@PEAUMap@Gu@physx@@@3@@physx@@IEAAXI@Z 0000000180058720 f i GuSDF.obj
 0001:00057810       ?recreate@?$PxArray@UBVHNode@Gu@physx@@V?$PxReflectionAllocator@UBVHNode@Gu@physx@@@3@@physx@@IEAAXI@Z 0000000180058810 f i GuSDF.obj
 0001:00057a50       ?recreate@?$PxArray@V?$PxVec3T@M@physx@@V?$PxReflectionAllocator@V?$PxVec3T@M@physx@@@2@@physx@@IEAAXI@Z 0000000180058a50 f i GuSDF.obj
 0001:00057b30       ?release@PointOntoTriangleMeshProjector@Gu@physx@@UEAAXXZ 0000000180058b30 f i GuSDF.obj
 0001:00057b80       ?reserveInternal@?$PxHashBase@V?$PxPair@$$CBIU?$ClusterApproximationT@MV?$PxVec3T@M@physx@@@Gu@physx@@@physx@@IU?$PxHash@I@2@UGetKey@?$PxHashMapBase@IU?$ClusterApproximationT@MV?$PxVec3T@M@physx@@@Gu@physx@@U?$PxHash@I@3@VPxAllocator@3@@2@VPxAllocator@2@$00@physx@@AEAAXI@Z 0000000180058b80 f i GuSDF.obj
 0001:00057d80       ?reserveInternal@?$PxHashBase@V?$PxPair@$$CBUSortedTriangle@Gu@physx@@H@physx@@USortedTriangle@Gu@2@UTriangleHash@42@UGetKey@?$PxHashMapBase@USortedTriangle@Gu@physx@@HUTriangleHash@23@VPxAllocator@3@@2@VPxAllocator@2@$00@physx@@AEAAXI@Z 0000000180058d80 f i GuSDF.obj
 0001:00057f20       ?reserveInternal@?$PxHashBase@V?$PxPair@$$CB_KH@physx@@_KU?$PxHash@_K@2@UGetKey@?$PxHashMapBase@_KHU?$PxHash@_K@physx@@VPxAllocator@2@@2@VPxAllocator@2@$00@physx@@AEAAXI@Z 0000000180058f20 f i GuSDF.obj
 0001:00057f20       ?reserveInternal@?$PxHashBase@V?$PxPair@$$CB_KI@physx@@_KU?$PxHash@_K@2@UGetKey@?$PxHashMapBase@_KIU?$PxHash@_K@physx@@VPxAllocator@2@@2@VPxAllocator@2@$00@physx@@AEAAXI@Z 0000000180058f20 f i GuSDF.obj
 0001:00058100       ?resize@?$PxArray@IV?$PxReflectionAllocator@I@physx@@@physx@@QEAAXIAEBI@Z 0000000180059100 f i GuSDF.obj
 0001:000581c0       ?resize@?$PxArray@MV?$PxReflectionAllocator@M@physx@@@physx@@QEAAXIAEBM@Z 00000001800591c0 f i GuSDF.obj
 0001:000582c0       ?resize@?$PxArray@PEAUMap@Gu@physx@@V?$PxReflectionAllocator@PEAUMap@Gu@physx@@@3@@physx@@QEAAXIAEBQEAUMap@Gu@2@@Z 00000001800592c0 f i GuSDF.obj
 0001:00058380       ?resize@?$PxArray@UBVHNode@Gu@physx@@V?$PxReflectionAllocator@UBVHNode@Gu@physx@@@3@@physx@@QEAAXIAEBUBVHNode@Gu@2@@Z 0000000180059380 f i GuSDF.obj
 0001:00058510       ?sampleSDFDirect@DenseSDF@Gu@physx@@QEAAMAEBV?$PxVec3T@M@3@@Z 0000000180059510 f i GuSDF.obj
 0001:000586b0       ?signedVolume@Gu@physx@@YAMPEBV?$PxVec3T@M@2@PEBII1I@Z 00000001800596b0 f   GuSDF.obj
 0001:00058bf0       ?windingNumbers@Gu@physx@@YAXPEBV?$PxVec3T@M@2@PEBIIIIIPEAMV32@3PEAV32@@Z 0000000180059bf0 f   GuSDF.obj
 0001:00059040       ?windingNumbersInsideCheck@Gu@physx@@YAXPEBV?$PxVec3T@M@2@PEBIIIIIPEA_NV32@3PEAV32@@Z 000000018005a040 f   GuSDF.obj
 0001:00059a00       ??$gjk@U?$RelativeConvex@UCustomConvexV@@@Gu@physx@@U?$LocalConvex@UCustomConvexV@@@23@@Gu@physx@@YA?AW4GjkStatus@01@AEBU?$RelativeConvex@UCustomConvexV@@@01@AEBU?$LocalConvex@UCustomConvexV@@@01@AEBT__m128@@2AEAT5@333@Z 000000018005aa00 f i GuGjkQuery.obj
 0001:0005a790       ??$gjkPenetration@U?$RelativeConvex@UCustomConvexV@@@Gu@physx@@U?$LocalConvex@UCustomConvexV@@@23@@Gu@physx@@YA?AW4GjkStatus@01@AEBU?$RelativeConvex@UCustomConvexV@@@01@AEBU?$LocalConvex@UCustomConvexV@@@01@AEBT__m128@@2_NPEIAE4PEIAT5@5AEAEAEAUGjkOutput@01@@Z 000000018005b790 f i GuGjkQuery.obj
 0001:0005bd20       ??$gjkPenetration@U?$RelativeConvex@UCustomConvexV@@@Gu@physx@@U?$LocalConvex@UCustomConvexV@@@23@@Gu@physx@@YA?AW4GjkStatus@01@AEBU?$RelativeConvex@UCustomConvexV@@@01@AEBU?$LocalConvex@UCustomConvexV@@@01@AEBT__m128@@2_NPEIAT5@4AEAEAEAUGjkOutput@01@@Z 000000018005cd20 f i GuGjkQuery.obj
 0001:0005bd80       ??$gjkRaycast@U?$RelativeConvex@UCustomConvexV@@@Gu@physx@@U?$LocalConvex@UCustomConvexV@@@23@@Gu@physx@@YA_NAEBU?$RelativeConvex@UCustomConvexV@@@01@AEBU?$LocalConvex@UCustomConvexV@@@01@AEBT__m128@@222AEAT4@33M@Z 000000018005cd80 f i GuGjkQuery.obj
 0001:0005caf0       ??$gjkRaycast@U?$RelativeConvex@UCustomConvexV@@@Gu@physx@@U?$LocalConvex@UPointConvexV@@@23@@Gu@physx@@YA_NAEBU?$RelativeConvex@UCustomConvexV@@@01@AEBU?$LocalConvex@UPointConvexV@@@01@AEBT__m128@@222AEAT4@33M@Z 000000018005daf0 f i GuGjkQuery.obj
 0001:0005d750       ?overlap@PxGjkQuery@physx@@SA_NAEBUSupport@12@0AEBV?$PxTransformT@M@2@1@Z 000000018005e750 f   GuGjkQuery.obj
 0001:0005dae0       ?proximityInfo@PxGjkQuery@physx@@SA_NAEBUSupport@12@0AEBV?$PxTransformT@M@2@1MMAEAV?$PxVec3T@M@2@22AEAM@Z 000000018005eae0 f   GuGjkQuery.obj
 0001:0005e8a0       ?raycast@PxGjkQuery@physx@@SA_NAEBUSupport@12@AEBV?$PxTransformT@M@2@AEBV?$PxVec3T@M@2@2MAEAMAEAV52@4@Z 000000018005f8a0 f   GuGjkQuery.obj
 0001:0005ed90       ?support@?$LocalConvex@UCustomConvexV@@@Gu@physx@@UEBA?AT__m128@@AEBT4@@Z 000000018005fd90 f i GuGjkQuery.obj
 0001:0005ee10       ?support@?$LocalConvex@UCustomConvexV@@@Gu@physx@@UEBA?AT__m128@@AEBT4@AEAH@Z 000000018005fe10 f i GuGjkQuery.obj
 0001:0005ee90       ?support@?$LocalConvex@UPointConvexV@@@Gu@physx@@UEBA?AT__m128@@AEBT4@@Z 000000018005fe90 f i GuGjkQuery.obj
 0001:0005ee90       ?supportPoint@?$LocalConvex@UPointConvexV@@@Gu@physx@@UEBA?AT__m128@@H@Z 000000018005fe90 f i GuGjkQuery.obj
 0001:0005eea0       ?support@?$LocalConvex@UPointConvexV@@@Gu@physx@@UEBA?AT__m128@@AEBT4@AEAH@Z 000000018005fea0 f i GuGjkQuery.obj
 0001:0005eec0       ?support@?$RelativeConvex@UCustomConvexV@@@Gu@physx@@UEBA?AT__m128@@AEBT4@@Z 000000018005fec0 f i GuGjkQuery.obj
 0001:0005ef90       ?support@?$RelativeConvex@UCustomConvexV@@@Gu@physx@@UEBA?AT__m128@@AEBT4@AEAH@Z 000000018005ff90 f i GuGjkQuery.obj
 0001:0005f070       ?supportPoint@?$LocalConvex@UCustomConvexV@@@Gu@physx@@UEBA?AT__m128@@H@Z 0000000180060070 f i GuGjkQuery.obj
 0001:0005f0e0       ?supportPoint@?$RelativeConvex@UCustomConvexV@@@Gu@physx@@UEBA?AT__m128@@H@Z 00000001800600e0 f i GuGjkQuery.obj
 0001:0005f180       ?sweep@PxGjkQuery@physx@@SA_NAEBUSupport@12@0AEBV?$PxTransformT@M@2@1AEBV?$PxVec3T@M@2@MAEAMAEAV52@4@Z 0000000180060180 f   GuGjkQuery.obj
 0001:0005f940       ??$approximateCluster@MV?$PxVec3T@M@physx@@@Gu@physx@@YAXAEBV?$PxArray@HV?$PxReflectionAllocator@H@physx@@@1@IIPEBIPEBV?$PxVec3T@M@1@AEBV?$PxArray@MV?$PxReflectionAllocator@M@physx@@@1@AEBV?$PxArray@V?$PxVec3T@M@physx@@V?$PxReflectionAllocator@V?$PxVec3T@M@physx@@@2@@1@4AEAU?$ClusterApproximationT@MV?$PxVec3T@M@physx@@@01@@Z 0000000180060940 f i GuWindingNumber.obj
 0001:0005ff80       ??$precomputeClusterInformation@MV?$PxVec3T@M@physx@@@Gu@physx@@YAXHPEBUBVHNode@01@PEBIIPEBV?$PxVec3T@M@1@AEAV?$PxHashMap@IU?$ClusterApproximationT@MV?$PxVec3T@M@physx@@@Gu@physx@@U?$PxHash@I@3@VPxAllocator@3@@1@V?$PxArray@MV?$PxReflectionAllocator@M@physx@@@1@AEBV?$PxArray@V?$PxVec3T@M@physx@@V?$PxReflectionAllocator@V?$PxVec3T@M@physx@@@2@@1@5@Z 0000000180060f80 f i GuWindingNumber.obj
 0001:00060350       ??$precomputeClusterInformation@MV?$PxVec3T@M@physx@@@Gu@physx@@YAXPEBUBVHNode@01@PEBIIPEBV?$PxVec3T@M@1@AEAV?$PxHashMap@IU?$ClusterApproximationT@MV?$PxVec3T@M@physx@@@Gu@physx@@U?$PxHash@I@3@VPxAllocator@3@@1@H@Z 0000000180061350 f i GuWindingNumber.obj
 0001:00060760       ??$traverseBVH@V?$WindingNumberTraversalController@MV?$PxVec3T@M@physx@@@Gu@physx@@@Gu@physx@@YAXPEBUBVHNode@01@AEAV?$WindingNumberTraversalController@MV?$PxVec3T@M@physx@@@01@H@Z 0000000180061760 f i GuWindingNumber.obj
 0001:00060cb0       ?computeWindingNumber@Gu@physx@@YAMAEBV?$PxVec3T@M@2@PEBIIPEBV32@@Z 0000000180061cb0 f   GuWindingNumber.obj
 0001:00060fe0       ?computeWindingNumber@Gu@physx@@YAMPEBUBVHNode@12@AEBV?$PxVec3T@M@2@AEBV?$PxHashMap@IU?$ClusterApproximationT@MV?$PxVec3T@M@physx@@@Gu@physx@@U?$PxHash@I@3@VPxAllocator@3@@2@PEBIPEBV42@@Z 0000000180061fe0 f   GuWindingNumber.obj
 0001:00061050       ?computeWindingNumber@Gu@physx@@YAMPEBUBVHNode@12@AEBV?$PxVec3T@M@2@MAEBV?$PxHashMap@IU?$ClusterApproximationT@MV?$PxVec3T@M@physx@@@Gu@physx@@U?$PxHash@I@3@VPxAllocator@3@@2@PEBIPEBV42@@Z 0000000180062050 f   GuWindingNumber.obj
 0001:000610c0       ?create@?$PxHashBase@V?$PxPair@$$CBIU?$ClusterApproximationT@MV?$PxVec3T@M@physx@@@Gu@physx@@@physx@@IU?$PxHash@I@2@UGetKey@?$PxHashMapBase@IU?$ClusterApproximationT@MV?$PxVec3T@M@physx@@@Gu@physx@@U?$PxHash@I@3@VPxAllocator@3@@2@VPxAllocator@2@$00@physx@@QEAAPEAV?$PxPair@$$CBIU?$ClusterApproximationT@MV?$PxVec3T@M@physx@@@Gu@physx@@@2@AEBIAEA_N@Z 00000001800620c0 f i GuWindingNumber.obj
 0001:00061210       ?growAndPushBack@?$PxArray@HV?$PxReflectionAllocator@H@physx@@@physx@@IEAAAEAHAEBH@Z 0000000180062210 f i GuWindingNumber.obj
 0001:00061330       ?growAndPushBack@?$PxArray@USection@Gu@physx@@V?$PxReflectionAllocator@USection@Gu@physx@@@3@@physx@@IEAAAEAUSection@Gu@2@AEBU342@@Z 0000000180062330 f i GuWindingNumber.obj
 0001:00061450       ?precomputeClusterInformation@Gu@physx@@YAXPEBUBVHNode@12@PEBIIPEBV?$PxVec3T@M@2@AEAV?$PxHashMap@IU?$ClusterApproximationT@MV?$PxVec3T@M@physx@@@Gu@physx@@U?$PxHash@I@3@VPxAllocator@3@@2@H@Z 0000000180062450 f   GuWindingNumber.obj
 0001:00061460       ?resize@?$PxArray@V?$PxVec3T@M@physx@@V?$PxReflectionAllocator@V?$PxVec3T@M@physx@@@2@@physx@@QEAAXIAEBV?$PxVec3T@M@2@@Z 0000000180062460 f i GuWindingNumber.obj
 0001:00061550       ?computeMassInfo@Gu@physx@@YAXAEBVPxConvexCoreGeometry@2@AEAMAEAV?$PxMat33T@M@2@AEAV?$PxVec3T@M@2@@Z 0000000180062550 f   GuConvexGeometry.obj
 0001:00061f60       ?coneRadiusAtHeight@aux@@YAMMMMM@Z 0000000180062f60 f   GuConvexGeometry.obj
 0001:00064610       ?isGPUCompatible@Gu@physx@@YA_NAEBVPxConvexCoreGeometry@2@@Z 0000000180065610 f   GuConvexGeometry.obj
 0001:00064650       ?isValid@PxConvexCoreGeometry@physx@@QEBA_NXZ 0000000180065650 f   GuConvexGeometry.obj
 0001:00064720       ?makeConvexShape@Gu@physx@@YA_NAEBVPxGeometry@2@AEBV?$PxTransformT@M@2@AEAUConvexShape@12@@Z 0000000180065720 f   GuConvexGeometry.obj
 0001:000648b0       ?visualize@Gu@physx@@YAXAEBVPxConvexCoreGeometry@2@AEBV?$PxTransformT@M@2@_NAEBVPxBounds3@2@AEAVPxRenderOutput@2@@Z 00000001800658b0 f   GuConvexGeometry.obj
 0001:00064e80       ?SweepAnyShapeHeightfield@Gu@physx@@YAMAEBUCCDShape@12@0AEBUPxTransformPadded@2@111MAEAV?$PxVec3T@M@2@2MAEAIM@Z 0000000180065e80 f   GuCCDSweepConvexMesh.obj
 0001:00066430       ?SweepAnyShapeMesh@Gu@physx@@YAMAEBUCCDShape@12@0AEBUPxTransformPadded@2@111MAEAV?$PxVec3T@M@2@2MAEAIM@Z 0000000180067430 f   GuCCDSweepConvexMesh.obj
 0001:000679f0       ?SweepEstimateAnyShapeHeightfield@Gu@physx@@YAMAEBUCCDShape@12@0MM@Z 00000001800689f0 f   GuCCDSweepConvexMesh.obj
 0001:00068670       ?SweepEstimateAnyShapeMesh@Gu@physx@@YAMAEBUCCDShape@12@0MM@Z 0000000180069670 f   GuCCDSweepConvexMesh.obj
 0001:00068910       ?allocate@?$PxArray@IV?$PxInlineAllocator@$0BAA@V?$PxReflectionAllocator@I@physx@@@physx@@@physx@@IEAAPEAIIPEAI@Z 0000000180069910 f i GuCCDSweepConvexMesh.obj
 0001:000693f0       ?growAndPushBack@?$PxArray@IV?$PxInlineAllocator@$0BAA@V?$PxReflectionAllocator@I@physx@@@physx@@@physx@@IEAAAEAIAEBI@Z 000000018006a3f0 f i GuCCDSweepConvexMesh.obj
 0001:00069a30       ?recreate@?$PxArray@IV?$PxInlineAllocator@$0BAA@V?$PxReflectionAllocator@I@physx@@@physx@@@physx@@IEAAXI@Z 000000018006aa30 f i GuCCDSweepConvexMesh.obj
 0001:00069b70       ?resize@?$PxArray@IV?$PxInlineAllocator@$0BAA@V?$PxReflectionAllocator@I@physx@@@physx@@@physx@@QEAAXIAEBI@Z 000000018006ab70 f i GuCCDSweepConvexMesh.obj
 0001:00069c40       ?transformBoxOrthonormal@physx@@YA?AVBox@Gu@1@AEBV231@AEBV?$PxTransformT@M@1@@Z 000000018006ac40 f i GuCCDSweepConvexMesh.obj
 0001:0006a0d0       ?UnimplementedSweep@Gu@physx@@YAMAEBUCCDShape@12@0AEBUPxTransformPadded@2@111MAEAV?$PxVec3T@M@2@2MAEAIM@Z 000000018006b0d0 f   GuCCDSweepPrimitives.obj
 0001:0006ddd0       ?UnimplementedTriangleSweep@Gu@physx@@YAMAEBVPxGeometry@2@0AEBUPxTransformPadded@2@111MAEAV?$PxVec3T@M@2@2AEBVFastVertex2ShapeScaling@Cm@2@AEAVTriangleV@12@M@Z 000000018006edd0 f   GuCCDSweepPrimitives.obj
 0001:0006dde0       ??$SweepGeomTriangles@VCapsuleV@Gu@physx@@@Gu@physx@@YAMAEBVPxGeometry@1@0AEBUPxTransformPadded@1@111MAEAV?$PxVec3T@M@1@2AEBVFastVertex2ShapeScaling@Cm@1@AEAVTriangleV@01@M@Z 000000018006ede0 f i GuCCDSweepPrimitives.obj
 0001:0006e510       ??$SweepGeomTriangles@VBoxV@Gu@physx@@@Gu@physx@@YAMAEBVPxGeometry@1@0AEBUPxTransformPadded@1@111MAEAV?$PxVec3T@M@1@2AEBVFastVertex2ShapeScaling@Cm@1@AEAVTriangleV@01@M@Z 000000018006f510 f i GuCCDSweepPrimitives.obj
 0001:0006ec60       ??$SweepGeomTriangles@VConvexHullV@Gu@physx@@@Gu@physx@@YAMAEBVPxGeometry@1@0AEBUPxTransformPadded@1@111MAEAV?$PxVec3T@M@1@2AEBVFastVertex2ShapeScaling@Cm@1@AEAVTriangleV@01@M@Z 000000018006fc60 f i GuCCDSweepPrimitives.obj
 0001:0006f740       ?supportPoint@?$RelativeConvex@VCapsuleV@Gu@physx@@@Gu@physx@@UEBA?AT__m128@@H@Z 0000000180070740 f i GuCCDSweepPrimitives.obj
 0001:0006f7a0       ?support@?$RelativeConvex@VCapsuleV@Gu@physx@@@Gu@physx@@UEBA?AT__m128@@AEBT4@@Z 00000001800707a0 f i GuCCDSweepPrimitives.obj
 0001:0006f850       ?support@?$RelativeConvex@VCapsuleV@Gu@physx@@@Gu@physx@@UEBA?AT__m128@@AEBT4@AEAH@Z 0000000180070850 f i GuCCDSweepPrimitives.obj
 0001:0006f910       ?supportPoint@?$RelativeConvex@VTriangleV@Gu@physx@@@Gu@physx@@UEBA?AT__m128@@H@Z 0000000180070910 f i GuCCDSweepPrimitives.obj
 0001:0006f960       ?support@?$RelativeConvex@VTriangleV@Gu@physx@@@Gu@physx@@UEBA?AT__m128@@AEBT4@@Z 0000000180070960 f i GuCCDSweepPrimitives.obj
 0001:0006fa60       ?support@?$RelativeConvex@VTriangleV@Gu@physx@@@Gu@physx@@UEBA?AT__m128@@AEBT4@AEAH@Z 0000000180070a60 f i GuCCDSweepPrimitives.obj
 0001:0006fba0       ??$gjkPenetration@U?$RelativeConvex@VCapsuleV@Gu@physx@@@Gu@physx@@U?$LocalConvex@VBoxV@Gu@physx@@@23@@Gu@physx@@YA?AW4GjkStatus@01@AEBU?$RelativeConvex@VCapsuleV@Gu@physx@@@01@AEBU?$LocalConvex@VBoxV@Gu@physx@@@01@AEBT__m128@@2_NPEIAE4AEAEAEAUGjkOutput@01@@Z 0000000180070ba0 f i GuCCDSweepPrimitives.obj
 0001:0006fc10       ??$gjkPenetration@U?$RelativeConvex@VCapsuleV@Gu@physx@@@Gu@physx@@U?$LocalConvex@VBoxV@Gu@physx@@@23@@Gu@physx@@YA?AW4GjkStatus@01@AEBU?$RelativeConvex@VCapsuleV@Gu@physx@@@01@AEBU?$LocalConvex@VBoxV@Gu@physx@@@01@AEBT__m128@@2_NPEIAE4PEIAT5@5AEAEAEAUGjkOutput@01@@Z 0000000180070c10 f i GuCCDSweepPrimitives.obj
 0001:00071100       ??$gjkPenetration@U?$RelativeConvex@VCapsuleV@Gu@physx@@@Gu@physx@@U?$LocalConvex@VCapsuleV@Gu@physx@@@23@@Gu@physx@@YA?AW4GjkStatus@01@AEBU?$RelativeConvex@VCapsuleV@Gu@physx@@@01@AEBU?$LocalConvex@VCapsuleV@Gu@physx@@@01@AEBT__m128@@2_NPEIAE4AEAEAEAUGjkOutput@01@@Z 0000000180072100 f i GuCCDSweepPrimitives.obj
 0001:00071170       ??$gjkPenetration@U?$RelativeConvex@VCapsuleV@Gu@physx@@@Gu@physx@@U?$LocalConvex@VCapsuleV@Gu@physx@@@23@@Gu@physx@@YA?AW4GjkStatus@01@AEBU?$RelativeConvex@VCapsuleV@Gu@physx@@@01@AEBU?$LocalConvex@VCapsuleV@Gu@physx@@@01@AEBT__m128@@2_NPEIAE4PEIAT5@5AEAEAEAUGjkOutput@01@@Z 0000000180072170 f i GuCCDSweepPrimitives.obj
 0001:00072680       ??$gjkPenetration@U?$RelativeConvex@VCapsuleV@Gu@physx@@@Gu@physx@@U?$LocalConvex@VConvexHullV@Gu@physx@@@23@@Gu@physx@@YA?AW4GjkStatus@01@AEBU?$RelativeConvex@VCapsuleV@Gu@physx@@@01@AEBU?$LocalConvex@VConvexHullV@Gu@physx@@@01@AEBT__m128@@2_NPEIAE4AEAEAEAUGjkOutput@01@@Z 0000000180073680 f i GuCCDSweepPrimitives.obj
 0001:000726f0       ??$gjkPenetration@U?$RelativeConvex@VCapsuleV@Gu@physx@@@Gu@physx@@U?$LocalConvex@VConvexHullV@Gu@physx@@@23@@Gu@physx@@YA?AW4GjkStatus@01@AEBU?$RelativeConvex@VCapsuleV@Gu@physx@@@01@AEBU?$LocalConvex@VConvexHullV@Gu@physx@@@01@AEBT__m128@@2_NPEIAE4PEIAT5@5AEAEAEAUGjkOutput@01@@Z 00000001800736f0 f i GuCCDSweepPrimitives.obj
 0001:00073c70       ??$gjkPenetration@U?$RelativeConvex@VTriangleV@Gu@physx@@@Gu@physx@@U?$LocalConvex@VBoxV@Gu@physx@@@23@@Gu@physx@@YA?AW4GjkStatus@01@AEBU?$RelativeConvex@VTriangleV@Gu@physx@@@01@AEBU?$LocalConvex@VBoxV@Gu@physx@@@01@AEBT__m128@@2_NPEIAE4AEAEAEAUGjkOutput@01@@Z 0000000180074c70 f i GuCCDSweepPrimitives.obj
 0001:00073ce0       ??$gjkPenetration@U?$RelativeConvex@VTriangleV@Gu@physx@@@Gu@physx@@U?$LocalConvex@VBoxV@Gu@physx@@@23@@Gu@physx@@YA?AW4GjkStatus@01@AEBU?$RelativeConvex@VTriangleV@Gu@physx@@@01@AEBU?$LocalConvex@VBoxV@Gu@physx@@@01@AEBT__m128@@2_NPEIAE4PEIAT5@5AEAEAEAUGjkOutput@01@@Z 0000000180074ce0 f i GuCCDSweepPrimitives.obj
 0001:00075240       ??$gjkPenetration@U?$RelativeConvex@VTriangleV@Gu@physx@@@Gu@physx@@U?$LocalConvex@VCapsuleV@Gu@physx@@@23@@Gu@physx@@YA?AW4GjkStatus@01@AEBU?$RelativeConvex@VTriangleV@Gu@physx@@@01@AEBU?$LocalConvex@VCapsuleV@Gu@physx@@@01@AEBT__m128@@2_NPEIAE4AEAEAEAUGjkOutput@01@@Z 0000000180076240 f i GuCCDSweepPrimitives.obj
 0001:000752b0       ??$gjkPenetration@U?$RelativeConvex@VTriangleV@Gu@physx@@@Gu@physx@@U?$LocalConvex@VCapsuleV@Gu@physx@@@23@@Gu@physx@@YA?AW4GjkStatus@01@AEBU?$RelativeConvex@VTriangleV@Gu@physx@@@01@AEBU?$LocalConvex@VCapsuleV@Gu@physx@@@01@AEBT__m128@@2_NPEIAE4PEIAT5@5AEAEAEAUGjkOutput@01@@Z 00000001800762b0 f i GuCCDSweepPrimitives.obj
 0001:00076820       ??$gjkPenetration@U?$RelativeConvex@VTriangleV@Gu@physx@@@Gu@physx@@U?$LocalConvex@VConvexHullV@Gu@physx@@@23@@Gu@physx@@YA?AW4GjkStatus@01@AEBU?$RelativeConvex@VTriangleV@Gu@physx@@@01@AEBU?$LocalConvex@VConvexHullV@Gu@physx@@@01@AEBT__m128@@2_NPEIAE4AEAEAEAUGjkOutput@01@@Z 0000000180077820 f i GuCCDSweepPrimitives.obj
 0001:00076890       ??$gjkPenetration@U?$RelativeConvex@VTriangleV@Gu@physx@@@Gu@physx@@U?$LocalConvex@VConvexHullV@Gu@physx@@@23@@Gu@physx@@YA?AW4GjkStatus@01@AEBU?$RelativeConvex@VTriangleV@Gu@physx@@@01@AEBU?$LocalConvex@VConvexHullV@Gu@physx@@@01@AEBT__m128@@2_NPEIAE4PEIAT5@5AEAEAEAUGjkOutput@01@@Z 0000000180077890 f i GuCCDSweepPrimitives.obj
 0001:00077e70       ??$gjkRaycast@U?$RelativeConvex@VCapsuleV@Gu@physx@@@Gu@physx@@U?$LocalConvex@VBoxV@Gu@physx@@@23@@Gu@physx@@YA_NAEBU?$RelativeConvex@VCapsuleV@Gu@physx@@@01@AEBU?$LocalConvex@VBoxV@Gu@physx@@@01@AEBT__m128@@222AEAT4@33M@Z 0000000180078e70 f i GuCCDSweepPrimitives.obj
 0001:00078b10       ??$gjkRaycast@U?$RelativeConvex@VCapsuleV@Gu@physx@@@Gu@physx@@U?$LocalConvex@VCapsuleV@Gu@physx@@@23@@Gu@physx@@YA_NAEBU?$RelativeConvex@VCapsuleV@Gu@physx@@@01@AEBU?$LocalConvex@VCapsuleV@Gu@physx@@@01@AEBT__m128@@222AEAT4@33M@Z 0000000180079b10 f i GuCCDSweepPrimitives.obj
 0001:00079810       ??$gjkRaycast@U?$RelativeConvex@VCapsuleV@Gu@physx@@@Gu@physx@@U?$LocalConvex@VConvexHullV@Gu@physx@@@23@@Gu@physx@@YA_NAEBU?$RelativeConvex@VCapsuleV@Gu@physx@@@01@AEBU?$LocalConvex@VConvexHullV@Gu@physx@@@01@AEBT__m128@@222AEAT4@33M@Z 000000018007a810 f i GuCCDSweepPrimitives.obj
 0001:0007a630       ??$gjkRaycast@U?$RelativeConvex@VTriangleV@Gu@physx@@@Gu@physx@@U?$LocalConvex@VBoxV@Gu@physx@@@23@@Gu@physx@@YA_NAEBU?$RelativeConvex@VTriangleV@Gu@physx@@@01@AEBU?$LocalConvex@VBoxV@Gu@physx@@@01@AEBT__m128@@222AEAT4@33M@Z 000000018007b630 f i GuCCDSweepPrimitives.obj
 0001:0007b340       ??$gjkRaycast@U?$RelativeConvex@VTriangleV@Gu@physx@@@Gu@physx@@U?$LocalConvex@VCapsuleV@Gu@physx@@@23@@Gu@physx@@YA_NAEBU?$RelativeConvex@VTriangleV@Gu@physx@@@01@AEBU?$LocalConvex@VCapsuleV@Gu@physx@@@01@AEBT__m128@@222AEAT4@33M@Z 000000018007c340 f i GuCCDSweepPrimitives.obj
 0001:0007c0e0       ??$gjkRaycast@U?$RelativeConvex@VTriangleV@Gu@physx@@@Gu@physx@@U?$LocalConvex@VConvexHullV@Gu@physx@@@23@@Gu@physx@@YA_NAEBU?$RelativeConvex@VTriangleV@Gu@physx@@@01@AEBU?$LocalConvex@VConvexHullV@Gu@physx@@@01@AEBT__m128@@222AEAT4@33M@Z 000000018007d0e0 f i GuCCDSweepPrimitives.obj
 0001:0007cf90       ?SweepShapeShape@Gu@physx@@YAMAEBUCCDShape@12@0AEBUPxTransformPadded@2@111MAEAV?$PxVec3T@M@2@2MAEAIM@Z 000000018007df90 f   GuCCDSweepPrimitives.obj
 0001:0007cfb0       ?SweepShapeTriangle@Gu@physx@@YAMAEBVPxGeometry@2@0AEBUPxTransformPadded@2@111MAEAV?$PxVec3T@M@2@2AEBVFastVertex2ShapeScaling@Cm@2@AEAVTriangleV@12@M@Z 000000018007dfb0 f   GuCCDSweepPrimitives.obj
 0001:0007cfd0       ?barycentricCoordinates@Gu@physx@@YAXAEBT__m128@@000AEAT3@1@Z 000000018007dfd0 f   GuBarycentricCoordinates.obj
 0001:0007d110       ?barycentricCoordinates@Gu@physx@@YAXAEBT__m128@@00AEAT3@@Z 000000018007e110 f   GuBarycentricCoordinates.obj
 0001:0007d180       ??$?_UV?$PxReflectionAllocator@VAdjTriangle@Gu@physx@@@physx@@@PxUserAllocated@physx@@SAPEAX_KV?$PxReflectionAllocator@VAdjTriangle@Gu@physx@@@1@PEBDH@Z 000000018007e180 f i GuAdjacencies.obj
 0001:0007d260       ??0AdjacenciesBuilder@Gu@physx@@QEAA@XZ 000000018007e260 f   GuAdjacencies.obj
 0001:0007d270       ??1AdjacenciesBuilder@Gu@physx@@QEAA@XZ 000000018007e270 f   GuAdjacencies.obj
 0001:0007d3c0       ?ComputeNbBoundaryEdges@Adjacencies@Gu@physx@@QEBAIXZ 000000018007e3c0 f   GuAdjacencies.obj
 0001:0007d650       ?Init@AdjacenciesBuilder@Gu@physx@@QEAA_NAEBUADJACENCIESCREATE@23@@Z 000000018007e650 f   GuAdjacencies.obj
 0001:0007dbb0       ??0EdgeList@Gu@physx@@QEAA@XZ 000000018007ebb0 f   GuEdgeList.obj
 0001:0007dbd0       ??1EdgeList@Gu@physx@@QEAA@XZ 000000018007ebd0 f   GuEdgeList.obj
 0001:0007dc80       ?computeActiveEdges@EdgeList@Gu@physx@@AEAA_NIPEBIPEBGPEBV?$PxVec3T@M@3@M@Z 000000018007ec80 f   GuEdgeList.obj
 0001:0007efe0       ?createEdgesToFaces@EdgeList@Gu@physx@@AEAA_NIPEBIPEBG@Z 000000018007ffe0 f   GuEdgeList.obj
 0001:0007f240       ?createFacesToEdges@EdgeList@Gu@physx@@AEAA_NIPEBIPEBG@Z 0000000180080240 f   GuEdgeList.obj
 0001:0007f6b0       ?init@EdgeList@Gu@physx@@QEAA_NAEBUEDGELISTCREATE@23@@Z 00000001800806b0 f   GuEdgeList.obj
 0001:0007f7e0       ?addAxis@SeparatingAxes@Gu@physx@@QEAA_NAEBV?$PxVec3T@M@3@@Z 00000001800807e0 f   GuSeparatingAxes.obj
 0001:0007f8a0       ??$kmeans_cluster@V?$PxVec3T@M@physx@@M@@YAIPEBV?$PxVec3T@M@physx@@IIPEAV01@PEAIMM@Z 00000001800808a0 f i GuQuantizer.obj
 0001:00080230       ??_EQuantizer@Gu@physx@@MEAAPEAXI@Z 0000000180081230 f i GuQuantizer.obj
 0001:00080230       ??_GQuantizer@Gu@physx@@MEAAPEAXI@Z 0000000180081230 f i GuQuantizer.obj
 0001:00080260       ??_EQuantizerImpl@@EEAAPEAXI@Z 0000000180081260 f i GuQuantizer.obj
 0001:00080260       ??_GQuantizerImpl@@EEAAPEAXI@Z 0000000180081260 f i GuQuantizer.obj
 0001:00080330       ?createQuantizer@Gu@physx@@YAPEAVQuantizer@12@XZ 0000000180081330 f   GuQuantizer.obj
 0001:000803e0       ?getDenormalizeCenter@QuantizerImpl@@UEBAAEBV?$PxVec3T@M@physx@@XZ 00000001800813e0 f i GuQuantizer.obj
 0001:000803f0       ?getCurrentAABBTreeBounds@PruningPool@Gu@physx@@QEBAAEBVAABBTreeBounds@23@XZ 00000001800813f0 f i GuIncrementalAABBPrunerCore.obj
 0001:000803f0       ?getDenormalizeScale@QuantizerImpl@@UEBAAEBV?$PxVec3T@M@physx@@XZ 00000001800813f0 f i GuQuantizer.obj
 0001:00080400       ?kmeansQuantize3D@QuantizerImpl@@UEAAPEBV?$PxVec3T@M@physx@@IPEBV23@I_NIAEAI@Z 0000000180081400 f i GuQuantizer.obj
 0001:00080670       ?normalizeInput@QuantizerImpl@@AEAAXIPEBV?$PxVec3T@M@physx@@I@Z 0000000180081670 f i GuQuantizer.obj
 0001:00080ad0       ?release@QuantizerImpl@@UEAAXXZ 0000000180081ad0 f i GuQuantizer.obj
 0001:00080af0       ??0MeshCleaner@Gu@physx@@QEAA@IPEBV?$PxVec3T@M@2@IPEBIMM@Z 0000000180081af0 f   GuMeshCleaner.obj
 0001:00081520       ??1MeshCleaner@Gu@physx@@QEAA@XZ 0000000180082520 f   GuMeshCleaner.obj
 0001:000815b0       ??0ReducedVertexCloud@Gu@physx@@QEAA@PEBV?$PxVec3T@M@2@I@Z 00000001800825b0 f   GuVertexReducer.obj
 0001:000815d0       ??1ReducedVertexCloud@Gu@physx@@QEAA@XZ 00000001800825d0 f   GuVertexReducer.obj
 0001:000815e0       ?clean@ReducedVertexCloud@Gu@physx@@QEAAAEAV123@XZ 00000001800825e0 f   GuVertexReducer.obj
 0001:00081650       ?reduce@ReducedVertexCloud@Gu@physx@@QEAA_NPEAUREDUCEDCLOUD@23@@Z 0000000180082650 f   GuVertexReducer.obj
 0001:000818f0       ?buildConsistentTriangleOrientationMap@MeshAnalyzer@Gu@physx@@SA_NPEBU?$IndexedTriangleT@H@23@IAEAV?$PxArray@_NV?$PxReflectionAllocator@_N@physx@@@3@AEAV?$PxHashMap@_KHU?$PxHash@_K@physx@@VPxAllocator@2@@3@AEAV?$PxArray@V?$PxArray@IV?$PxReflectionAllocator@I@physx@@@physx@@V?$PxReflectionAllocator@V?$PxArray@IV?$PxReflectionAllocator@I@physx@@@physx@@@2@@3@@Z 00000001800828f0 f   GuMeshAnalysis.obj
 0001:00081e30       ?buildTriangleAdjacency@MeshAnalyzer@Gu@physx@@SA_NPEBU?$IndexedTriangleT@H@23@IAEAV?$PxArray@HV?$PxReflectionAllocator@H@physx@@@3@AEAV?$PxHashMap@_KHU?$PxHash@_K@physx@@VPxAllocator@2@@3@@Z 0000000180082e30 f   GuMeshAnalysis.obj
 0001:00082140       ?checkConsistentTriangleOrientation@MeshAnalyzer@Gu@physx@@SA_NPEBU?$IndexedTriangleT@H@23@I@Z 0000000180083140 f   GuMeshAnalysis.obj
 0001:00082290       ?checkMeshWatertightness@MeshAnalyzer@Gu@physx@@SA_NPEBU?$IndexedTriangleT@H@23@I_N@Z 0000000180083290 f   GuMeshAnalysis.obj
 0001:00082460       ?destroy@?$PxArray@V?$PxArray@IV?$PxReflectionAllocator@I@physx@@@physx@@V?$PxReflectionAllocator@V?$PxArray@IV?$PxReflectionAllocator@I@physx@@@physx@@@2@@physx@@KAXPEAV?$PxArray@IV?$PxReflectionAllocator@I@physx@@@2@0@Z 0000000180083460 f i GuMeshAnalysis.obj
 0001:000824d0       ?erase@?$PxHashBase@V?$PxPair@$$CB_KH@physx@@_KU?$PxHash@_K@2@UGetKey@?$PxHashMapBase@_KHU?$PxHash@_K@physx@@VPxAllocator@2@@2@VPxAllocator@2@$00@physx@@QEAA_NAEB_K@Z 00000001800834d0 f i GuMeshAnalysis.obj
 0001:00082680       ?growAndPushBack@?$PxArray@V?$PxArray@IV?$PxReflectionAllocator@I@physx@@@physx@@V?$PxReflectionAllocator@V?$PxArray@IV?$PxReflectionAllocator@I@physx@@@physx@@@2@@physx@@IEAAAEAV?$PxArray@IV?$PxReflectionAllocator@I@physx@@@2@AEBV32@@Z 0000000180083680 f i GuMeshAnalysis.obj
 0001:000827d0       ?makeTriOrientationConsistent@MeshAnalyzer@Gu@physx@@SA_NPEAU?$IndexedTriangleT@H@23@I_N@Z 00000001800837d0 f   GuMeshAnalysis.obj
 0001:00082940       ?recreate@?$PxArray@_NV?$PxReflectionAllocator@_N@physx@@@physx@@IEAAXI@Z 0000000180083940 f i GuMeshAnalysis.obj
 0001:00082a30       ?resize@?$PxArray@HV?$PxReflectionAllocator@H@physx@@@physx@@QEAAXIAEBH@Z 0000000180083a30 f i GuMeshAnalysis.obj
 0001:00082af0       ?resize@?$PxArray@_NV?$PxReflectionAllocator@_N@physx@@@physx@@QEAAXIAEB_N@Z 0000000180083af0 f i GuMeshAnalysis.obj
 0001:00082bb0       ?contactBoxBox@Gu@physx@@YA_NAEBVPxGeometry@2@0AEBUPxTransformPadded@2@1AEBUNarrowPhaseParams@12@AEAUCache@12@AEAVPxContactBuffer@2@PEAVPxRenderOutput@2@@Z 0000000180083bb0 f   GuContactBoxBox.obj
 0001:00086d70       ?contactCapsuleBox@Gu@physx@@YA_NAEBVPxGeometry@2@0AEBUPxTransformPadded@2@1AEBUNarrowPhaseParams@12@AEAUCache@12@AEAVPxContactBuffer@2@PEAVPxRenderOutput@2@@Z 0000000180087d70 f   GuContactCapsuleBox.obj
 0001:00087580       ?contactCapsuleCapsule@Gu@physx@@YA_NAEBVPxGeometry@2@0AEBUPxTransformPadded@2@1AEBUNarrowPhaseParams@12@AEAUCache@12@AEAVPxContactBuffer@2@PEAVPxRenderOutput@2@@Z 0000000180088580 f   GuContactCapsuleCapsule.obj
 0001:00089f50       ?contactCapsuleConvex@Gu@physx@@YA_NAEBVPxGeometry@2@0AEBUPxTransformPadded@2@1AEBUNarrowPhaseParams@12@AEAUCache@12@AEAVPxContactBuffer@2@PEAVPxRenderOutput@2@@Z 000000018008af50 f   GuContactCapsuleConvex.obj
 0001:0008c480       ?contactCapsuleHeightfield@Gu@physx@@YA_NAEBVPxGeometry@2@0AEBUPxTransformPadded@2@1AEBUNarrowPhaseParams@12@AEAUCache@12@AEAVPxContactBuffer@2@PEAVPxRenderOutput@2@@Z 000000018008d480 f   GuContactCapsuleMesh.obj
 0001:0008cc90       ?contactCapsuleMesh@Gu@physx@@YA_NAEBVPxGeometry@2@0AEBUPxTransformPadded@2@1AEBUNarrowPhaseParams@12@AEAUCache@12@AEAVPxContactBuffer@2@PEAVPxRenderOutput@2@@Z 000000018008dc90 f   GuContactCapsuleMesh.obj
 0001:0008e070       ?transformQueryBounds@FastVertex2ShapeScaling@Cm@physx@@QEBAXAEAV?$PxVec3T@M@3@0AEAV?$PxMat33T@M@3@@Z 000000018008f070 f i GuContactCapsuleMesh.obj
 0001:00092350       ?contactBoxConvex@Gu@physx@@YA_NAEBVPxGeometry@2@0AEBUPxTransformPadded@2@1AEBUNarrowPhaseParams@12@AEAUCache@12@AEAVPxContactBuffer@2@PEAVPxRenderOutput@2@@Z 0000000180093350 f   GuContactConvexConvex.obj
 0001:00092520       ?contactConvexConvex@Gu@physx@@YA_NAEBVPxGeometry@2@0AEBUPxTransformPadded@2@1AEBUNarrowPhaseParams@12@AEAUCache@12@AEAVPxContactBuffer@2@PEAVPxRenderOutput@2@@Z 0000000180093520 f   GuContactConvexConvex.obj
 0001:000929a0       ?transformPlaneToShapeSpace@FastVertex2ShapeScaling@Cm@physx@@QEBAXAEBV?$PxVec3T@M@3@MAEAV43@AEAM@Z 00000001800939a0 f i GuContactConvexConvex.obj
 0001:00092e50       ??_EConvexMeshContactGenerationCallback@@UEAAPEAXI@Z 0000000180093e50 f i GuContactConvexMesh.obj
 0001:00092e50       ??_GConvexMeshContactGenerationCallback@@UEAAPEAXI@Z 0000000180093e50 f i GuContactConvexMesh.obj
 0001:00092eb0       ?addData@?$CacheMap@UCachedEdge@Gu@physx@@$0IA@@Gu@physx@@QEAA_NAEBUCachedEdge@23@@Z 0000000180093eb0 f i GuContactConvexMesh.obj
 0001:00092f90       ?addData@?$CacheMap@UCachedVertex@Gu@physx@@$0IA@@Gu@physx@@QEAA_NAEBUCachedVertex@23@@Z 0000000180093f90 f i GuContactConvexMesh.obj
 0001:00093020       ?allocate@?$PxArray@IV?$PxInlineAllocator@$0BBAA@V?$PxReflectionAllocator@I@physx@@@physx@@@physx@@IEAAPEAIIPEAI@Z 0000000180094020 f i GuContactConvexMesh.obj
 0001:00093420       ?contactBoxHeightfield@Gu@physx@@YA_NAEBVPxGeometry@2@0AEBUPxTransformPadded@2@1AEBUNarrowPhaseParams@12@AEAUCache@12@AEAVPxContactBuffer@2@PEAVPxRenderOutput@2@@Z 0000000180094420 f   GuContactConvexMesh.obj
 0001:000935a0       ?contactBoxMesh@Gu@physx@@YA_NAEBVPxGeometry@2@0AEBUPxTransformPadded@2@1AEBUNarrowPhaseParams@12@AEAUCache@12@AEAVPxContactBuffer@2@PEAVPxRenderOutput@2@@Z 00000001800945a0 f   GuContactConvexMesh.obj
 0001:00093770       ?contactConvexHeightfield@Gu@physx@@YA_NAEBVPxGeometry@2@0AEBUPxTransformPadded@2@1AEBUNarrowPhaseParams@12@AEAUCache@12@AEAVPxContactBuffer@2@PEAVPxRenderOutput@2@@Z 0000000180094770 f   GuContactConvexMesh.obj
 0001:000938c0       ?contactConvexMesh@Gu@physx@@YA_NAEBVPxGeometry@2@0AEBUPxTransformPadded@2@1AEBUNarrowPhaseParams@12@AEAUCache@12@AEAVPxContactBuffer@2@PEAVPxRenderOutput@2@@Z 00000001800948c0 f   GuContactConvexMesh.obj
 0001:00096fb0       ?processHit@ConvexMeshContactGenerationCallback@@UEAA_NAEBUPxGeomRaycastHit@physx@@AEBV?$PxVec3T@M@3@11AEAMPEBI@Z 0000000180097fb0 f i GuContactConvexMesh.obj
 0001:00097970       ?recreate@?$PxArray@IV?$PxInlineAllocator@$0BBAA@V?$PxReflectionAllocator@I@physx@@@physx@@@physx@@IEAAXI@Z 0000000180098970 f i GuContactConvexMesh.obj
 0001:0009bd40       ??0?$EpaDepth@UConvexShape@Gu@physx@@@RefGjkEpa@Gu@physx@@QEAA@AEAU?$Convex@UConvexShape@Gu@physx@@@123@0@Z 000000018009cd40 f i GuContactConvexCoreMesh.obj
 0001:0009c180       ?PxComputeBasisVectors@physx@@YAXAEBV?$PxVec3T@M@1@AEAV21@1@Z 000000018009d180 f i GuContactConvexCoreMesh.obj
 0001:0009c2a0       ?addPatch@Contact@Gu@physx@@IEAAXAEBV?$PxVec3T@M@3@AEBUPoint@123@@Z 000000018009d2a0 f i GuContactConvexCoreMesh.obj
 0001:0009c6a0       ?addPatchPoint@Contact@Gu@physx@@IEAAXIAEBUPoint@123@@Z 000000018009d6a0 f i GuContactConvexCoreMesh.obj
 0001:0009c9a0       ?addPoint@?$EpaDepth@UConvexShape@Gu@physx@@@RefGjkEpa@Gu@physx@@QEAAMAEBV?$PxVec3T@M@4@@Z 000000018009d9a0 f i GuContactConvexCoreMesh.obj
 0001:0009cef0       ?clip2x2@FaceClipper@Gu@physx@@AEAAXXZ 000000018009def0 f i GuContactConvexCoreMesh.obj
 0001:0009d810       ?clipNone@FaceClipper@Gu@physx@@AEAAXXZ 000000018009e810 f i GuContactConvexCoreMesh.obj
 0001:0009d8d0       ?clipNxN@FaceClipper@Gu@physx@@AEAAXXZ 000000018009e8d0 f i GuContactConvexCoreMesh.obj
 0001:0009dfe0       ?computePoints@?$EpaDepth@UConvexShape@Gu@physx@@@RefGjkEpa@Gu@physx@@QEAAXAEAV?$PxVec3T@M@4@0@Z 000000018009efe0 f i GuContactConvexCoreMesh.obj
 0001:0009e520       ?contactConvexCoreHeightfield@Gu@physx@@YA_NAEBVPxGeometry@2@0AEBUPxTransformPadded@2@1AEBUNarrowPhaseParams@12@AEAUCache@12@AEAVPxContactBuffer@2@PEAVPxRenderOutput@2@@Z 000000018009f520 f   GuContactConvexCoreMesh.obj
 0001:0009ed00       ?contactConvexCoreTrimesh@Gu@physx@@YA_NAEBVPxGeometry@2@0AEBUPxTransformPadded@2@1AEBUNarrowPhaseParams@12@AEAUCache@12@AEAVPxContactBuffer@2@PEAVPxRenderOutput@2@@Z 000000018009fd00 f   GuContactConvexCoreMesh.obj
 0001:0009f470       ?contactFace@ConvexShape@Gu@physx@@QEBAIAEBV?$PxVec3T@M@3@0AEAV43@QEAV43@@Z 00000001800a0470 f i GuContactConvexCoreMesh.obj
 0001:000a00e0       ?getTriangleVertexIndices@HeightField@Gu@physx@@QEBAXIAEAI00@Z 00000001800a10e0 f i GuContactConvexCoreMesh.obj
 0001:000a0490       ?makePlane@?$EpaDepth@UConvexShape@Gu@physx@@@RefGjkEpa@Gu@physx@@QEAA_NEEEAEAV?$PxVec4T@M@4@@Z 00000001800a1490 f i GuContactConvexCoreMesh.obj
 0001:000a0850       ?makePlanes@FaceClipper@Gu@physx@@AEAAXPEBV?$PxVec3T@M@3@IPEAV?$PxVec4T@M@3@AEAI@Z 00000001800a1850 f i GuContactConvexCoreMesh.obj
 0001:000a0ae0       ?makePolygon@FaceClipper@Gu@physx@@AEAAXPEAV?$PxVec3T@M@3@AEAI@Z 00000001800a1ae0 f i GuContactConvexCoreMesh.obj
 0001:000a31c0       ?contactConvexCoreConvex@Gu@physx@@YA_NAEBVPxGeometry@2@0AEBUPxTransformPadded@2@1AEBUNarrowPhaseParams@12@AEAUCache@12@AEAVPxContactBuffer@2@PEAVPxRenderOutput@2@@Z 00000001800a41c0 f   GuContactConvexCoreConvex.obj
 0001:000a3600       ?contactPlaneConvexCore@Gu@physx@@YA_NAEBVPxGeometry@2@0AEBUPxTransformPadded@2@1AEBUNarrowPhaseParams@12@AEAUCache@12@AEAVPxContactBuffer@2@PEAVPxRenderOutput@2@@Z 00000001800a4600 f   GuContactPlaneConvexCore.obj
 0001:000a3e20       ?support@ConvexShape@Gu@physx@@QEBA?AV?$PxVec3T@M@3@AEBV43@@Z 00000001800a4e20 f i GuContactPlaneConvexCore.obj
 0001:000a4180       ?contactPlaneBox@Gu@physx@@YA_NAEBVPxGeometry@2@0AEBUPxTransformPadded@2@1AEBUNarrowPhaseParams@12@AEAUCache@12@AEAVPxContactBuffer@2@PEAVPxRenderOutput@2@@Z 00000001800a5180 f   GuContactPlaneBox.obj
 0001:000a4e50       ?contactPlaneCapsule@Gu@physx@@YA_NAEBVPxGeometry@2@0AEBUPxTransformPadded@2@1AEBUNarrowPhaseParams@12@AEAUCache@12@AEAVPxContactBuffer@2@PEAVPxRenderOutput@2@@Z 00000001800a5e50 f   GuContactPlaneCapsule.obj
 0001:000a5520       ?contactPlaneConvex@Gu@physx@@YA_NAEBVPxGeometry@2@0AEBUPxTransformPadded@2@1AEBUNarrowPhaseParams@12@AEAUCache@12@AEAVPxContactBuffer@2@PEAVPxRenderOutput@2@@Z 00000001800a6520 f   GuContactPlaneConvex.obj
 0001:000a5dc0       ?contactPlaneMesh@Gu@physx@@YA_NAEBVPxGeometry@2@0AEBUPxTransformPadded@2@1AEBUNarrowPhaseParams@12@AEAUCache@12@AEAVPxContactBuffer@2@PEAVPxRenderOutput@2@@Z 00000001800a6dc0 f   GuContactPlaneMesh.obj
 0001:000a6f90       ?reduce@?$BufferedPatch@$05$0EA@$00@Gu@physx@@QEAAXXZ 00000001800a7f90 f i GuContactPlaneMesh.obj
 0001:000a8ff0       ?contactPolygonPolygonExt@Gu@physx@@YA_NIPEBV?$PxVec3T@M@2@PEBEAEBV?$PxMat34T@M@2@AEBVPxPlane@2@AEBV?$PxMat33T@M@2@I01234AEBV32@22IIAEAVPxContactBuffer@2@_N5M@Z 00000001800a9ff0 f   GuContactPolygonPolygon.obj
 0001:000aa7b0       ?findRotationMatrixFromZ@Gu@physx@@YA?AV?$PxMat33T@M@2@AEBV?$PxVec3T@M@2@@Z 00000001800ab7b0 f   GuContactPolygonPolygon.obj
 0001:000ab180       ??$PxSort@PEAV?$BufferedPatch@$04$0CA@$00@Gu@physx@@UPatchPenetrationPredicate@?$SDFContactReduction@$04$0CHBA@$0CA@@23@V?$PxReflectionAllocator@PEAV?$BufferedPatch@$04$0CA@$00@Gu@physx@@@3@@physx@@YAXPEAPEAV?$BufferedPatch@$04$0CA@$00@Gu@0@IAEBUPatchPenetrationPredicate@?$SDFContactReduction@$04$0CHBA@$0CA@@20@AEBV?$PxReflectionAllocator@PEAV?$BufferedPatch@$04$0CA@$00@Gu@physx@@@0@I@Z 00000001800ac180 f i GuContactMeshMesh.obj
 0001:000ab6f0       ??$copy@V?$PxReflectionAllocator@V?$BufferedPatch@$04$0CA@$00@Gu@physx@@@physx@@@?$PxArray@V?$BufferedPatch@$04$0CA@$00@Gu@physx@@V?$PxReflectionAllocator@V?$BufferedPatch@$04$0CA@$00@Gu@physx@@@3@@physx@@IEAAXAEBV01@@Z 00000001800ac6f0 f i GuContactMeshMesh.obj
 0001:000ab750       ??$sdfTriangleCollision@$0A@$0CA@$00@Gu@physx@@YAMAEIBUCollisionSDF@01@AEIBV?$PxVec3T@M@1@11AEAV31@2M@Z 00000001800ac750 f i GuContactMeshMesh.obj
 0001:000abf60       ??0?$BufferedPatch@$04$0CA@$00@Gu@physx@@QEAA@AEBV012@@Z 00000001800acf60 f i GuContactMeshMesh.obj
 0001:000ac030       ??0CollisionSDF@Gu@physx@@QEAA@AEBVSDF@12@@Z 00000001800ad030 f i GuContactMeshMesh.obj
 0001:000ac220       ?TriLerpWithGradient@CollisionSDF@Gu@physx@@SAMMMMMMMMMMMMPEAV?$PxVec3T@M@3@@Z 00000001800ad220 f i GuContactMeshMesh.obj
 0001:000ac400       ?addContact@?$BufferedPatch@$04$0CA@$00@Gu@physx@@QEAAXAEBUTinyContact@23@@Z 00000001800ad400 f i GuContactMeshMesh.obj
 0001:000ac4b0       ?allocate@?$PxArray@V?$BufferedPatch@$04$0CA@$00@Gu@physx@@V?$PxReflectionAllocator@V?$BufferedPatch@$04$0CA@$00@Gu@physx@@@3@@physx@@IEAAPEAV?$BufferedPatch@$04$0CA@$00@Gu@2@IPEAI@Z 00000001800ad4b0 f i GuContactMeshMesh.obj
 0001:000ac550       ?clampToBox@CollisionSDF@Gu@physx@@QEBA?AV?$PxVec3T@M@3@AEBV43@@Z 00000001800ad550 f i GuContactMeshMesh.obj
 0001:000ac610       ?contactMeshMesh@Gu@physx@@YA_NAEBVPxGeometry@2@0AEBUPxTransformPadded@2@1AEBUNarrowPhaseParams@12@AEAUCache@12@AEAVPxContactBuffer@2@PEAVPxRenderOutput@2@@Z 00000001800ad610 f   GuContactMeshMesh.obj
 0001:000ac8b0       ?copy@?$PxArray@V?$BufferedPatch@$04$0CA@$00@Gu@physx@@V?$PxReflectionAllocator@V?$BufferedPatch@$04$0CA@$00@Gu@physx@@@3@@physx@@KAXPEAV?$BufferedPatch@$04$0CA@$00@Gu@2@0PEBV342@@Z 00000001800ad8b0 f i GuContactMeshMesh.obj
 0001:000ac9a0       ?cullPatches@?$SDFContactReduction@$04$0CHBA@$0CA@@Gu@physx@@QEAAXM@Z 00000001800ad9a0 f i GuContactMeshMesh.obj
 0001:000acd70       ?dist@CollisionSDF@Gu@physx@@QEBAMAEBV?$PxVec3T@M@3@PEAV43@@Z 00000001800add70 f i GuContactMeshMesh.obj
 0001:000acf20       ?distUsingGradient@CollisionSDF@Gu@physx@@QEBAMAEBV?$PxVec3T@M@3@AEAV43@AEBM@Z 00000001800adf20 f i GuContactMeshMesh.obj
 0001:000ad1d0       ?evaluateCoarse@CollisionSDF@Gu@physx@@QEBAMAEBV?$PxVec3T@M@3@PEAV43@@Z 00000001800ae1d0 f i GuContactMeshMesh.obj
 0001:000ad320       ?evaluateSubgrid@CollisionSDF@Gu@physx@@QEBAMIAEBV?$PxVec3T@M@3@PEAV43@@Z 00000001800ae320 f i GuContactMeshMesh.obj
 0001:000ad6d0       ?flushToContactBuffer@?$SDFContactReduction@$04$0CHBA@$0CA@@Gu@physx@@QEAAIAEAVPxContactBuffer@3@@Z 00000001800ae6d0 f i GuContactMeshMesh.obj
 0001:000adc20       ?grad@CollisionSDF@Gu@physx@@QEBA?AV?$PxVec3T@M@3@AEBV43@@Z 00000001800aec20 f i GuContactMeshMesh.obj
 0001:000adfb0       ?growAndPushBack@?$PxArray@PEAV?$BufferedPatch@$04$0CA@$00@Gu@physx@@V?$PxReflectionAllocator@PEAV?$BufferedPatch@$04$0CA@$00@Gu@physx@@@3@@physx@@IEAAAEAPEAV?$BufferedPatch@$04$0CA@$00@Gu@2@AEBQEAV342@@Z 00000001800aefb0 f i GuContactMeshMesh.obj
 0001:000ae0d0       ?growAndPushBack@?$PxArray@V?$BufferedPatch@$04$0CA@$00@Gu@physx@@V?$PxReflectionAllocator@V?$BufferedPatch@$04$0CA@$00@Gu@physx@@@3@@physx@@IEAAAEAV?$BufferedPatch@$04$0CA@$00@Gu@2@AEBV342@@Z 00000001800af0d0 f i GuContactMeshMesh.obj
 0001:000ae1e0       ?recreate@?$PxArray@PEAV?$BufferedPatch@$04$0CA@$00@Gu@physx@@V?$PxReflectionAllocator@PEAV?$BufferedPatch@$04$0CA@$00@Gu@physx@@@3@@physx@@IEAAXI@Z 00000001800af1e0 f i GuContactMeshMesh.obj
 0001:000ae2d0       ?recreate@?$PxArray@V?$BufferedPatch@$04$0CA@$00@Gu@physx@@V?$PxReflectionAllocator@V?$BufferedPatch@$04$0CA@$00@Gu@physx@@@3@@physx@@IEAAXI@Z 00000001800af2d0 f i GuContactMeshMesh.obj
 0001:000ae3b0       ?reduce@?$BufferedPatch@$04$0CA@$00@Gu@physx@@QEAAXXZ 00000001800af3b0 f i GuContactMeshMesh.obj
 0001:000aef70       ?sample@CollisionSDF@Gu@physx@@QEBAMV?$PxVec3T@M@3@PEAV43@@Z 00000001800aff70 f i GuContactMeshMesh.obj
 0001:000af130       ?sdfMeshCollision@@YAIAEIBUPxTransformPadded@physx@@AEIBVPxTriangleMeshGeometry@2@01AEAV?$SDFContactReduction@$04$0CHBA@$0CA@@Gu@2@M_N@Z 00000001800b0130 f i GuContactMeshMesh.obj
 0001:000b1f40       ?contactSphereBox@Gu@physx@@YA_NAEBVPxGeometry@2@0AEBUPxTransformPadded@2@1AEBUNarrowPhaseParams@12@AEAUCache@12@AEAVPxContactBuffer@2@PEAVPxRenderOutput@2@@Z 00000001800b2f40 f   GuContactSphereBox.obj
 0001:000b2510       ?contactSphereCapsule@Gu@physx@@YA_NAEBVPxGeometry@2@0AEBUPxTransformPadded@2@1AEBUNarrowPhaseParams@12@AEAUCache@12@AEAVPxContactBuffer@2@PEAVPxRenderOutput@2@@Z 00000001800b3510 f   GuContactSphereCapsule.obj
 0001:000b32b0       ?contactSphereHeightfield@Gu@physx@@YA_NAEBVPxGeometry@2@0AEBUPxTransformPadded@2@1AEBUNarrowPhaseParams@12@AEAUCache@12@AEAVPxContactBuffer@2@PEAVPxRenderOutput@2@@Z 00000001800b42b0 f   GuContactSphereMesh.obj
 0001:000b3cd0       ?contactSphereMesh@Gu@physx@@YA_NAEBVPxGeometry@2@0AEBUPxTransformPadded@2@1AEBUNarrowPhaseParams@12@AEAUCache@12@AEAVPxContactBuffer@2@PEAVPxRenderOutput@2@@Z 00000001800b4cd0 f   GuContactSphereMesh.obj
 0001:000b6070       ?contactSpherePlane@Gu@physx@@YA_NAEBVPxGeometry@2@0AEBUPxTransformPadded@2@1AEBUNarrowPhaseParams@12@AEAUCache@12@AEAVPxContactBuffer@2@PEAVPxRenderOutput@2@@Z 00000001800b7070 f   GuContactSpherePlane.obj
 0001:000b6280       ?contactSphereSphere@Gu@physx@@YA_NAEBVPxGeometry@2@0AEBUPxTransformPadded@2@1AEBUNarrowPhaseParams@12@AEAUCache@12@AEAVPxContactBuffer@2@PEAVPxRenderOutput@2@@Z 00000001800b7280 f   GuContactSphereSphere.obj
 0001:000b6400       ?contactCustomGeometryGeometry@Gu@physx@@YA_NAEBVPxGeometry@2@0AEBUPxTransformPadded@2@1AEBUNarrowPhaseParams@12@AEAUCache@12@AEAVPxContactBuffer@2@PEAVPxRenderOutput@2@@Z 00000001800b7400 f   GuContactCustomGeometry.obj
 0001:000b6460       ?contactGeometryCustomGeometry@Gu@physx@@YA_NAEBVPxGeometry@2@0AEBUPxTransformPadded@2@1AEBUNarrowPhaseParams@12@AEAUCache@12@AEAVPxContactBuffer@2@PEAVPxRenderOutput@2@@Z 00000001800b7460 f   GuContactCustomGeometry.obj
 0001:000b6520       ?selectNormal@Gu@physx@@YA_NEMM@Z 00000001800b7520 f   GuFeatureCode.obj
 0001:000b65a0       ??0BigConvexData@physx@@QEAA@XZ 00000001800b75a0 f   GuBigConvexData.obj
 0001:000b65c0       ??1BigConvexData@physx@@QEAA@XZ 00000001800b75c0 f   GuBigConvexData.obj
 0001:000b6680       ??4BigConvexData@physx@@QEAAAEAV01@AEBV01@@Z 00000001800b7680 f i GuBigConvexData.obj
 0001:000b66a0       ?ComputeNearestOffset@BigConvexData@physx@@QEBAIAEBV?$PxVec3T@M@2@@Z 00000001800b76a0 f   GuBigConvexData.obj
 0001:000b67a0       ?ComputeOffset@BigConvexData@physx@@QEBAIAEBV?$PxVec3T@M@2@@Z 00000001800b77a0 f   GuBigConvexData.obj
 0001:000b68a0       ?CreateOffsets@BigConvexData@physx@@IEAAXXZ 00000001800b78a0 f   GuBigConvexData.obj
 0001:000b68f0       ?GetAdjacentVerts@BigConvexData@physx@@QEBAPEBEXZ 00000001800b78f0 f i GuBigConvexData.obj
 0001:000b68f0       ?getDeformableVolumeAuxData@DeformableVolumeMesh@Gu@physx@@UEAAPEAVPxDeformableVolumeAuxData@3@XZ 00000001800b78f0 f i GuTetrahedronMesh.obj
 0001:000b68f0       ?getDeformableVolumeAuxData@DeformableVolumeMesh@Gu@physx@@UEBAPEBVPxDeformableVolumeAuxData@3@XZ 00000001800b78f0 f i GuTetrahedronMesh.obj
 0001:000b68f0       ?getTransforms@PruningPool@Gu@physx@@QEAAPEAV?$PxTransformT@M@3@XZ 00000001800b78f0 f i GuIncrementalAABBPrunerCore.obj
 0001:000b68f0       ?getTransforms@PruningPool@Gu@physx@@QEBAPEBV?$PxTransformT@M@3@XZ 00000001800b78f0 f i GuIncrementalAABBPrunerCore.obj
 0001:000b68f0       ?getTriangles@TriangleMesh@Gu@physx@@UEBAPEBXXZ 00000001800b78f0 f i GuTriangleMesh.obj
 0001:000b6900       ?GetNbNeighbors@BigConvexData@physx@@QEBAGI@Z 00000001800b7900 f i GuBigConvexData.obj
 0001:000b6900       ?GetValency@BigConvexData@physx@@QEBAGI@Z 00000001800b7900 f i GuBigConvexData.obj
 0001:000b6910       ?GetNbSamples@BigConvexData@physx@@QEBAIXZ 00000001800b7910 f i GuBigConvexData.obj
 0001:000b6920       ?GetNbVerts@BigConvexData@physx@@QEBAIXZ 00000001800b7920 f i GuBigConvexData.obj
 0001:000b6920       ?getNbVertices@TetrahedronMesh@Gu@physx@@UEBAIXZ 00000001800b7920 f i GuTetrahedronMesh.obj
 0001:000b6920       ?getNbVertices@TriangleMesh@Gu@physx@@UEBAIXZ 00000001800b7920 f i GuTriangleMesh.obj
 0001:000b6920       ?length@pcharNode@@UEBAHXZ 00000001800b7920 f i libvcruntime:undname.obj
 0001:000b6920       ?raw_length@pcharNode@@UEBAHXZ 00000001800b7920 f i libvcruntime:undname.obj
 0001:000b6930       ?GetNeighbors@BigConvexData@physx@@QEBAPEBEI@Z 00000001800b7930 f i GuBigConvexData.obj
 0001:000b6940       ?GetOffset@BigConvexData@physx@@QEBAGI@Z 00000001800b7940 f i GuBigConvexData.obj
 0001:000b6950       ?GetSubdiv@BigConvexData@physx@@QEBAIXZ 00000001800b7950 f i GuBigConvexData.obj
 0001:000b6960       ?Load@BigConvexData@physx@@QEAA_NAEAVPxInputStream@2@@Z 00000001800b7960 f   GuBigConvexData.obj
 0001:000b6a70       ?VLoad@BigConvexData@physx@@IEAA_NAEAVPxInputStream@2@@Z 00000001800b7a70 f   GuBigConvexData.obj
 0001:000b6c10       ?exportExtraData@BigConvexData@physx@@QEAAXAEAVPxSerializationContext@2@@Z 00000001800b7c10 f   GuBigConvexData.obj
 0001:000b6c90       ?importExtraData@BigConvexData@physx@@QEAAXAEAVPxDeserializationContext@2@@Z 00000001800b7c90 f   GuBigConvexData.obj
 0001:000b6d00       ?findUniqueConvexEdges@Gu@physx@@YAIIPEIAUConvexEdge@12@IPEIBUHullPolygonData@12@PEIBE@Z 00000001800b7d00 f   GuConvexHelper.obj
 0001:000b6e40       ?getConvexData@Gu@physx@@YA_NAEBVPxConvexMeshGeometry@2@AEAVFastVertex2ShapeScaling@Cm@2@AEAVPxBounds3@2@AEAUPolygonalData@12@@Z 00000001800b7e40 f   GuConvexHelper.obj
 0001:000b70c0       ?getScaledConvex@Gu@physx@@YAXAEAPEAV?$PxVec3T@M@2@AEAPEAEPEAV32@PEAE_NPEBV32@PEBEIAEBVFastVertex2ShapeScaling@Cm@2@@Z 00000001800b80c0 f   GuConvexHelper.obj
 0001:000b71f0       ??0ConvexMesh@Gu@physx@@QEAA@PEAVMeshFactory@12@@Z 00000001800b81f0 f   GuConvexMesh.obj
 0001:000b7280       ??0ConvexMesh@Gu@physx@@QEAA@PEAVMeshFactory@12@AEAUConvexHullInitData@12@@Z 00000001800b8280 f   GuConvexMesh.obj
 0001:000b73c0       ??_EConvexMesh@Gu@physx@@UEAAPEAXI@Z 00000001800b83c0 f i GuConvexMesh.obj
 0001:000b73c0       ??_GConvexMesh@Gu@physx@@UEAAPEAXI@Z 00000001800b83c0 f i GuConvexMesh.obj
 0001:000b74d0       ??_EPxBVH@physx@@MEAAPEAXI@Z 00000001800b84d0 f i GuBVH.obj
 0001:000b74d0       ??_EPxBase@physx@@MEAAPEAXI@Z 00000001800b84d0 f i GuConvexMesh.obj
 0001:000b74d0       ??_GPxBVH@physx@@MEAAPEAXI@Z 00000001800b84d0 f i GuBVH.obj
 0001:000b74d0       ??_GPxBase@physx@@MEAAPEAXI@Z 00000001800b84d0 f i GuConvexMesh.obj
 0001:000b7500       ?acquireReference@ConvexMesh@Gu@physx@@UEAAXXZ 00000001800b8500 f   GuConvexMesh.obj
 0001:000b7500       ?acquireReference@DeformableVolumeAuxData@Gu@physx@@UEAAXXZ 00000001800b8500 f   GuTetrahedronMesh.obj
 0001:000b7500       ?acquireReference@DeformableVolumeMesh@Gu@physx@@UEAAXXZ 00000001800b8500 f   GuTetrahedronMesh.obj
 0001:000b7500       ?acquireReference@HeightField@Gu@physx@@UEAAXXZ 00000001800b8500 f   GuHeightField.obj
 0001:000b7500       ?acquireReference@TetrahedronMesh@Gu@physx@@UEAAXXZ 00000001800b8500 f   GuTetrahedronMesh.obj
 0001:000b7500       ?acquireReference@TriangleMesh@Gu@physx@@UEAAXXZ 00000001800b8500 f   GuTriangleMesh.obj
 0001:000b79c0       ?createObject@ConvexMesh@Gu@physx@@SAPEAV123@AEAPEAEAEAVPxDeserializationContext@3@@Z 00000001800b89c0 f   GuConvexMesh.obj
 0001:000b7ae0       ?exportExtraData@ConvexMesh@Gu@physx@@UEAAXAEAVPxSerializationContext@3@@Z 00000001800b8ae0 f   GuConvexMesh.obj
 0001:000b7be0       ?getConcreteTypeName@PxConvexMesh@physx@@UEBAPEBDXZ 00000001800b8be0 f i GuConvexMesh.obj
 0001:000b7bf0       ?getIndexBuffer@ConvexMesh@Gu@physx@@UEBAPEBEXZ 00000001800b8bf0 f i GuConvexMesh.obj
 0001:000b7c30       ?getLocalBounds@ConvexMesh@Gu@physx@@UEBA?AVPxBounds3@3@XZ 00000001800b8c30 f   GuConvexMesh.obj
 0001:000b7cc0       ?getMassInformation@ConvexMesh@Gu@physx@@UEBAXAEAMAEAV?$PxMat33T@M@3@AEAV?$PxVec3T@M@3@@Z 00000001800b8cc0 f   GuConvexMesh.obj
 0001:000b7d30       ?getNbPolygons@ConvexMesh@Gu@physx@@UEBAIXZ 00000001800b8d30 f i GuConvexMesh.obj
 0001:000b7d40       ?getNbVertices@ConvexMesh@Gu@physx@@UEBAIXZ 00000001800b8d40 f i GuConvexMesh.obj
 0001:000b7d50       ?getPolygonData@ConvexMesh@Gu@physx@@UEBA_NIAEAUPxHullPolygon@3@@Z 00000001800b8d50 f   GuConvexMesh.obj
 0001:000b7da0       ?getReferenceCount@ConvexMesh@Gu@physx@@UEBAIXZ 00000001800b8da0 f   GuConvexMesh.obj
 0001:000b7da0       ?getReferenceCount@DeformableVolumeAuxData@Gu@physx@@UEBAIXZ 00000001800b8da0 f   GuTetrahedronMesh.obj
 0001:000b7da0       ?getReferenceCount@DeformableVolumeMesh@Gu@physx@@UEBAIXZ 00000001800b8da0 f   GuTetrahedronMesh.obj
 0001:000b7da0       ?getReferenceCount@HeightField@Gu@physx@@UEBAIXZ 00000001800b8da0 f   GuHeightField.obj
 0001:000b7da0       ?getReferenceCount@TetrahedronMesh@Gu@physx@@UEBAIXZ 00000001800b8da0 f   GuTetrahedronMesh.obj
 0001:000b7da0       ?getReferenceCount@TriangleMesh@Gu@physx@@UEBAIXZ 00000001800b8da0 f   GuTriangleMesh.obj
 0001:000b7da0       ?length@DNameStatusNode@@UEBAHXZ 00000001800b8da0 f   libvcruntime:undname.obj
 0001:000b7da0       ?raw_length@DNameStatusNode@@UEBAHXZ 00000001800b8da0 f   libvcruntime:undname.obj
 0001:000b7db0       ?getSDF@ConvexMesh@Gu@physx@@UEBAPEBMXZ 00000001800b8db0 f   GuConvexMesh.obj
 0001:000b7dc0       ?getVertices@ConvexMesh@Gu@physx@@UEBAPEBV?$PxVec3T@M@3@XZ 00000001800b8dc0 f i GuConvexMesh.obj
 0001:000b7de0       ?isGpuCompatible@ConvexMesh@Gu@physx@@UEBA_NXZ 00000001800b8de0 f   GuConvexMesh.obj
 0001:000b7e20       ?isKindOf@PxBase@physx@@MEBA_NPEBD@Z 00000001800b8e20 f i GuConvexMesh.obj
 0001:000b7e40       ?isKindOf@PxConvexMesh@physx@@MEBA_NPEBD@Z 00000001800b8e40 f i GuConvexMesh.obj
 0001:000b7ed0       ?isReleasable@PxBase@physx@@UEBA_NXZ 00000001800b8ed0 f i GuConvexMesh.obj
 0001:000b7ee0       ?load@ConvexMesh@Gu@physx@@QEAA_NAEAVPxInputStream@3@@Z 00000001800b8ee0 f   GuConvexMesh.obj
 0001:000b8460       ?onRefCountZero@ConvexMesh@Gu@physx@@UEAAXXZ 00000001800b9460 f   GuConvexMesh.obj
 0001:000b8590       ?release@ConvexMesh@Gu@physx@@UEAAXXZ 00000001800b9590 f   GuConvexMesh.obj
 0001:000b8590       ?release@DeformableVolumeAuxData@Gu@physx@@UEAAXXZ 00000001800b9590 f   GuTetrahedronMesh.obj
 0001:000b8590       ?release@DeformableVolumeMesh@Gu@physx@@UEAAXXZ 00000001800b9590 f   GuTetrahedronMesh.obj
 0001:000b8590       ?release@HeightField@Gu@physx@@UEAAXXZ 00000001800b9590 f   GuHeightField.obj
 0001:000b8590       ?release@TetrahedronMesh@Gu@physx@@UEAAXXZ 00000001800b9590 f   GuTetrahedronMesh.obj
 0001:000b8590       ?release@TriangleMesh@Gu@physx@@UEAAXXZ 00000001800b9590 f   GuTriangleMesh.obj
 0001:000b85c0       ??Dphysx@@YA?AV?$PxMat34T@M@0@AEBVPxMeshScale@0@AEBV10@@Z 00000001800b95c0 f i GuConvexUtilsInternal.obj
 0001:000b8b30       ?computeHullOBB@Gu@physx@@YAXAEAVBox@12@AEBVPxBounds3@2@MAEBV?$PxMat34T@M@2@2AEBVFastVertex2ShapeScaling@Cm@2@_N@Z 00000001800b9b30 f   GuConvexUtilsInternal.obj
 0001:000b8fe0       ?computeOBBAroundConvex@Gu@physx@@YAXAEAVBox@12@AEBVPxConvexMeshGeometry@2@PEBVPxConvexMesh@2@AEBV?$PxTransformT@M@2@@Z 00000001800b9fe0 f   GuConvexUtilsInternal.obj
 0001:000b9830       ?computeVertexSpaceOBB@Gu@physx@@YAXAEAVBox@12@AEBV312@AEBV?$PxTransformT@M@2@AEBVPxMeshScale@2@@Z 00000001800ba830 f   GuConvexUtilsInternal.obj
 0001:000b9b60       ?transform@physx@@YA?AVBox@Gu@1@AEBV?$PxMat34T@M@1@AEBV231@@Z 00000001800bab60 f i GuConvexUtilsInternal.obj
 0001:000b9db0       ?localSearch@physx@@YAXAEAIAEBV?$PxVec3T@M@1@PEBV21@PEBUBigConvexRawData@Gu@1@@Z 00000001800badb0 f   GuHillClimbing.obj
 0001:000b9ef0       ??0PCMPolygonalBox@Gu@physx@@QEAA@AEBV?$PxVec3T@M@2@@Z 00000001800baef0 f   GuPCMShapeConvex.obj
 0001:000b9ef0       ??0PolygonalBox@Gu@physx@@QEAA@AEBV?$PxVec3T@M@2@@Z 00000001800baef0 f   GuShapeConvex.obj
 0001:000bb3b0       ?getPolygonalData@PolygonalBox@Gu@physx@@QEBAXPEIAUPolygonalData@23@@Z 00000001800bc3b0 f   GuShapeConvex.obj
 0001:000bb420       ?getPolygonalData_Convex@Gu@physx@@YAXPEIAUPolygonalData@12@PEIBUConvexHullData@12@AEBVFastVertex2ShapeScaling@Cm@2@@Z 00000001800bc420 f   GuShapeConvex.obj
 0001:000bb590       ?distancePointBoxSquared@Gu@physx@@YAMAEBV?$PxVec3T@M@2@00AEBV?$PxMat33T@M@2@PEAV32@@Z 00000001800bc590 f   GuDistancePointBox.obj
 0001:000bb6e0       ?closestPtPointTriangle@Gu@physx@@YA?AV?$PxVec3T@M@2@AEBV32@000AEAM1@Z 00000001800bc6e0 f   GuDistancePointTriangle.obj
 0001:000bbc00       ?distancePointTriangleSquared2UnitBox@Gu@physx@@YA?AT__m128@@AEBT3@000AEAT3@11@Z 00000001800bcc00 f   GuDistancePointTriangle.obj
 0001:000bbd20       ?distancePointTriangleSquared@Gu@physx@@YA?AT__m128@@AEBT3@000AEAT3@11@Z 00000001800bcd20 f   GuDistancePointTriangle.obj
 0001:000bca70       ?distanceSegmentBoxSquared@Gu@physx@@YAMAEBV?$PxVec3T@M@2@000AEBV?$PxMat33T@M@2@PEAMPEAV32@@Z 00000001800bda70 f   GuDistanceSegmentBox.obj
 0001:000bd2f0       ?distanceSegmentSegmentSquared4@Gu@physx@@YA?AT__m128@@AEBT3@000000000AEAT3@1@Z 00000001800be2f0 f   GuDistanceSegmentSegment.obj
 0001:000bd600       ?distanceSegmentSegmentSquared@Gu@physx@@YA?AT__m128@@AEBT3@000AEAT3@1@Z 00000001800be600 f   GuDistanceSegmentSegment.obj
 0001:000bd7c0       ?distanceSegmentSegmentSquared@Gu@physx@@YAMAEBV?$PxVec3T@M@2@000PEAM1@Z 00000001800be7c0 f   GuDistanceSegmentSegment.obj
 0001:000bda50       ?distanceSegmentSegmentSquared@Gu@physx@@YAMAEBV?$PxVec3T@M@2@0M00MPEAM1@Z 00000001800bea50 f   GuDistanceSegmentSegment.obj
 0001:000be190       ?distanceSegmentTriangleSquared@Gu@physx@@YA?AT__m128@@AEBT3@0000AEAT3@1@Z 00000001800bf190 f   GuDistanceSegmentTriangle.obj
 0001:000be8d0       ?distanceSegmentTriangleSquared@Gu@physx@@YAMAEBV?$PxVec3T@M@2@0000PEAM11@Z 00000001800bf8d0 f   GuDistanceSegmentTriangle.obj
 0001:000bff40       ?distanceTriangleTriangleSquared@Gu@physx@@YAMAEAV?$PxVec3T@M@2@0QEBVPxVec3Padded@2@1@Z 00000001800c0f40 f   GuDistanceTriangleTriangle.obj
 0001:000c0a90       ?closestPtPointTetrahedron@Gu@physx@@YA?AV?$PxVec3T@M@2@AEBV32@0000AEBV?$PxVec4T@M@2@@Z 00000001800c1a90 f   GuDistancePointTetrahedron.obj
 0001:000c1af0       ?PenetrationDepth@EPA@Gu@physx@@QEAA?AW4GjkStatus@23@AEBUGjkConvex@23@0PEIBT__m128@@1E_NT6@AEAUGjkOutput@23@@Z 00000001800c2af0 f   GuEPA.obj
 0001:000c2590       ?addFacet@EPA@Gu@physx@@QEAAPEAVFacet@23@IIIAEBT__m128@@@Z 00000001800c3590 f   GuEPA.obj
 0001:000c29c0       ?epaPenetration@Gu@physx@@YA?AW4GjkStatus@12@AEBUGjkConvex@12@0PEIBE1E_NT__m128@@AEAUGjkOutput@12@@Z 00000001800c39c0 f   GuEPA.obj
 0001:000c2b30       ?epaPenetration@Gu@physx@@YA?AW4GjkStatus@12@AEBUGjkConvex@12@0PEIBT__m128@@1E_NT5@AEAUGjkOutput@12@@Z 00000001800c3b30 f   GuEPA.obj
 0001:000c2be0       ?silhouette@Facet@Gu@physx@@QEAAXAEBT__m128@@PEIBT4@1AEAVEdgeBuffer@23@AEAV?$InlineDeferredIDPool@$0EA@@Cm@3@@Z 00000001800c3be0 f   GuEPA.obj
 0001:000c2db0       ?closestPtPointTetrahedron@Gu@physx@@YA?AT__m128@@PEIAT3@00AEAI@Z 00000001800c3db0 f   GuGJKSimplex.obj
 0001:000c3530       ?closestPtPointTetrahedron@Gu@physx@@YA?AT__m128@@PEIAT3@00PEIAH1AEAI@Z 00000001800c4530 f   GuGJKSimplex.obj
 0001:000c4fd0       ??$gjk@UGjkConvex@Gu@physx@@U123@@Gu@physx@@YA?AW4GjkStatus@01@AEBUGjkConvex@01@0AEBT__m128@@1AEAT4@222@Z 00000001800c5fd0 f i GuGJKTest.obj
 0001:000c5bf0       ??$gjkPenetration@UGjkConvex@Gu@physx@@U123@@Gu@physx@@YA?AW4GjkStatus@01@AEBUGjkConvex@01@0AEBT__m128@@1_NPEIAE3AEAEAEAUGjkOutput@01@@Z 00000001800c6bf0 f i GuGJKTest.obj
 0001:000c5c60       ??$gjkPenetration@UGjkConvex@Gu@physx@@U123@@Gu@physx@@YA?AW4GjkStatus@01@AEBUGjkConvex@01@0AEBT__m128@@1_NPEIAE3PEIAT4@4AEAEAEAUGjkOutput@01@@Z 00000001800c6c60 f i GuGJKTest.obj
 0001:000c70e0       ??$gjkRaycast@UGjkConvex@Gu@physx@@U123@@Gu@physx@@YA_NAEBUGjkConvex@01@0AEBT__m128@@111AEAT3@22M@Z 00000001800c80e0 f i GuGJKTest.obj
 0001:000c7c70       ?testEpaPenetration@Gu@physx@@YA?AW4GjkStatus@12@AEBUGjkConvex@12@0PEBE1EAEAUGjkOutput@12@@Z 00000001800c8c70 f   GuGJKTest.obj
 0001:000c7cc0       ?testGjk@Gu@physx@@YA?AW4GjkStatus@12@AEBUGjkConvex@12@0AEBT__m128@@1AEAT5@222@Z 00000001800c8cc0 f   GuGJKTest.obj
 0001:000c7cd0       ?testGjkPenetration@Gu@physx@@YA?AW4GjkStatus@12@AEBUGjkConvex@12@0AEBT__m128@@1PEAE2AEAEAEAUGjkOutput@12@@Z 00000001800c8cd0 f   GuGJKTest.obj
 0001:000c7d20       ?testGjkRaycast@Gu@physx@@YA_NAEBUGjkConvex@12@0AEBT__m128@@111AEAT4@22M@Z 00000001800c8d20 f   GuGJKTest.obj
 0001:000c7d30       ??0HeightField@Gu@physx@@QEAA@PEAVMeshFactory@12@@Z 00000001800c8d30 f   GuHeightField.obj
 0001:000c7d80       ??0HeightField@Gu@physx@@QEAA@PEAVMeshFactory@12@AEAUHeightFieldData@12@@Z 00000001800c8d80 f   GuHeightField.obj
 0001:000c7e30       ??1HeightField@Gu@physx@@UEAA@XZ 00000001800c8e30 f   GuHeightField.obj
 0001:000c7eb0       ??_EHeightField@Gu@physx@@UEAAPEAXI@Z 00000001800c8eb0 f i GuHeightField.obj
 0001:000c7eb0       ??_GHeightField@Gu@physx@@UEAAPEAXI@Z 00000001800c8eb0 f i GuHeightField.obj
 0001:000c7f60       ?computeCellCoordinates@HeightField@Gu@physx@@QEBAIMMAEAM0@Z 00000001800c8f60 f   GuHeightField.obj
 0001:000c8080       ?createObject@HeightField@Gu@physx@@SAPEAV123@AEAPEAEAEAVPxDeserializationContext@3@@Z 00000001800c9080 f   GuHeightField.obj
 0001:000c80d0       ?exportExtraData@HeightField@Gu@physx@@UEAAXAEAVPxSerializationContext@3@@Z 00000001800c90d0 f   GuHeightField.obj
 0001:000c8120       ?getConcreteTypeName@PxHeightField@physx@@UEBAPEBDXZ 00000001800c9120 f i GuHeightField.obj
 0001:000c8130       ?getConvexEdgeThreshold@HeightField@Gu@physx@@UEBAMXZ 00000001800c9130 f i GuHeightField.obj
 0001:000c8140       ?getFlags@HeightField@Gu@physx@@UEBA?AV?$PxFlags@W4Enum@PxHeightFieldFlag@physx@@G@3@XZ 00000001800c9140 f i GuHeightField.obj
 0001:000c8150       ?getFormat@HeightField@Gu@physx@@UEBA?AW4Enum@PxHeightFieldFormat@3@XZ 00000001800c9150 f i GuHeightField.obj
 0001:000c8160       ?getHeight@HeightField@Gu@physx@@UEBAMMM@Z 00000001800c9160 f i GuHeightField.obj
 0001:000c8280       ?getNbColumns@HeightField@Gu@physx@@UEBAIXZ 00000001800c9280 f i GuHeightField.obj
 0001:000c8290       ?getNbBounds@BVH@Gu@physx@@UEBAIXZ 00000001800c9290 f i GuBVH.obj
 0001:000c8290       ?getNbPrimitives@SourceMesh@Gu@physx@@UEBAIXZ 00000001800c9290 f i GuBV4.obj
 0001:000c8290       ?getNbPrimitives@TetrahedronSourceMesh@Gu@physx@@UEBAIXZ 00000001800c9290 f i GuBV4.obj
 0001:000c8290       ?getNbRows@HeightField@Gu@physx@@UEBAIXZ 00000001800c9290 f i GuHeightField.obj
 0001:000c82a0       ?getSample@HeightField@Gu@physx@@UEBAAEBUPxHeightFieldSample@3@II@Z 00000001800c92a0 f i GuHeightField.obj
 0001:000c82b0       ?getSampleStride@HeightField@Gu@physx@@UEBAIXZ 00000001800c92b0 f i GuHeightField.obj
 0001:000c82c0       ?getTimestamp@HeightField@Gu@physx@@UEBAIXZ 00000001800c92c0 f i GuHeightField.obj
 0001:000c82d0       ?getTriangleMaterialIndex@HeightField@Gu@physx@@UEBAGI@Z 00000001800c92d0 f i GuHeightField.obj
 0001:000c8300       ?getTriangleNormal@HeightField@Gu@physx@@UEBA?AV?$PxVec3T@M@3@I@Z 00000001800c9300 f i GuHeightField.obj
 0001:000c8320       ?getTriangleNormalInternal@HeightField@Gu@physx@@QEBA?AV?$PxVec3T@M@3@I@Z 00000001800c9320 f i GuHeightField.obj
 0001:000c8470       ?isKindOf@PxHeightField@physx@@MEBA_NPEBD@Z 00000001800c9470 f i GuHeightField.obj
 0001:000c8500       ?load@HeightField@Gu@physx@@QEAA_NAEAVPxInputStream@3@@Z 00000001800c9500 f   GuHeightField.obj
 0001:000c8860       ?loadFromDesc@HeightField@Gu@physx@@QEAA_NAEBVPxHeightFieldDesc@3@@Z 00000001800c9860 f   GuHeightField.obj
 0001:000c8a60       ?modifySamples@HeightField@Gu@physx@@UEAA_NHHAEBVPxHeightFieldDesc@3@_N@Z 00000001800c9a60 f   GuHeightField.obj
 0001:000c8de0       ?onRefCountZero@HeightField@Gu@physx@@UEAAXXZ 00000001800c9de0 f   GuHeightField.obj
 0001:000c8eb0       ?releaseMemory@HeightField@Gu@physx@@QEAAXXZ 00000001800c9eb0 f   GuHeightField.obj
 0001:000c8f00       ?save@HeightField@Gu@physx@@QEAA_NAEAVPxOutputStream@3@_N@Z 00000001800c9f00 f   GuHeightField.obj
 0001:000c9140       ?saveCells@HeightField@Gu@physx@@UEBAIPEAXI@Z 00000001800ca140 f   GuHeightField.obj
 0001:000c9180       ?computeLocalBounds@HeightFieldUtil@Gu@physx@@QEBAXAEAVPxBounds3@3@@Z 00000001800ca180 f   GuHeightFieldUtil.obj
 0001:000c9640       ?getTriangle@HeightFieldUtil@Gu@physx@@QEBAIAEBV?$PxTransformT@M@3@AEAVPxTriangle@3@PEAI2I_N3@Z 00000001800ca640 f   GuHeightFieldUtil.obj
 0001:000ca140       ?getTriangleAdjacencyIndices@HeightField@Gu@physx@@QEBAXIIIIAEAI00@Z 00000001800cb140 f i GuHeightFieldUtil.obj
 0001:000ca310       ?overlapAABBTriangles@HeightFieldUtil@Gu@physx@@QEBAXAEBVPxBounds3@3@AEAVOverlapReport@23@I@Z 00000001800cb310 f   GuHeightFieldUtil.obj
 0001:000ca770       ??$gjk@U?$RelativeConvex@VTriangleV@Gu@physx@@@Gu@physx@@U?$LocalConvex@VConvexHullV@Gu@physx@@@23@@Gu@physx@@YA?AW4GjkStatus@01@AEBU?$RelativeConvex@VTriangleV@Gu@physx@@@01@AEBU?$LocalConvex@VConvexHullV@Gu@physx@@@01@AEBT__m128@@2AEAT5@333@Z 00000001800cb770 f i GuOverlapTestsHF.obj
 0001:000cb6b0       ?GeomOverlapCallback_BoxHeightfield@@YA_NAEBVPxGeometry@physx@@AEBV?$PxTransformT@M@2@01PEAUTriggerCache@Gu@2@PEAUPxQueryThreadContext@2@@Z 00000001800cc6b0 f   GuOverlapTestsHF.obj
 0001:000cbc10       ?GeomOverlapCallback_CapsuleHeightfield@@YA_NAEBVPxGeometry@physx@@AEBV?$PxTransformT@M@2@01PEAUTriggerCache@Gu@2@PEAUPxQueryThreadContext@2@@Z 00000001800ccc10 f   GuOverlapTestsHF.obj
 0001:000cc210       ?GeomOverlapCallback_ConvexHeightfield@@YA_NAEBVPxGeometry@physx@@AEBV?$PxTransformT@M@2@01PEAUTriggerCache@Gu@2@PEAUPxQueryThreadContext@2@@Z 00000001800cd210 f   GuOverlapTestsHF.obj
 0001:000ccc70       ?GeomOverlapCallback_SphereHeightfield@@YA_NAEBVPxGeometry@physx@@AEBV?$PxTransformT@M@2@01PEAUTriggerCache@Gu@2@PEAUPxQueryThreadContext@2@@Z 00000001800cdc70 f   GuOverlapTestsHF.obj
 0001:000cd830       ??$gjkRaycast@U?$LocalConvex@VTriangleV@Gu@physx@@@Gu@physx@@U?$LocalConvex@VConvexHullV@Gu@physx@@@23@@Gu@physx@@YA_NAEBU?$LocalConvex@VTriangleV@Gu@physx@@@01@AEBU?$LocalConvex@VConvexHullV@Gu@physx@@@01@AEBT__m128@@222AEAT4@33M@Z 00000001800ce830 f i GuSweepsHF.obj
 0001:000ce610       ??$traceSegment@VBoxTraceSegmentReport@@$0A@$00@HeightFieldTraceUtil@Gu@physx@@QEBAXAEBV?$PxVec3T@M@2@0MPEAVBoxTraceSegmentReport@@AEBVPxBounds3@2@_NPEBV32@@Z 00000001800cf610 f i GuSweepsHF.obj
 0001:000ce610       ??$traceSegment@VCapsuleTraceSegmentReport@@$0A@$00@HeightFieldTraceUtil@Gu@physx@@QEBAXAEBV?$PxVec3T@M@2@0MPEAVCapsuleTraceSegmentReport@@AEBVPxBounds3@2@_NPEBV32@@Z 00000001800cf610 f i GuSweepsHF.obj
 0001:000ce610       ??$traceSegment@VConvexTraceSegmentReport@@$0A@$00@HeightFieldTraceUtil@Gu@physx@@QEBAXAEBV?$PxVec3T@M@2@0MPEAVConvexTraceSegmentReport@@AEBVPxBounds3@2@_NPEBV32@@Z 00000001800cf610 f i GuSweepsHF.obj
 0001:000cede0       ??0ConvexTraceSegmentReport@@QEAA@AEBVHeightFieldUtil@Gu@physx@@AEBUConvexHullData@23@AEBVPxMeshScale@3@AEBV?$PxTransformT@M@3@3AEBV?$PxVec3T@M@3@MV?$PxFlags@W4Enum@PxHitFlag@physx@@G@3@M@Z 00000001800cfde0 f i GuSweepsHF.obj
 0001:000cf760       ??_EBoxTraceSegmentReport@@UEAAPEAXI@Z 00000001800d0760 f i GuSweepsHF.obj
 0001:000cf760       ??_GBoxTraceSegmentReport@@UEAAPEAXI@Z 00000001800d0760 f i GuSweepsHF.obj
 0001:000cf790       ??_ECapsuleTraceSegmentReport@@UEAAPEAXI@Z 00000001800d0790 f i GuSweepsHF.obj
 0001:000cf790       ??_GCapsuleTraceSegmentReport@@UEAAPEAXI@Z 00000001800d0790 f i GuSweepsHF.obj
 0001:000cf7c0       ??_EConvexTraceSegmentReport@@UEAAPEAXI@Z 00000001800d07c0 f i GuSweepsHF.obj
 0001:000cf7c0       ??_GConvexTraceSegmentReport@@UEAAPEAXI@Z 00000001800d07c0 f i GuSweepsHF.obj
 0001:000cf7f0       ??_EHeightFieldTraceSegmentReport@@UEAAPEAXI@Z 00000001800d07f0 f i GuSweepsHF.obj
 0001:000cf7f0       ??_GHeightFieldTraceSegmentReport@@UEAAPEAXI@Z 00000001800d07f0 f i GuSweepsHF.obj
 0001:000cf820       ?finalizeHit@ConvexTraceSegmentReport@@QEAA_NAEAUPxGeomSweepHit@physx@@AEBVPxHeightFieldGeometry@3@AEBV?$PxTransformT@M@3@AEBVPxConvexMeshGeometry@3@2AEBV?$PxVec3T@M@3@M@Z 00000001800d0820 f i GuSweepsHF.obj
 0001:000cfa40       ?onEvent@BoxTraceSegmentReport@@UEAA_NIPEBI@Z 00000001800d0a40 f i GuSweepsHF.obj
 0001:000cfe90       ?onEvent@CapsuleTraceSegmentReport@@UEAA_NIPEBI@Z 00000001800d0e90 f i GuSweepsHF.obj
 0001:000d00b0       ?onEvent@ConvexTraceSegmentReport@@UEAA_NIPEBI@Z 00000001800d10b0 f i GuSweepsHF.obj
 0001:000d0670       ?prepare@?$OverlapTraceSegment@VBoxTraceSegmentReport@@@HeightFieldTraceUtil@Gu@physx@@QEAAXAEBV?$PxVec3T@M@4@00AEAM1@Z 00000001800d1670 f i GuSweepsHF.obj
 0001:000d0670       ?prepare@?$OverlapTraceSegment@VCapsuleTraceSegmentReport@@@HeightFieldTraceUtil@Gu@physx@@QEAAXAEBV?$PxVec3T@M@4@00AEAM1@Z 00000001800d1670 f i GuSweepsHF.obj
 0001:000d0670       ?prepare@?$OverlapTraceSegment@VConvexTraceSegmentReport@@@HeightFieldTraceUtil@Gu@physx@@QEAAXAEBV?$PxVec3T@M@4@00AEAM1@Z 00000001800d1670 f i GuSweepsHF.obj
 0001:000d0930       ?sweepBox_HeightFieldGeom@@YA_NAEBVPxGeometry@physx@@AEBV?$PxTransformT@M@2@AEBVPxBoxGeometry@2@1AEBVBox@Gu@2@AEBV?$PxVec3T@M@2@MAEAUPxGeomSweepHit@2@V?$PxFlags@W4Enum@PxHitFlag@physx@@G@2@MPEAUPxQueryThreadContext@2@@Z 00000001800d1930 f   GuSweepsHF.obj
 0001:000d1770       ?sweepCapsule_HeightFieldGeom@@YA_NAEBVPxGeometry@physx@@AEBV?$PxTransformT@M@2@AEBVPxCapsuleGeometry@2@1AEBVCapsule@Gu@2@AEBV?$PxVec3T@M@2@MAEAUPxGeomSweepHit@2@V?$PxFlags@W4Enum@PxHitFlag@physx@@G@2@MPEAUPxQueryThreadContext@2@@Z 00000001800d2770 f   GuSweepsHF.obj
 0001:000d20c0       ?sweepConvex_HeightFieldGeom@@YA_NAEBVPxGeometry@physx@@AEBV?$PxTransformT@M@2@AEBVPxConvexMeshGeometry@2@1AEBV?$PxVec3T@M@2@MAEAUPxGeomSweepHit@2@V?$PxFlags@W4Enum@PxHitFlag@physx@@G@2@MPEAUPxQueryThreadContext@2@@Z 00000001800d30c0 f   GuSweepsHF.obj
 0001:000d2a80       ?testVertexIndex@?$OverlapTraceSegment@VBoxTraceSegmentReport@@@HeightFieldTraceUtil@Gu@physx@@QEAA_NI@Z 00000001800d3a80 f i GuSweepsHF.obj
 0001:000d2a80       ?testVertexIndex@?$OverlapTraceSegment@VCapsuleTraceSegmentReport@@@HeightFieldTraceUtil@Gu@physx@@QEAA_NI@Z 00000001800d3a80 f i GuSweepsHF.obj
 0001:000d2a80       ?testVertexIndex@?$OverlapTraceSegment@VConvexTraceSegmentReport@@@HeightFieldTraceUtil@Gu@physx@@QEAA_NI@Z 00000001800d3a80 f i GuSweepsHF.obj
 0001:000d2be0       ?transformFast@PxBounds3@physx@@SA?AV12@AEBV?$PxTransformT@M@2@AEBV12@@Z 00000001800d3be0 f i GuSweepsHF.obj
 0001:000d2fc0       ?visitCells@?$OverlapTraceSegment@VBoxTraceSegmentReport@@@HeightFieldTraceUtil@Gu@physx@@QEAA_NAEBUOverlapRectangle@1234@@Z 00000001800d3fc0 f i GuSweepsHF.obj
 0001:000d2fc0       ?visitCells@?$OverlapTraceSegment@VCapsuleTraceSegmentReport@@@HeightFieldTraceUtil@Gu@physx@@QEAA_NAEBUOverlapRectangle@1234@@Z 00000001800d3fc0 f i GuSweepsHF.obj
 0001:000d2fc0       ?visitCells@?$OverlapTraceSegment@VConvexTraceSegmentReport@@@HeightFieldTraceUtil@Gu@physx@@QEAA_NAEBUOverlapRectangle@1234@@Z 00000001800d3fc0 f i GuSweepsHF.obj
 0001:000d31b0       ?intersectOBBOBB@Gu@physx@@YA_NAEBV?$PxVec3T@M@2@0AEBV?$PxMat33T@M@2@001_N@Z 00000001800d41b0 f   GuIntersectionBoxBox.obj
 0001:000d3800       ?intersectCapsuleTriangle@Gu@physx@@YA_NAEBV?$PxVec3T@M@2@000AEBVCapsule@12@AEBUCapsuleTriangleOverlapData@12@@Z 00000001800d4800 f   GuIntersectionCapsuleTriangle.obj
 0001:000d43f0       ?intersectEdgeEdge@Gu@physx@@YA_NAEBV?$PxVec3T@M@2@0000AEAMAEAV32@@Z 00000001800d53f0 f   GuIntersectionEdgeEdge.obj
 0001:000d4720       ?intersectRayAABB2@Gu@physx@@YA_NAEBT__m128@@0000AEAT3@1@Z 00000001800d5720 f   GuIntersectionRayBox.obj
 0001:000d47e0       ?intersectRayAABB2@Gu@physx@@YA_NAEBV?$PxVec3T@M@2@000MAEAM1@Z 00000001800d57e0 f   GuIntersectionRayBox.obj
 0001:000d4990       ?intersectRayAABB@Gu@physx@@YAHAEBV?$PxVec3T@M@2@000AEAM1@Z 00000001800d5990 f   GuIntersectionRayBox.obj
 0001:000d4ac0       ?rayAABBIntersect2@Gu@physx@@YAIAEBV?$PxVec3T@M@2@000AEAV32@AEAM@Z 00000001800d5ac0 f   GuIntersectionRayBox.obj
 0001:000d4cc0       ?intersectRayCapsuleInternal@Gu@physx@@YAIAEBV?$PxVec3T@M@2@000MQEAM@Z 00000001800d5cc0 f   GuIntersectionRayCapsule.obj
 0001:000d5180       ?intersectRaySphere@Gu@physx@@YA_NAEBV?$PxVec3T@M@2@0M0MAEAMPEAV32@@Z 00000001800d6180 f   GuIntersectionRaySphere.obj
 0001:000d5280       ?intersectRaySphereBasic@Gu@physx@@YA_NAEBV?$PxVec3T@M@2@0M0MAEAMPEAV32@@Z 00000001800d6280 f   GuIntersectionRaySphere.obj
 0001:000d53e0       ?intersectSphereBox@Gu@physx@@YA_NAEBVSphere@12@AEBVBox@12@@Z 00000001800d63e0 f   GuIntersectionSphereBox.obj
 0001:000d5610       ?intersectTetrahedronBox@Gu@physx@@YA_NAEBV?$PxVec3T@M@2@000AEBVPxBounds3@2@@Z 00000001800d6610 f   GuIntersectionTetrahedronBox.obj
 0001:000d59e0       ?intersectTriangleBox@Gu@physx@@YAHAEBVBoxPadded@12@AEBV?$PxVec3T@M@2@11@Z 00000001800d69e0 f   GuIntersectionTriangleBox.obj
 0001:000d5fb0       ?intersectTriangleBoxBV4@@YAHAEBV?$PxVec3T@M@physx@@00AEBV?$PxMat33T@M@2@00@Z 00000001800d6fb0 f   GuIntersectionTriangleBox.obj
 0001:000d63f0       ?intersectTriangleBox_ReferenceCode@Gu@physx@@YAHAEBV?$PxVec3T@M@2@0000@Z 00000001800d73f0 f   GuIntersectionTriangleBox.obj
 0001:000d6bd0       ?intersectTriangleBox_Unsafe@Gu@physx@@YAHAEBV?$PxVec3T@M@2@0000@Z 00000001800d7bd0 f   GuIntersectionTriangleBox.obj
 0001:000d6f90       ?intersectTriangleTriangle@Gu@physx@@YA_NAEBV?$PxVec3T@M@2@00000_N@Z 00000001800d7f90 f   GuIntersectionTriangleTriangle.obj
 0001:000d83b0       ??0BV4Tree@Gu@physx@@QEAA@W4PxEMPTY@2@@Z 00000001800d93b0 f   GuBV4.obj
 0001:000d83c0       ??0BV4Tree@Gu@physx@@QEAA@XZ 00000001800d93c0 f   GuBV4.obj
 0001:000d83f0       ??0SourceMesh@Gu@physx@@QEAA@XZ 00000001800d93f0 f   GuBV4.obj
 0001:000d8420       ??0TetrahedronSourceMesh@Gu@physx@@QEAA@XZ 00000001800d9420 f   GuBV4.obj
 0001:000d8450       ??1BV4Tree@Gu@physx@@QEAA@XZ 00000001800d9450 f   GuBV4.obj
 0001:000d84b0       ??1SourceMesh@Gu@physx@@UEAA@XZ 00000001800d94b0 f   GuBV4.obj
 0001:000d84b0       ??1TetrahedronSourceMesh@Gu@physx@@UEAA@XZ 00000001800d94b0 f   GuBV4.obj
 0001:000d8500       ??4BV4Tree@Gu@physx@@QEAAXAEAV012@@Z 00000001800d9500 f   GuBV4.obj
 0001:000d8590       ??4SourceMesh@Gu@physx@@QEAAXAEAV012@@Z 00000001800d9590 f   GuBV4.obj
 0001:000d85e0       ??_ESourceMesh@Gu@physx@@UEAAPEAXI@Z 00000001800d95e0 f i GuBV4.obj
 0001:000d85e0       ??_ETetrahedronSourceMesh@Gu@physx@@UEAAPEAXI@Z 00000001800d95e0 f i GuBV4.obj
 0001:000d85e0       ??_GSourceMesh@Gu@physx@@UEAAPEAXI@Z 00000001800d95e0 f i GuBV4.obj
 0001:000d85e0       ??_GTetrahedronSourceMesh@Gu@physx@@UEAAPEAXI@Z 00000001800d95e0 f i GuBV4.obj
 0001:000d8680       ??_ESourceMeshBase@Gu@physx@@UEAAPEAXI@Z 00000001800d9680 f i GuBV4.obj
 0001:000d8680       ??_GSourceMeshBase@Gu@physx@@UEAAPEAXI@Z 00000001800d9680 f i GuBV4.obj
 0001:000d8720       ?exportExtraData@BV4Tree@Gu@physx@@QEAAXAEAVPxSerializationContext@3@@Z 00000001800d9720 f   GuBV4.obj
 0001:000d8780       ?getPrimitiveBox@SourceMesh@Gu@physx@@UEAAXIAEAT__m128@@0@Z 00000001800d9780 f   GuBV4.obj
 0001:000d8820       ?getPrimitiveBox@TetrahedronSourceMesh@Gu@physx@@UEAAXIAEAT__m128@@0@Z 00000001800d9820 f   GuBV4.obj
 0001:000d88e0       ?importExtraData@BV4Tree@Gu@physx@@QEAAXAEAVPxDeserializationContext@3@@Z 00000001800d98e0 f   GuBV4.obj
 0001:000d8930       ?init@BV32Tree@Gu@physx@@QEAA_NPEAVSourceMeshBase@23@AEBVPxBounds3@3@@Z 00000001800d9930 f   GuBV32.obj
 0001:000d8930       ?init@BV4Tree@Gu@physx@@QEAA_NPEAVSourceMeshBase@23@AEBVPxBounds3@3@@Z 00000001800d9930 f   GuBV4.obj
 0001:000d89d0       ?load@BV4Tree@Gu@physx@@QEAA_NAEAVPxInputStream@3@_N@Z 00000001800d99d0 f   GuBV4.obj
 0001:000d8c10       ?refit@BV4Tree@Gu@physx@@QEAA_NAEAVPxBounds3@3@M@Z 00000001800d9c10 f   GuBV4.obj
 0001:000d9280       ?refit@SourceMesh@Gu@physx@@UEAAXIAEAVPxBounds3@3@@Z 00000001800da280 f   GuBV4.obj
 0001:000d9420       ?refit@TetrahedronSourceMesh@Gu@physx@@UEAAXIAEAVPxBounds3@3@@Z 00000001800da420 f   GuBV4.obj
 0001:000d9640       ?remapTopology@SourceMesh@Gu@physx@@UEAAXPEBI@Z 00000001800da640 f   GuBV4.obj
 0001:000d98e0       ?remapTopology@TetrahedronSourceMesh@Gu@physx@@UEAAXPEBI@Z 00000001800da8e0 f   GuBV4.obj
 0001:000d9b90       ??0BV4_AABBTree@Gu@physx@@QEAA@XZ 00000001800dab90 f   GuBV4Build.obj
 0001:000d9ba0       ??0BVData@@QEAA@XZ         00000001800daba0 f   GuBV4Build.obj
 0001:000d9bd0       ??0BuildStats@Gu@physx@@QEAA@XZ 00000001800dabd0 f i GuBV4Build.obj
 0001:000d9be0       ??1BV4_AABBTree@Gu@physx@@QEAA@XZ 00000001800dabe0 f   GuBV4Build.obj
 0001:000d9bf0       ??4BuildStats@Gu@physx@@QEAAAEAU012@$$QEAU012@@Z 00000001800dabf0 f i GuBV4Build.obj
 0001:000d9c00       ??4BuildStats@Gu@physx@@QEAAAEAU012@AEBU012@@Z 00000001800dac00 f i GuBV4Build.obj
 0001:000d9c10       ?BuildBV4Ex@Gu@physx@@YA_NAEAVBV4Tree@12@AEAVSourceMeshBase@12@MI_NW4BV4_BuildStrategy@12@@Z 00000001800dac10 f   GuBV4Build.obj
 0001:000daae0       ?allocateNode@BV4BuildParams@@QEAAPEAUBV4Node@@XZ 00000001800dbae0 f   GuBV4Build.obj
 0001:000daf50       ?buildFromMesh@BV4_AABBTree@Gu@physx@@QEAA_NAEAVSourceMeshBase@23@IW4BV4_BuildStrategy@23@@Z 00000001800dbf50 f   GuBV4Build.obj
 0001:000dbdf0       ?getCount@BuildStats@Gu@physx@@QEBAIXZ 00000001800dcdf0 f i GuBV4Build.obj
 0001:000dbdf0       ?getNbActiveObjects@PruningPool@Gu@physx@@QEBAIXZ 00000001800dcdf0 f i GuIncrementalAABBPrunerCore.obj
 0001:000dbed0       ?increaseCount@BuildStats@Gu@physx@@QEAAXI@Z 00000001800dced0 f i GuBV4Build.obj
 0001:000dc910       ?release@BV4_AABBTree@Gu@physx@@QEAAXXZ 00000001800dd910 f   GuBV4Build.obj
 0001:000dc9c0       ?releaseNodes@BV4BuildParams@@QEAAXXZ 00000001800dd9c0 f   GuBV4Build.obj
 0001:000dca30       ?reset@BuildStats@Gu@physx@@QEAAXXZ 00000001800dda30 f i GuBV4Build.obj
 0001:000dca40       ?setCount@BuildStats@Gu@physx@@QEAAXI@Z 00000001800dda40 f i GuBV4Build.obj
 0001:000dd0a0       ?walk@BV4_AABBTree@Gu@physx@@QEBAIP6A_NPEBVAABBTreeNode@23@IPEAX@Z1@Z 00000001800de0a0 f   GuBV4Build.obj
 0001:000dd160       ?walkDistance@BV4_AABBTree@Gu@physx@@QEBAIP6A_NPEBVAABBTreeNode@23@IPEAX@ZP6A_N01@Z1@Z 00000001800de160 f   GuBV4Build.obj
 0001:000e1090       ?GenericSweep_AABB_CB@@YAXAEBVBox@Gu@physx@@AEBV?$PxVec3T@M@3@MAEBVBV4Tree@23@P6A_NPEAX111IAEAM@Z3I@Z 00000001800e2090 f   GuBV4_AABBSweep.obj
 0001:000e11f0       ?Sweep_AABB_BV4@@YAHAEBVBox@Gu@physx@@AEBV?$PxVec3T@M@3@MAEBVBV4Tree@23@PEIAVSweepHit@23@I@Z 00000001800e21f0 f   GuBV4_AABBSweep.obj
 0001:000ea450       ?BV4_OverlapBoxAll@@YAIAEBVBox@Gu@physx@@AEBVBV4Tree@23@PEIBV?$PxMat44T@M@3@PEAIIAEA_N@Z 00000001800eb450 f   GuBV4_BoxOverlap.obj
 0001:000eac70       ?BV4_OverlapBoxAny@@YAHAEBVBox@Gu@physx@@AEBVBV4Tree@23@PEIBV?$PxMat44T@M@3@@Z 00000001800ebc70 f   GuBV4_BoxOverlap.obj
 0001:000eb480       ?BV4_OverlapBoxCB@@YAXAEBVBox@Gu@physx@@AEBVBV4Tree@23@P6A_NPEAXAEBV?$PxVec3T@M@3@333IPEBI@Z2@Z 00000001800ec480 f   GuBV4_BoxOverlap.obj
 0001:000ebb30       ?BV4_OverlapBoxCB@@YAXAEBVBox@Gu@physx@@AEBVBV4Tree@23@P6A_NPEAXAEBV?$PxVec3T@M@3@33IPEBI@Z2@Z 00000001800ecb30 f   GuBV4_BoxOverlap.obj
 0001:000ebfe0       ?BV4_OverlapCapsuleAll@@YAIAEBVCapsule@Gu@physx@@AEBVBV4Tree@23@PEIBV?$PxMat44T@M@3@PEAIIAEA_N@Z 00000001800ecfe0 f   GuBV4_BoxOverlap.obj
 0001:000ec700       ?BV4_OverlapCapsuleAny@@YAHAEBVCapsule@Gu@physx@@AEBVBV4Tree@23@PEIBV?$PxMat44T@M@3@@Z 00000001800ed700 f   GuBV4_BoxOverlap.obj
 0001:000ef440       ?BV4_CapsuleSweepSingle@@YAHAEBVCapsule@Gu@physx@@AEBV?$PxVec3T@M@3@MAEBVBV4Tree@23@PEIAVSweepHit@23@I@Z 00000001800f0440 f   GuBV4_CapsuleSweep.obj
 0001:000f3480       ?BV4_CapsuleSweepSingleAA@@YAHAEBVCapsule@Gu@physx@@AEBV?$PxVec3T@M@3@MAEBVBV4Tree@23@PEIAVSweepHit@23@I@Z 00000001800f4480 f   GuBV4_CapsuleSweepAA.obj
 0001:001044c0       ?BV4_OverlapMeshVsMesh@@YA_NAEAV?$PxReportCallback@UPxGeomIndexPair@physx@@@physx@@AEBVBV4Tree@Gu@2@1PEBV?$PxMat44T@M@2@2AEBV?$PxTransformT@M@2@3AEBVPxMeshScale@2@4V?$PxFlags@W4Enum@PxMeshMeshQueryFlag@physx@@I@2@M@Z 00000001801054c0 f   GuBV4_MeshMeshOverlap.obj
 0001:00104540       ?BV4_OverlapMeshVsMeshDistance@@YA_NAEAV?$PxReportCallback@UPxGeomIndexClosePair@physx@@@physx@@AEBVBV4Tree@Gu@2@1PEBV?$PxMat44T@M@2@2AEBV?$PxTransformT@M@2@3AEBVPxMeshScale@2@4V?$PxFlags@W4Enum@PxMeshMeshQueryFlag@physx@@I@2@M@Z 0000000180105540 f   GuBV4_MeshMeshOverlap.obj
 0001:0010d5d0       ??D?$PxMat33T@M@physx@@QEBA?BV?$PxVec3T@M@1@AEBV21@@Z 000000018010e5d0 f i GuBV4_OBBSweep.obj
 0001:0010d660       ?BV4_BoxSweepSingle@@YAHAEBVBox@Gu@physx@@AEBV?$PxVec3T@M@3@MAEBVBV4Tree@23@PEIBV?$PxMat44T@M@3@PEIAVSweepHit@23@I@Z 000000018010e660 f   GuBV4_OBBSweep.obj
 0001:0010dd90       ?BV4_GenericSweepCB@@YAXAEBVBox@Gu@physx@@AEBV?$PxVec3T@M@3@MAEBVBV4Tree@23@P6A_NPEAX111IAEAM@Z3_N@Z 000000018010ed90 f   GuBV4_OBBSweep.obj
 0001:0010dfb0       ?Sweep_OBB_BV4@@YAHAEBVBox@Gu@physx@@AEBV?$PxVec3T@M@3@MAEBVBV4Tree@23@PEIAVSweepHit@23@I@Z 000000018010efb0 f   GuBV4_OBBSweep.obj
 0001:00110b70       ?BV4_RaycastCB@@YAXAEBV?$PxVec3T@M@physx@@0AEBVBV4Tree@Gu@2@PEIBV?$PxMat44T@M@2@MMIP6A?AW4HitCode@42@PEAX000IMMM@Z3@Z 0000000180111b70 f   GuBV4_Raycast.obj
 0001:00110f90       ?BV4_RaycastSingle@@YAHAEBV?$PxVec3T@M@physx@@0AEBVBV4Tree@Gu@2@PEIBV?$PxMat44T@M@2@PEIAUPxGeomRaycastHit@2@MMIV?$PxFlags@W4Enum@PxHitFlag@physx@@G@2@@Z 0000000180111f90 f   GuBV4_Raycast.obj
 0001:00113510       ?BV4_OverlapSphereAll@@YAIAEBVSphere@Gu@physx@@AEBVBV4Tree@23@PEIBV?$PxMat44T@M@3@PEAIIAEA_N@Z 0000000180114510 f   GuBV4_SphereOverlap.obj
 0001:00113830       ?BV4_OverlapSphereAny@@YAHAEBVSphere@Gu@physx@@AEBVBV4Tree@23@PEIBV?$PxMat44T@M@3@@Z 0000000180114830 f   GuBV4_SphereOverlap.obj
 0001:00113b10       ?BV4_PointDistance@@YAXAEBV?$PxVec3T@M@physx@@AEBVBV4Tree@Gu@2@MAEAIAEAMAEAV12@@Z 0000000180114b10 f   GuBV4_SphereOverlap.obj
 0001:0011a3f0       ?BV4_GenericSweepCB_Old@@YAXAEBV?$PxVec3T@M@physx@@00MAEBVBV4Tree@Gu@2@PEIBV?$PxMat44T@M@2@P6A_NPEAX000IAEAM@Z3@Z 000000018011b3f0 f   GuBV4_SphereSweep.obj
 0001:0011a7f0       ?BV4_SphereSweepSingle@@YAHAEBVSphere@Gu@physx@@AEBV?$PxVec3T@M@3@MAEBVBV4Tree@23@PEIBV?$PxMat44T@M@3@PEIAVSweepHit@23@I@Z 000000018011b7f0 f   GuBV4_SphereSweep.obj
 0001:0011bb10       ?computeSweepData@physx@@YAMAEBVPxTriangleMeshGeometry@1@AEAV?$PxVec3T@M@1@11M@Z 000000018011cb10 f i GuMidphaseBV4.obj
 0001:0011bea0       ?distanceMeshVsMesh_BV4@Gu@physx@@YA_NAEAV?$PxReportCallback@UPxGeomIndexClosePair@physx@@@2@AEBVTriangleMesh@12@AEBV?$PxTransformT@M@2@AEBVPxMeshScale@2@123V?$PxFlags@W4Enum@PxMeshMeshQueryFlag@physx@@I@2@M@Z 000000018011cea0 f   GuMidphaseBV4.obj
 0001:0011d7e0       ?intersectBoxVsMesh_BV4@Gu@physx@@YA_NAEBVBox@12@AEBVTriangleMesh@12@AEBV?$PxTransformT@M@2@AEBVPxMeshScale@2@PEAULimitedResults@12@@Z 000000018011e7e0 f   GuMidphaseBV4.obj
 0001:0011e2e0       ?intersectCapsuleVsMesh_BV4@Gu@physx@@YA_NAEBVCapsule@12@AEBVTriangleMesh@12@AEBV?$PxTransformT@M@2@AEBVPxMeshScale@2@PEAULimitedResults@12@@Z 000000018011f2e0 f   GuMidphaseBV4.obj
 0001:0011eb20       ?intersectMeshVsMesh_BV4@Gu@physx@@YA_NAEAV?$PxReportCallback@UPxGeomIndexPair@physx@@@2@AEBVTriangleMesh@12@AEBV?$PxTransformT@M@2@AEBVPxMeshScale@2@123V?$PxFlags@W4Enum@PxMeshMeshQueryFlag@physx@@I@2@M@Z 000000018011fb20 f   GuMidphaseBV4.obj
 0001:0011f3d0       ?intersectOBB_BV4@Gu@physx@@YAXPEBVTetrahedronMesh@12@AEBVBox@12@AEAU?$TetMeshHitCallback@UPxGeomRaycastHit@physx@@@12@@Z 00000001801203d0 f   GuMidphaseBV4.obj
 0001:0011f3f0       ?intersectOBB_BV4@Gu@physx@@YAXPEBVTriangleMesh@12@AEBVBox@12@AEAU?$MeshHitCallback@UPxGeomRaycastHit@physx@@@12@_N3@Z 00000001801203f0 f   GuMidphaseBV4.obj
 0001:0011f410       ?intersectSphereVsMesh_BV4@Gu@physx@@YA_NAEBVSphere@12@AEBVTriangleMesh@12@AEBV?$PxTransformT@M@2@AEBVPxMeshScale@2@PEAULimitedResults@12@@Z 0000000180120410 f   GuMidphaseBV4.obj
 0001:0011fb40       ?pointMeshDistance_BV4@Gu@physx@@YAXPEBVTriangleMesh@12@AEBVPxTriangleMeshGeometry@2@AEBV?$PxTransformT@M@2@AEBV?$PxVec3T@M@2@MAEAIAEAMAEAV62@@Z 0000000180120b40 f   GuMidphaseBV4.obj
 0001:001201f0       ?raycast_triangleMesh_BV4@Gu@physx@@YAIPEBVTriangleMesh@12@AEBVPxTriangleMeshGeometry@2@AEBV?$PxTransformT@M@2@AEBV?$PxVec3T@M@2@3MV?$PxFlags@W4Enum@PxHitFlag@physx@@G@2@IPEIAUPxGeomRaycastHit@2@I@Z 00000001801211f0 f   GuMidphaseBV4.obj
 0001:00121020       ?sweepBox_MeshGeom_BV4@Gu@physx@@YA_NPEBVTriangleMesh@12@AEBVPxTriangleMeshGeometry@2@AEBV?$PxTransformT@M@2@AEBVBox@12@AEBV?$PxVec3T@M@2@MAEAUPxGeomSweepHit@2@V?$PxFlags@W4Enum@PxHitFlag@physx@@G@2@M@Z 0000000180122020 f   GuMidphaseBV4.obj
 0001:00122680       ?sweepCapsule_MeshGeom_BV4@Gu@physx@@YA_NPEBVTriangleMesh@12@AEBVPxTriangleMeshGeometry@2@AEBV?$PxTransformT@M@2@AEBVCapsule@12@AEBV?$PxVec3T@M@2@MAEAUPxGeomSweepHit@2@V?$PxFlags@W4Enum@PxHitFlag@physx@@G@2@M@Z 0000000180123680 f   GuMidphaseBV4.obj
 0001:00123190       ?sweepConvex_MeshGeom_BV4@Gu@physx@@YAXPEBVTriangleMesh@12@AEBVBox@12@AEBV?$PxVec3T@M@2@MAEAUSweepConvexMeshHitCallback@12@_N@Z 0000000180124190 f   GuMidphaseBV4.obj
 0001:001231d0       ?transform@PxMeshScale@physx@@QEBA?AV?$PxVec3T@M@2@AEBV32@@Z 00000001801241d0 f i GuMidphaseBV4.obj
 0001:00123410       ?findOverlapHeightField@PxMeshQuery@physx@@SAIAEBVPxGeometry@2@AEBV?$PxTransformT@M@2@AEBVPxHeightFieldGeometry@2@1PEAIIIAEA_NV?$PxFlags@W4Enum@PxGeometryQueryFlag@physx@@I@2@@Z 0000000180124410 f   GuMeshQuery.obj
 0001:00123b80       ?findOverlapTriangleMesh@PxMeshQuery@physx@@SAIAEBVPxGeometry@2@AEBV?$PxTransformT@M@2@AEBVPxTriangleMeshGeometry@2@1PEAIIIAEA_NV?$PxFlags@W4Enum@PxGeometryQueryFlag@physx@@I@2@@Z 0000000180124b80 f   GuMeshQuery.obj
 0001:00123ea0       ?findOverlapTriangleMesh@PxMeshQuery@physx@@SA_NAEAV?$PxReportCallback@UPxGeomIndexClosePair@physx@@@2@AEBVPxTriangleMeshGeometry@2@AEBV?$PxTransformT@M@2@12V?$PxFlags@W4Enum@PxGeometryQueryFlag@physx@@I@2@V?$PxFlags@W4Enum@PxMeshMeshQueryFlag@physx@@I@2@M@Z 0000000180124ea0 f   GuMeshQuery.obj
 0001:00123fd0       ?findOverlapTriangleMesh@PxMeshQuery@physx@@SA_NAEAV?$PxReportCallback@UPxGeomIndexPair@physx@@@2@AEBVPxTriangleMeshGeometry@2@AEBV?$PxTransformT@M@2@12V?$PxFlags@W4Enum@PxGeometryQueryFlag@physx@@I@2@V?$PxFlags@W4Enum@PxMeshMeshQueryFlag@physx@@I@2@M@Z 0000000180124fd0 f   GuMeshQuery.obj
 0001:00124100       ?getTriangle@PxMeshQuery@physx@@SAXAEBVPxHeightFieldGeometry@2@AEBV?$PxTransformT@M@2@IAEAVPxTriangle@2@PEAI3@Z 0000000180125100 f   GuMeshQuery.obj
 0001:00124180       ?getTriangle@PxMeshQuery@physx@@SAXAEBVPxTriangleMeshGeometry@2@AEBV?$PxTransformT@M@2@IAEAVPxTriangle@2@PEAI3@Z 0000000180125180 f   GuMeshQuery.obj
 0001:00124680       ?sweep@PxMeshQuery@physx@@SA_NAEBV?$PxVec3T@M@2@MAEBVPxGeometry@2@AEBV?$PxTransformT@M@2@IPEBVPxTriangle@2@AEAUPxGeomSweepHit@2@V?$PxFlags@W4Enum@PxHitFlag@physx@@G@2@PEBIM_NV?$PxFlags@W4Enum@PxGeometryQueryFlag@physx@@I@2@@Z 0000000180125680 f   GuMeshQuery.obj
 0001:00124900       ??$collide@$00$00@MeshRayCollider@@SAXAEBV?$PxVec3T@M@physx@@0M_NPEBVRTreeTriangleMesh@Gu@2@AEAU?$MeshHitCallback@UPxGeomRaycastHit@physx@@@42@PEBV12@@Z 0000000180125900 f i GuMidphaseRTree.obj
 0001:00124c70       ??$collide@$00$0A@@MeshRayCollider@@SAXAEBV?$PxVec3T@M@physx@@0M_NPEBVRTreeTriangleMesh@Gu@2@AEAU?$MeshHitCallback@UPxGeomRaycastHit@physx@@@42@PEBV12@@Z 0000000180125c70 f i GuMidphaseRTree.obj
 0001:00124eb0       ??$collide@$0A@$00@MeshRayCollider@@SAXAEBV?$PxVec3T@M@physx@@0M_NPEBVRTreeTriangleMesh@Gu@2@AEAU?$MeshHitCallback@UPxGeomRaycastHit@physx@@@42@PEBV12@@Z 0000000180125eb0 f i GuMidphaseRTree.obj
 0001:00127210       ??0?$RayRTreeCallback@$00$0A@@@QEAA@MAEAU?$MeshHitCallback@UPxGeomRaycastHit@physx@@@Gu@physx@@HPEBXPEBV?$PxVec3T@M@3@AEBV43@3M_N2@Z 0000000180128210 f i GuMidphaseRTree.obj
 0001:00127330       ??1?$RayRTreeCallback@$00$00@@UEAA@XZ 0000000180128330 f i GuMidphaseRTree.obj
 0001:001273c0       ??1?$RayRTreeCallback@$00$0A@@@UEAA@XZ 00000001801283c0 f i GuMidphaseRTree.obj
 0001:001273c0       ??1?$RayRTreeCallback@$0A@$0A@@@UEAA@XZ 00000001801283c0 f i GuMidphaseRTree.obj
 0001:00127450       ??1?$RayRTreeCallback@$0A@$00@@UEAA@XZ 0000000180128450 f i GuMidphaseRTree.obj
 0001:001274d8       ??_E?$RayRTreeCallback@$00$00@@W7EAAPEAXI@Z 00000001801284d8 f i GuMidphaseRTree.obj
 0001:001274e4       ??_E?$RayRTreeCallback@$00$0A@@@W7EAAPEAXI@Z 00000001801284e4 f i GuMidphaseRTree.obj
 0001:001274e4       ??_E?$RayRTreeCallback@$0A@$0A@@@W7EAAPEAXI@Z 00000001801284e4 f i GuMidphaseRTree.obj
 0001:001274f0       ??_E?$RayRTreeCallback@$0A@$00@@W7EAAPEAXI@Z 00000001801284f0 f i GuMidphaseRTree.obj
 0001:00127560       ??_E?$RayRTreeCallback@$00$00@@UEAAPEAXI@Z 0000000180128560 f i GuMidphaseRTree.obj
 0001:00127560       ??_G?$RayRTreeCallback@$00$00@@UEAAPEAXI@Z 0000000180128560 f i GuMidphaseRTree.obj
 0001:001275a0       ??_E?$RayRTreeCallback@$00$0A@@@UEAAPEAXI@Z 00000001801285a0 f i GuMidphaseRTree.obj
 0001:001275a0       ??_E?$RayRTreeCallback@$0A@$0A@@@UEAAPEAXI@Z 00000001801285a0 f i GuMidphaseRTree.obj
 0001:001275a0       ??_G?$RayRTreeCallback@$00$0A@@@UEAAPEAXI@Z 00000001801285a0 f i GuMidphaseRTree.obj
 0001:001275a0       ??_G?$RayRTreeCallback@$0A@$0A@@@UEAAPEAXI@Z 00000001801285a0 f i GuMidphaseRTree.obj
 0001:001275e0       ??_E?$RayRTreeCallback@$0A@$00@@UEAAPEAXI@Z 00000001801285e0 f i GuMidphaseRTree.obj
 0001:001275e0       ??_G?$RayRTreeCallback@$0A@$00@@UEAAPEAXI@Z 00000001801285e0 f i GuMidphaseRTree.obj
 0001:00127620       ??_ECallback@RTree@Gu@physx@@UEAAPEAXI@Z 0000000180128620 f i GuMidphaseRTree.obj
 0001:00127620       ??_GCallback@RTree@Gu@physx@@UEAAPEAXI@Z 0000000180128620 f i GuMidphaseRTree.obj
 0001:00127650       ??_ERayMeshColliderCallback@@UEAAPEAXI@Z 0000000180128650 f i GuMidphaseRTree.obj
 0001:00127650       ??_ESweepCapsuleMeshHitCallback@Gu@physx@@UEAAPEAXI@Z 0000000180128650 f i GuSweepsMesh.obj
 0001:00127650       ??_GRayMeshColliderCallback@@UEAAPEAXI@Z 0000000180128650 f i GuMidphaseRTree.obj
 0001:00127650       ??_GSweepCapsuleMeshHitCallback@Gu@physx@@UEAAPEAXI@Z 0000000180128650 f i GuSweepsMesh.obj
 0001:00127680       ?collideOBB@MeshRayCollider@@SAXAEBVBox@Gu@physx@@_NPEBVRTreeTriangleMesh@34@AEAU?$MeshHitCallback@UPxGeomRaycastHit@physx@@@34@1@Z 0000000180128680 f   GuMidphaseRTree.obj
 0001:00127b50       ?intersectBoxVsMesh_RTREE@Gu@physx@@YA_NAEBVBox@12@AEBVTriangleMesh@12@AEBV?$PxTransformT@M@2@AEBVPxMeshScale@2@PEAULimitedResults@12@@Z 0000000180128b50 f   GuMidphaseRTree.obj
 0001:00127bc0       ?intersectCapsuleVsMesh_RTREE@Gu@physx@@YA_NAEBVCapsule@12@AEBVTriangleMesh@12@AEBV?$PxTransformT@M@2@AEBVPxMeshScale@2@PEAULimitedResults@12@@Z 0000000180128bc0 f   GuMidphaseRTree.obj
 0001:00127c40       ?intersectOBB_RTREE@Gu@physx@@YAXPEBVTriangleMesh@12@AEBVBox@12@AEAU?$MeshHitCallback@UPxGeomRaycastHit@physx@@@12@_N3@Z 0000000180128c40 f   GuMidphaseRTree.obj
 0001:00127c70       ?intersectSphereVsMesh_RTREE@Gu@physx@@YA_NAEBVSphere@12@AEBVTriangleMesh@12@AEBV?$PxTransformT@M@2@AEBVPxMeshScale@2@PEAULimitedResults@12@@Z 0000000180128c70 f   GuMidphaseRTree.obj
 0001:00127ca0       ?pointMeshDistance_RTREE@Gu@physx@@YAXPEBVTriangleMesh@12@AEBVPxTriangleMeshGeometry@2@AEBV?$PxTransformT@M@2@AEBV?$PxVec3T@M@2@MAEAIAEAMAEAV62@@Z 0000000180128ca0 f   GuMidphaseRTree.obj
 0001:00128a90       ?processHit@RayMeshColliderCallback@@UEAA_NAEBUPxGeomRaycastHit@physx@@AEBV?$PxVec3T@M@3@11AEAMPEBI@Z 0000000180129a90 f i GuMidphaseRTree.obj
 0001:00129230       ?processResults@?$RayRTreeCallback@$00$00@@UEAA_NIPEAI@Z 000000018012a230 f i GuMidphaseRTree.obj
 0001:001295d0       ?processResults@?$RayRTreeCallback@$00$00@@UEAA_NIPEAIAEAM@Z 000000018012a5d0 f i GuMidphaseRTree.obj
 0001:00129970       ?processResults@?$RayRTreeCallback@$00$0A@@@UEAA_NIPEAI@Z 000000018012a970 f i GuMidphaseRTree.obj
 0001:00129970       ?processResults@?$RayRTreeCallback@$0A@$0A@@@UEAA_NIPEAI@Z 000000018012a970 f i GuMidphaseRTree.obj
 0001:00129be0       ?processResults@?$RayRTreeCallback@$00$0A@@@UEAA_NIPEAIAEAM@Z 000000018012abe0 f i GuMidphaseRTree.obj
 0001:00129be0       ?processResults@?$RayRTreeCallback@$0A@$0A@@@UEAA_NIPEAIAEAM@Z 000000018012abe0 f i GuMidphaseRTree.obj
 0001:00129e60       ?processResults@?$RayRTreeCallback@$0A@$00@@UEAA_NIPEAI@Z 000000018012ae60 f i GuMidphaseRTree.obj
 0001:0012a4c0       ?processResults@?$RayRTreeCallback@$0A@$00@@UEAA_NIPEAIAEAM@Z 000000018012b4c0 f i GuMidphaseRTree.obj
 0001:0012ab20       ?raycast_triangleMesh_RTREE@Gu@physx@@YAIPEBVTriangleMesh@12@AEBVPxTriangleMeshGeometry@2@AEBV?$PxTransformT@M@2@AEBV?$PxVec3T@M@2@3MV?$PxFlags@W4Enum@PxHitFlag@physx@@G@2@IPEIAUPxGeomRaycastHit@2@I@Z 000000018012bb20 f   GuMidphaseRTree.obj
 0001:0012b2a0       ?sweepBox_MeshGeom_RTREE@Gu@physx@@YA_NPEBVTriangleMesh@12@AEBVPxTriangleMeshGeometry@2@AEBV?$PxTransformT@M@2@AEBVBox@12@AEBV?$PxVec3T@M@2@MAEAUPxGeomSweepHit@2@V?$PxFlags@W4Enum@PxHitFlag@physx@@G@2@M@Z 000000018012c2a0 f   GuMidphaseRTree.obj
 0001:0012c730       ?sweepCapsule_MeshGeom_RTREE@Gu@physx@@YA_NPEBVTriangleMesh@12@AEBVPxTriangleMeshGeometry@2@AEBV?$PxTransformT@M@2@AEBVCapsule@12@AEBV?$PxVec3T@M@2@MAEAUPxGeomSweepHit@2@V?$PxFlags@W4Enum@PxHitFlag@physx@@G@2@M@Z 000000018012d730 f   GuMidphaseRTree.obj
 0001:0012cee0       ?sweepConvex_MeshGeom_RTREE@Gu@physx@@YAXPEBVTriangleMesh@12@AEBVBox@12@AEBV?$PxVec3T@M@2@MAEAUSweepConvexMeshHitCallback@12@_N@Z 000000018012dee0 f   GuMidphaseRTree.obj
 0001:0012d920       ??_EPxReportCallbackBase@physx@@UEAAPEAXI@Z 000000018012e920 f i GuOverlapTestsMesh.obj
 0001:0012d920       ??_GPxReportCallbackBase@physx@@UEAAPEAXI@Z 000000018012e920 f i GuOverlapTestsMesh.obj
 0001:0012d950       ?GeomOverlapCallback_BoxMesh@@YA_NAEBVPxGeometry@physx@@AEBV?$PxTransformT@M@2@01PEAUTriggerCache@Gu@2@PEAUPxQueryThreadContext@2@@Z 000000018012e950 f   GuOverlapTestsMesh.obj
 0001:0012da60       ?GeomOverlapCallback_CapsuleMesh@@YA_NAEBVPxGeometry@physx@@AEBV?$PxTransformT@M@2@01PEAUTriggerCache@Gu@2@PEAUPxQueryThreadContext@2@@Z 000000018012ea60 f   GuOverlapTestsMesh.obj
 0001:0012db70       ?GeomOverlapCallback_ConvexMesh@@YA_NAEBVPxGeometry@physx@@AEBV?$PxTransformT@M@2@01PEAUTriggerCache@Gu@2@PEAUPxQueryThreadContext@2@@Z 000000018012eb70 f   GuOverlapTestsMesh.obj
 0001:0012e070       ?GeomOverlapCallback_MeshMesh@@YA_NAEBVPxGeometry@physx@@AEBV?$PxTransformT@M@2@01PEAUTriggerCache@Gu@2@PEAUPxQueryThreadContext@2@@Z 000000018012f070 f   GuOverlapTestsMesh.obj
 0001:0012e140       ?GeomOverlapCallback_SphereMesh@@YA_NAEBVPxGeometry@physx@@AEBV?$PxTransformT@M@2@01PEAUTriggerCache@Gu@2@PEAUPxQueryThreadContext@2@@Z 000000018012f140 f   GuOverlapTestsMesh.obj
 0001:0012e530       ??0RTree@Gu@physx@@QEAA@W4PxEMPTY@2@@Z 000000018012f530 f   GuRTree.obj
 0001:0012e540       ?exportExtraData@RTree@Gu@physx@@QEAAXAEAVPxSerializationContext@3@@Z 000000018012f540 f   GuRTree.obj
 0001:0012e580       ?importExtraData@RTree@Gu@physx@@QEAAXAEAVPxDeserializationContext@3@@Z 000000018012f580 f   GuRTree.obj
 0001:0012e5b0       ?load@RTree@Gu@physx@@QEAA_NAEAVPxInputStream@3@I_N@Z 000000018012f5b0 f   GuRTree.obj
 0001:0012e8b0       ?refitAllStaticTree@RTree@Gu@physx@@QEAAXAEAUCallbackRefit@123@PEAVPxBounds3@3@@Z 000000018012f8b0 f   GuRTree.obj
 0001:0012ee10       ?validate@RTree@Gu@physx@@QEAAXPEAUCallbackRefit@123@@Z 000000018012fe10 f   GuRTree.obj
 0001:0012f040       ?validateRecursive@RTree@Gu@physx@@IEAAXIURTreeNodeQ@23@PEAURTreePage@23@PEAUCallbackRefit@123@@Z 0000000180130040 f   GuRTree.obj
 0001:0012f200       ??$traverseRay@$00@RTree@Gu@physx@@QEBAXAEBV?$PxVec3T@M@2@0IPEAIPEAUCallbackRaycast@012@PEBV32@M@Z 0000000180130200 f i GuRTreeQueries.obj
 0001:0012f5a0       ??$traverseRay@$0A@@RTree@Gu@physx@@QEBAXAEBV?$PxVec3T@M@2@0IPEAIPEAUCallbackRaycast@012@PEBV32@M@Z 00000001801305a0 f i GuRTreeQueries.obj
 0001:0012f8e0       ?traverseAABB@RTree@Gu@physx@@QEBAXAEBV?$PxVec3T@M@3@0IPEAIPEAUCallback@123@@Z 00000001801308e0 f   GuRTreeQueries.obj
 0001:0012faa0       ?traverseOBB@RTree@Gu@physx@@QEBAXAEBVBox@23@IPEAIPEAUCallback@123@@Z 0000000180130aa0 f   GuRTreeQueries.obj
 0001:00130370       ??0SweepBoxMeshHitCallback@Gu@physx@@QEAA@W4Enum@CallbackMode@12@AEBVPxMat34Padded@2@M_NAEBVBox@12@AEBV?$PxVec3T@M@2@44AEBV?$PxFlags@W4Enum@PxHitFlag@physx@@G@2@M2M@Z 0000000180131370 f   GuSweepsMesh.obj
 0001:00130480       ??0SweepCapsuleMeshHitCallback@Gu@physx@@QEAA@AEAUPxGeomSweepHit@2@AEBV?$PxMat34T@M@2@M_NAEBVCapsule@12@AEBV?$PxVec3T@M@2@AEBV?$PxFlags@W4Enum@PxHitFlag@physx@@G@2@2M@Z 0000000180131480 f   GuSweepsMesh.obj
 0001:00130550       ??0SweepConvexMeshHitCallback@Gu@physx@@QEAA@AEBUConvexHullData@12@AEBVPxMeshScale@2@AEBVFastVertex2ShapeScaling@Cm@2@AEBV?$PxTransformT@M@2@3AEBV?$PxVec3T@M@2@MV?$PxFlags@W4Enum@PxHitFlag@physx@@G@2@_NM6M@Z 0000000180131550 f   GuSweepsMesh.obj
 0001:00130ec0       ??_ESweepBoxMeshHitCallback@Gu@physx@@UEAAPEAXI@Z 0000000180131ec0 f i GuSweepsMesh.obj
 0001:00130ec0       ??_GSweepBoxMeshHitCallback@Gu@physx@@UEAAPEAXI@Z 0000000180131ec0 f i GuSweepsMesh.obj
 0001:00130ef0       ??_ESweepConvexMeshHitCallback@Gu@physx@@UEAAPEAXI@Z 0000000180131ef0 f i GuSweepsMesh.obj
 0001:00130ef0       ??_GSweepConvexMeshHitCallback@Gu@physx@@UEAAPEAXI@Z 0000000180131ef0 f i GuSweepsMesh.obj
 0001:00130f20       ??_ESweepShapeMeshHitCallback@Gu@physx@@UEAAPEAXI@Z 0000000180131f20 f i GuSweepsMesh.obj
 0001:00130f20       ??_GSweepShapeMeshHitCallback@Gu@physx@@UEAAPEAXI@Z 0000000180131f20 f i GuSweepsMesh.obj
 0001:00130f50       ?finalizeHit@SweepBoxMeshHitCallback@Gu@physx@@QEBA_NAEAUPxGeomSweepHit@3@AEBVPxTriangleMeshGeometry@3@AEBV?$PxTransformT@M@3@2AEBV?$PxVec3T@M@3@_N4@Z 0000000180131f50 f   GuSweepsMesh.obj
 0001:00131610       ?finalizeHit@SweepCapsuleMeshHitCallback@Gu@physx@@QEBA_NAEAUPxGeomSweepHit@3@AEBVCapsule@23@AEBVPxTriangleMeshGeometry@3@AEBV?$PxTransformT@M@3@_N@Z 0000000180132610 f   GuSweepsMesh.obj
 0001:001317c0       ?finalizeHit@SweepConvexMeshHitCallback@Gu@physx@@QEAA_NAEAUPxGeomSweepHit@3@AEBVPxTriangleMeshGeometry@3@AEBV?$PxTransformT@M@3@AEBVPxConvexMeshGeometry@3@2AEBV?$PxVec3T@M@3@M_N555@Z 00000001801327c0 f   GuSweepsMesh.obj
 0001:00131c90       ?processHit@SweepBoxMeshHitCallback@Gu@physx@@UEAA_NAEBUPxGeomRaycastHit@3@AEBV?$PxVec3T@M@3@11AEAMPEBI@Z 0000000180132c90 f   GuSweepsMesh.obj
 0001:00132470       ?processHit@SweepCapsuleMeshHitCallback@Gu@physx@@UEAA_NAEBUPxGeomRaycastHit@3@AEBV?$PxVec3T@M@3@11AEAMPEBI@Z 0000000180133470 f   GuSweepsMesh.obj
 0001:001329e0       ?processHit@SweepConvexMeshHitCallback@Gu@physx@@UEAA_NAEBUPxGeomRaycastHit@3@AEBV?$PxVec3T@M@3@11AEAMPEBI@Z 00000001801339e0 f   GuSweepsMesh.obj
 0001:00133130       ?sweepBox_MeshGeom@@YA_NAEBVPxGeometry@physx@@AEBV?$PxTransformT@M@2@AEBVPxBoxGeometry@2@1AEBVBox@Gu@2@AEBV?$PxVec3T@M@2@MAEAUPxGeomSweepHit@2@V?$PxFlags@W4Enum@PxHitFlag@physx@@G@2@MPEAUPxQueryThreadContext@2@@Z 0000000180134130 f   GuSweepsMesh.obj
 0001:001331c0       ?sweepCapsule_MeshGeom@@YA_NAEBVPxGeometry@physx@@AEBV?$PxTransformT@M@2@AEBVPxCapsuleGeometry@2@1AEBVCapsule@Gu@2@AEBV?$PxVec3T@M@2@MAEAUPxGeomSweepHit@2@V?$PxFlags@W4Enum@PxHitFlag@physx@@G@2@MPEAUPxQueryThreadContext@2@@Z 00000001801341c0 f   GuSweepsMesh.obj
 0001:00133250       ?sweepConvex_MeshGeom@@YA_NAEBVPxGeometry@physx@@AEBV?$PxTransformT@M@2@AEBVPxConvexMeshGeometry@2@1AEBV?$PxVec3T@M@2@MAEAUPxGeomSweepHit@2@V?$PxFlags@W4Enum@PxHitFlag@physx@@G@2@MPEAUPxQueryThreadContext@2@@Z 0000000180134250 f   GuSweepsMesh.obj
 0001:00133d90       ??0TriangleMesh@Gu@physx@@QEAA@AEBUPxTriangleMeshInternalData@2@@Z 0000000180134d90 f   GuTriangleMesh.obj
 0001:00133e70       ??0TriangleMesh@Gu@physx@@QEAA@PEAVMeshFactory@12@AEAVTriangleMeshData@12@@Z 0000000180134e70 f   GuTriangleMesh.obj
 0001:001341f0       ??1TriangleMesh@Gu@physx@@UEAA@XZ 00000001801351f0 f   GuTriangleMesh.obj
 0001:00134460       ??_ETriangleMesh@Gu@physx@@UEAAPEAXI@Z 0000000180135460 f i GuTriangleMesh.obj
 0001:00134460       ??_GTriangleMesh@Gu@physx@@UEAAPEAXI@Z 0000000180135460 f i GuTriangleMesh.obj
 0001:001344d0       ?exportExtraData@TriangleMesh@Gu@physx@@UEAAXAEAVPxSerializationContext@3@@Z 00000001801354d0 f   GuTriangleMesh.obj
 0001:00134750       ?getLocalBounds@TriangleMesh@Gu@physx@@UEBA?AVPxBounds3@3@XZ 0000000180135750 f i GuTriangleMesh.obj
 0001:001347e0       ?getMassInformation@TriangleMesh@Gu@physx@@UEBAXAEAMAEAV?$PxMat33T@M@3@AEAV?$PxVec3T@M@3@@Z 00000001801357e0 f i GuTriangleMesh.obj
 0001:00134860       ?getNbTriangles@TriangleMesh@Gu@physx@@UEBAIXZ 0000000180135860 f i GuTriangleMesh.obj
 0001:00134870       ?getPreferSDFProjection@TriangleMesh@Gu@physx@@UEBA_NXZ 0000000180135870 f i GuTriangleMesh.obj
 0001:00134880       ?getSDF@TriangleMesh@Gu@physx@@UEBAPEBMXZ 0000000180135880 f i GuTriangleMesh.obj
 0001:00134890       ?getSDFDimensions@TriangleMesh@Gu@physx@@UEBAXAEAI00@Z 0000000180135890 f i GuTriangleMesh.obj
 0001:001348c0       ?getTriangleMaterialIndex@TriangleMesh@Gu@physx@@UEBAGI@Z 00000001801358c0 f i GuTriangleMesh.obj
 0001:001348e0       ?getTriangleMeshFlags@TriangleMesh@Gu@physx@@UEBA?AV?$PxFlags@W4Enum@PxTriangleMeshFlag@physx@@E@3@XZ 00000001801358e0 f i GuTriangleMesh.obj
 0001:001348f0       ?getTrianglesRemap@TriangleMesh@Gu@physx@@UEBAPEBIXZ 00000001801358f0 f i GuTriangleMesh.obj
 0001:00134900       ?getVerticesForModification@TriangleMesh@Gu@physx@@UEAAPEAV?$PxVec3T@M@3@XZ 0000000180135900 f   GuTriangleMesh.obj
 0001:00134940       ?importExtraData@TriangleMesh@Gu@physx@@QEAAXAEAVPxDeserializationContext@3@@Z 0000000180135940 f   GuTriangleMesh.obj
 0001:00134b60       ?isKindOf@PxTriangleMesh@physx@@MEBA_NPEBD@Z 0000000180135b60 f i GuTriangleMesh.obj
 0001:00134bf0       ?onRefCountZero@TriangleMesh@Gu@physx@@UEAAXXZ 0000000180135bf0 f   GuTriangleMesh.obj
 0001:00134cc0       ?refitBVH@TriangleMesh@Gu@physx@@UEAA?AVPxBounds3@3@XZ 0000000180135cc0 f   GuTriangleMesh.obj
 0001:00134d90       ?requestEdgeList@TriangleMesh@Gu@physx@@QEBAPEBVEdgeList@23@XZ 0000000180135d90 f   GuTriangleMesh.obj
 0001:00134e70       ?setAllEdgesActive@TriangleMesh@Gu@physx@@QEAAXXZ 0000000180135e70 f   GuTriangleMesh.obj
 0001:00134f60       ?setPreferSDFProjection@TriangleMesh@Gu@physx@@UEAAX_N@Z 0000000180135f60 f i GuTriangleMesh.obj
 0001:00134f90       ??0BV4TriangleMesh@Gu@physx@@QEAA@AEBUPxTriangleMeshInternalData@2@@Z 0000000180135f90 f   GuTriangleMeshBV4.obj
 0001:00135100       ??0BV4TriangleMesh@Gu@physx@@QEAA@PEAVMeshFactory@12@AEAVTriangleMeshData@12@@Z 0000000180136100 f   GuTriangleMeshBV4.obj
 0001:00135190       ??_EBV4TriangleMesh@Gu@physx@@UEAAPEAXI@Z 0000000180136190 f i GuTriangleMeshBV4.obj
 0001:00135190       ??_GBV4TriangleMesh@Gu@physx@@UEAAPEAXI@Z 0000000180136190 f i GuTriangleMeshBV4.obj
 0001:00135220       ?createObject@BV4TriangleMesh@Gu@physx@@SAPEAVTriangleMesh@23@AEAPEAEAEAVPxDeserializationContext@3@@Z 0000000180136220 f   GuTriangleMeshBV4.obj
 0001:001352f0       ?exportExtraData@BV4TriangleMesh@Gu@physx@@UEAAXAEAVPxSerializationContext@3@@Z 00000001801362f0 f   GuTriangleMeshBV4.obj
 0001:00135330       ?getConcreteTypeName@BV4TriangleMesh@Gu@physx@@UEBAPEBDXZ 0000000180136330 f i GuTriangleMeshBV4.obj
 0001:00135340       ?getInternalData@BV4TriangleMesh@Gu@physx@@UEBA_NAEAUPxTriangleMeshInternalData@3@_N@Z 0000000180136340 f   GuTriangleMeshBV4.obj
 0001:00135430       ?getMidphaseID@BV4TriangleMesh@Gu@physx@@UEBA?AW4Enum@PxMeshMidPhase@3@XZ 0000000180136430 f i GuTriangleMeshBV4.obj
 0001:00135430       ?getMidphaseID@BV4TriangleMeshBuilder@physx@@UEBA?AW4Enum@PxMeshMidPhase@2@XZ 0000000180136430 f i GuCookingTriangleMesh.obj
 0001:00135430       ?length@charNode@@UEBAHXZ  0000000180136430 f i libvcruntime:undname.obj
 0001:00135430       ?raw_length@charNode@@UEBAHXZ 0000000180136430 f i libvcruntime:undname.obj
 0001:00135430       DllMain                    0000000180136430 f i LIBCMT:dll_dllmain_stub.obj
 0001:00135430       _get_startup_argv_mode     0000000180136430 f i LIBCMT:argv_mode.obj
 0001:00135440       ?getVerticesForModification@BV4TriangleMesh@Gu@physx@@UEAAPEAV?$PxVec3T@M@3@XZ 0000000180136440 f   GuTriangleMeshBV4.obj
 0001:00135440       ?getVerticesForModification@RTreeTriangleMesh@Gu@physx@@UEAAPEAV?$PxVec3T@M@3@XZ 0000000180136440 f   GuTriangleMeshRTree.obj
 0001:00135450       ?refitBVH@BV4TriangleMesh@Gu@physx@@UEAA?AVPxBounds3@3@XZ 0000000180136450 f   GuTriangleMeshBV4.obj
 0001:001355c0       PxGetTriangleMeshInternalData 00000001801365c0 f   GuTriangleMeshBV4.obj
 0001:001355e0       ??0RTreeTriangleMesh@Gu@physx@@QEAA@PEAVMeshFactory@12@AEAVTriangleMeshData@12@@Z 00000001801365e0 f   GuTriangleMeshRTree.obj
 0001:00135750       ??_E?$RefitCallback@G@physx@@UEAAPEAXI@Z 0000000180136750 f i GuTriangleMeshRTree.obj
 0001:00135750       ??_E?$RefitCallback@I@physx@@UEAAPEAXI@Z 0000000180136750 f i GuTriangleMeshRTree.obj
 0001:00135750       ??_G?$RefitCallback@G@physx@@UEAAPEAXI@Z 0000000180136750 f i GuTriangleMeshRTree.obj
 0001:00135750       ??_G?$RefitCallback@I@physx@@UEAAPEAXI@Z 0000000180136750 f i GuTriangleMeshRTree.obj
 0001:00135780       ??_ERTreeTriangleMesh@Gu@physx@@UEAAPEAXI@Z 0000000180136780 f i GuTriangleMeshRTree.obj
 0001:00135780       ??_GRTreeTriangleMesh@Gu@physx@@UEAAPEAXI@Z 0000000180136780 f i GuTriangleMeshRTree.obj
 0001:00135830       ?createObject@RTreeTriangleMesh@Gu@physx@@SAPEAVTriangleMesh@23@AEAPEAEAEAVPxDeserializationContext@3@@Z 0000000180136830 f   GuTriangleMeshRTree.obj
 0001:001358b0       ?exportExtraData@RTreeTriangleMesh@Gu@physx@@UEAAXAEAVPxSerializationContext@3@@Z 00000001801368b0 f   GuTriangleMeshRTree.obj
 0001:001358f0       ?getConcreteTypeName@RTreeTriangleMesh@Gu@physx@@UEBAPEBDXZ 00000001801368f0 f i GuTriangleMeshRTree.obj
 0001:00135900       ?recomputeBounds@?$RefitCallback@G@physx@@UEAAXIAEAT__m128@@0@Z 0000000180136900 f i GuTriangleMeshRTree.obj
 0001:00135c30       ?recomputeBounds@?$RefitCallback@I@physx@@UEAAXIAEAT__m128@@0@Z 0000000180136c30 f i GuTriangleMeshRTree.obj
 0001:00135f50       ?refitBVH@RTreeTriangleMesh@Gu@physx@@UEAA?AVPxBounds3@3@XZ 0000000180136f50 f   GuTriangleMeshRTree.obj
 0001:00136070       ??0BV32Tree@Gu@physx@@QEAA@W4PxEMPTY@2@@Z 0000000180137070 f   GuBV32.obj
 0001:00136090       ??0BV32Tree@Gu@physx@@QEAA@XZ 0000000180137090 f   GuBV32.obj
 0001:001360c0       ??1BV32Tree@Gu@physx@@QEAA@XZ 00000001801370c0 f   GuBV32.obj
 0001:001360d0       ?createSOAformatNode@BV32Tree@Gu@physx@@QEAAXAEAUBV32DataPacked@23@AEBUBV32Data@23@IAEAI2@Z 00000001801370d0 f   GuBV32.obj
 0001:00136530       ?exportExtraData@BV32Tree@Gu@physx@@QEAAXAEAVPxSerializationContext@3@@Z 0000000180137530 f   GuBV32.obj
 0001:00136570       ?importExtraData@BV32Tree@Gu@physx@@QEAAXAEAVPxDeserializationContext@3@@Z 0000000180137570 f   GuBV32.obj
 0001:001365a0       ?load@BV32Tree@Gu@physx@@QEAA_NAEAVPxInputStream@3@_N@Z 00000001801375a0 f   GuBV32.obj
 0001:001368e0       ?release@BV32Tree@Gu@physx@@QEAAXXZ 00000001801378e0 f   GuBV32.obj
 0001:001369a0       ??0BV32Node@@QEAA@XZ       00000001801379a0 f i GuBV32Build.obj
 0001:00136e20       ?BuildBV32Ex@Gu@physx@@YA_NAEAVBV32Tree@12@AEAVSourceMeshBase@12@MI@Z 0000000180137e20 f   GuBV32Build.obj
 0001:00137e10       ??0BVTetrahedronMesh@Gu@physx@@QEAA@AEAVTetrahedronMeshData@12@AEAVDeformableVolumeCollisionData@12@PEAVMeshFactory@12@@Z 0000000180138e10 f   GuTetrahedronMesh.obj
 0001:00138070       ??0DeformableVolumeMesh@Gu@physx@@QEAA@PEAVMeshFactory@12@AEAVDeformableVolumeMeshData@12@@Z 0000000180139070 f   GuTetrahedronMesh.obj
 0001:00138410       ??0TetrahedronMesh@Gu@physx@@QEAA@PEAVMeshFactory@12@AEAVTetrahedronMeshData@12@@Z 0000000180139410 f   GuTetrahedronMesh.obj
 0001:00138500       ??1DeformableVolumeAuxData@Gu@physx@@UEAA@XZ 0000000180139500 f   GuTetrahedronMesh.obj
 0001:00138780       ??1TetrahedronMesh@Gu@physx@@UEAA@XZ 0000000180139780 f   GuTetrahedronMesh.obj
 0001:00138820       ??_EBVTetrahedronMesh@Gu@physx@@UEAAPEAXI@Z 0000000180139820 f i GuTetrahedronMesh.obj
 0001:00138820       ??_GBVTetrahedronMesh@Gu@physx@@UEAAPEAXI@Z 0000000180139820 f i GuTetrahedronMesh.obj
 0001:001389a0       ??_EDeformableVolumeAuxData@Gu@physx@@UEAAPEAXI@Z 00000001801399a0 f i GuTetrahedronMesh.obj
 0001:001389a0       ??_GDeformableVolumeAuxData@Gu@physx@@UEAAPEAXI@Z 00000001801399a0 f i GuTetrahedronMesh.obj
 0001:00138a10       ??_EDeformableVolumeMesh@Gu@physx@@UEAAPEAXI@Z 0000000180139a10 f i GuTetrahedronMesh.obj
 0001:00138a10       ??_GDeformableVolumeMesh@Gu@physx@@UEAAPEAXI@Z 0000000180139a10 f i GuTetrahedronMesh.obj
 0001:00138ae0       ??_ETetrahedronMesh@Gu@physx@@UEAAPEAXI@Z 0000000180139ae0 f i GuTetrahedronMesh.obj
 0001:00138ae0       ??_GTetrahedronMesh@Gu@physx@@UEAAPEAXI@Z 0000000180139ae0 f i GuTetrahedronMesh.obj
 0001:00138b50       ?exportExtraData@DeformableVolumeMesh@Gu@physx@@UEAAXAEAVPxSerializationContext@3@@Z 0000000180139b50 f   GuTetrahedronMesh.obj
 0001:00138c40       ?getConcreteTypeName@DeformableVolumeAuxData@Gu@physx@@UEBAPEBDXZ 0000000180139c40 f i GuTetrahedronMesh.obj
 0001:00138c50       ?getConcreteTypeName@DeformableVolumeMesh@Gu@physx@@UEBAPEBDXZ 0000000180139c50 f i GuTetrahedronMesh.obj
 0001:00138c60       ?getConcreteTypeName@TetrahedronMesh@Gu@physx@@UEBAPEBDXZ 0000000180139c60 f i GuTetrahedronMesh.obj
 0001:00138c70       ?getLocalBounds@TetrahedronMesh@Gu@physx@@UEBA?AVPxBounds3@3@XZ 0000000180139c70 f i GuTetrahedronMesh.obj
 0001:00138d00       ?getNbTetrahedrons@TetrahedronMesh@Gu@physx@@UEBAIXZ 0000000180139d00 f i GuTetrahedronMesh.obj
 0001:00138d10       ?getBounds@BVH@Gu@physx@@UEBAPEBVPxBounds3@3@XZ 0000000180139d10 f i GuBVH.obj
 0001:00138d10       ?getTetrahedraRemap@BVTetrahedronMesh@Gu@physx@@UEBAPEBIXZ 0000000180139d10 f i GuTetrahedronMesh.obj
 0001:00138d20       ?getTetrahedronMeshFlags@TetrahedronMesh@Gu@physx@@UEBA?AV?$PxFlags@W4Enum@PxTetrahedronMeshFlag@physx@@E@3@XZ 0000000180139d20 f i GuTetrahedronMesh.obj
 0001:00138d30       ?getTetrahedrons@TetrahedronMesh@Gu@physx@@UEBAPEBXXZ 0000000180139d30 f i GuTetrahedronMesh.obj
 0001:00138d40       ?isKindOf@PxDeformableVolumeAuxData@physx@@MEBA_NPEBD@Z 0000000180139d40 f i GuTetrahedronMesh.obj
 0001:00138dd0       ?isKindOf@PxDeformableVolumeMesh@physx@@MEBA_NPEBD@Z 0000000180139dd0 f i GuTetrahedronMesh.obj
 0001:00138e60       ?isKindOf@PxTetrahedronMesh@physx@@MEBA_NPEBD@Z 0000000180139e60 f i GuTetrahedronMesh.obj
 0001:00138ef0       ?onRefCountZero@DeformableVolumeAuxData@Gu@physx@@UEAAXXZ 0000000180139ef0 f i GuTetrahedronMesh.obj
 0001:00138ef0       ?release@SimulationTetrahedronMeshData@Gu@physx@@UEAAXXZ 0000000180139ef0 f i GuCookingTetrahedronMesh.obj
 0001:00138f10       ?onRefCountZero@DeformableVolumeMesh@Gu@physx@@UEAAXXZ 0000000180139f10 f   GuTetrahedronMesh.obj
 0001:00138fb0       ?onRefCountZero@TetrahedronMesh@Gu@physx@@UEAAXXZ 0000000180139fb0 f   GuTetrahedronMesh.obj
 0001:00139050       ?PxComputeBarycentric@physx@@YAXAEBV?$PxVec3T@M@1@0000AEAV?$PxVec4T@M@1@@Z 000000018013a050 f i GuTetrahedronMeshUtils.obj
 0001:00139300       ?addAxisToSimMeshBarycentric@Gu@physx@@YA?AV?$PxVec4T@M@2@AEBVPxTetrahedronMesh@2@IAEBV32@AEBV?$PxVec3T@M@2@@Z 000000018013a300 f   GuTetrahedronMeshUtils.obj
 0001:001395c0       ?closestPtPointTetrahedron@Gu@physx@@YA?AV?$PxVec3T@M@2@AEBV32@0000@Z 000000018013a5c0 f i GuTetrahedronMeshUtils.obj
 0001:0013a730       ?convertDeformableVolumeCollisionToSimMeshTets@Gu@physx@@YAXAEBVPxTetrahedronMesh@2@AEBVDeformableVolumeAuxData@12@AEBVBVTetrahedronMesh@12@IAEBV?$PxVec4T@M@2@AEAIAEAV62@_N@Z 000000018013b730 f   GuTetrahedronMeshUtils.obj
 0001:0013d0c0       ?pcmContactBoxBox@Gu@physx@@YA_NAEBVPxGeometry@2@0AEBUPxTransformPadded@2@1AEBUNarrowPhaseParams@12@AEAUCache@12@AEAVPxContactBuffer@2@PEAVPxRenderOutput@2@@Z 000000018013e0c0 f   GuPCMContactBoxBox.obj
 0001:0013df60       ??$gjkPenetration@U?$RelativeConvex@VBoxV@Gu@physx@@@Gu@physx@@U?$LocalConvex@VConvexHullNoScaleV@Gu@physx@@@23@@Gu@physx@@YA?AW4GjkStatus@01@AEBU?$RelativeConvex@VBoxV@Gu@physx@@@01@AEBU?$LocalConvex@VConvexHullNoScaleV@Gu@physx@@@01@AEBT__m128@@2_NPEIAE4AEAEAEAUGjkOutput@01@@Z 000000018013ef60 f i GuPCMContactBoxConvex.obj
 0001:0013dfd0       ??$gjkPenetration@U?$RelativeConvex@VBoxV@Gu@physx@@@Gu@physx@@U?$LocalConvex@VConvexHullNoScaleV@Gu@physx@@@23@@Gu@physx@@YA?AW4GjkStatus@01@AEBU?$RelativeConvex@VBoxV@Gu@physx@@@01@AEBU?$LocalConvex@VConvexHullNoScaleV@Gu@physx@@@01@AEBT__m128@@2_NPEIAE4PEIAT5@5AEAEAEAUGjkOutput@01@@Z 000000018013efd0 f i GuPCMContactBoxConvex.obj
 0001:0013fb50       ?pcmContactBoxConvex@Gu@physx@@YA_NAEBVPxGeometry@2@0AEBUPxTransformPadded@2@1AEBUNarrowPhaseParams@12@AEAUCache@12@AEAVPxContactBuffer@2@PEAVPxRenderOutput@2@@Z 0000000180140b50 f   GuPCMContactBoxConvex.obj
 0001:00140930       ?support@?$LocalConvex@VConvexHullNoScaleV@Gu@physx@@@Gu@physx@@UEBA?AT__m128@@AEBT4@@Z 0000000180141930 f i GuPCMContactBoxConvex.obj
 0001:00140980       ?support@?$LocalConvex@VConvexHullNoScaleV@Gu@physx@@@Gu@physx@@UEBA?AT__m128@@AEBT4@AEAH@Z 0000000180141980 f i GuPCMContactBoxConvex.obj
 0001:001409e0       ?supportPoint@?$LocalConvex@VConvexHullNoScaleV@Gu@physx@@@Gu@physx@@UEBA?AT__m128@@H@Z 00000001801419e0 f i GuPCMContactBoxConvex.obj
 0001:00140a10       ?pcmContactCapsuleBox@Gu@physx@@YA_NAEBVPxGeometry@2@0AEBUPxTransformPadded@2@1AEBUNarrowPhaseParams@12@AEAUCache@12@AEAVPxContactBuffer@2@PEAVPxRenderOutput@2@@Z 0000000180141a10 f   GuPCMContactCapsuleBox.obj
 0001:00141970       ?pcmContactCapsuleCapsule@Gu@physx@@YA_NAEBVPxGeometry@2@0AEBUPxTransformPadded@2@1AEBUNarrowPhaseParams@12@AEAUCache@12@AEAVPxContactBuffer@2@PEAVPxRenderOutput@2@@Z 0000000180142970 f   GuPCMContactCapsuleCapsule.obj
 0001:00142110       ??$gjkPenetration@U?$LocalConvex@VCapsuleV@Gu@physx@@@Gu@physx@@U?$LocalConvex@VConvexHullNoScaleV@Gu@physx@@@23@@Gu@physx@@YA?AW4GjkStatus@01@AEBU?$LocalConvex@VCapsuleV@Gu@physx@@@01@AEBU?$LocalConvex@VConvexHullNoScaleV@Gu@physx@@@01@AEBT__m128@@2_NPEIAE4AEAEAEAUGjkOutput@01@@Z 0000000180143110 f i GuPCMContactCapsuleConvex.obj
 0001:00142180       ??$gjkPenetration@U?$LocalConvex@VCapsuleV@Gu@physx@@@Gu@physx@@U?$LocalConvex@VConvexHullNoScaleV@Gu@physx@@@23@@Gu@physx@@YA?AW4GjkStatus@01@AEBU?$LocalConvex@VCapsuleV@Gu@physx@@@01@AEBU?$LocalConvex@VConvexHullNoScaleV@Gu@physx@@@01@AEBT__m128@@2_NPEIAE4PEIAT5@5AEAEAEAUGjkOutput@01@@Z 0000000180143180 f i GuPCMContactCapsuleConvex.obj
 0001:00143840       ?pcmContactCapsuleConvex@Gu@physx@@YA_NAEBVPxGeometry@2@0AEBUPxTransformPadded@2@1AEBUNarrowPhaseParams@12@AEAUCache@12@AEAVPxContactBuffer@2@PEAVPxRenderOutput@2@@Z 0000000180144840 f   GuPCMContactCapsuleConvex.obj
 0001:00144a60       ??_EPCMCapsuleVsHeightfieldContactGenerationCallback@@UEAAPEAXI@Z 0000000180145a60 f i GuPCMContactCapsuleHeightField.obj
 0001:00144a60       ??_GPCMCapsuleVsHeightfieldContactGenerationCallback@@UEAAPEAXI@Z 0000000180145a60 f i GuPCMContactCapsuleHeightField.obj
 0001:00144a90       ?pcmContactCapsuleHeightField@Gu@physx@@YA_NAEBVPxGeometry@2@0AEBUPxTransformPadded@2@1AEBUNarrowPhaseParams@12@AEAUCache@12@AEAVPxContactBuffer@2@PEAVPxRenderOutput@2@@Z 0000000180145a90 f   GuPCMContactCapsuleHeightField.obj
 0001:001459a0       ?reportTouchedTris@?$PCMHeightfieldContactGenerationCallback@UPCMCapsuleVsHeightfieldContactGenerationCallback@@@Gu@physx@@UEAA_NIPEBI@Z 00000001801469a0 f i GuPCMContactCapsuleHeightField.obj
 0001:00146010       ?generateContacts@PCMCapsuleVsMeshContactGeneration@Gu@physx@@SAXAEBT__m128@@0000I000PEAVMeshPersistentContact@23@AEAI@Z 0000000180147010 f   GuPCMContactCapsuleMesh.obj
 0001:00146430       ?generateEE@PCMCapsuleVsMeshContactGeneration@Gu@physx@@QEAAXAEBT__m128@@000I00PEAVMeshPersistentContact@23@AEAI@Z 0000000180147430 f   GuPCMContactCapsuleMesh.obj
 0001:001466a0       ?generateEEMTD@PCMCapsuleVsMeshContactGeneration@Gu@physx@@SAXAEBT__m128@@000I00PEAVMeshPersistentContact@23@AEAI@Z 00000001801476a0 f   GuPCMContactCapsuleMesh.obj
 0001:001468d0       ?pcmContactCapsuleMesh@Gu@physx@@YA_NAEBVPxGeometry@2@0AEBUPxTransformPadded@2@1AEBUNarrowPhaseParams@12@AEAUCache@12@AEAVPxContactBuffer@2@PEAVPxRenderOutput@2@@Z 00000001801478d0 f   GuPCMContactCapsuleMesh.obj
 0001:00148140       ?pcmDistanceSegmentTriangleSquaredExported@@YA?AT__m128@@AEBT1@0000AEAT1@11@Z 0000000180149140 f   GuPCMContactCapsuleMesh.obj
 0001:001485a0       ?processTriangle@PCMCapsuleVsMeshContactGeneration@Gu@physx@@QEAA_NPEBV?$PxVec3T@M@3@IEPEBI@Z 00000001801495a0 f   GuPCMContactCapsuleMesh.obj
 0001:00149190       ?processTriangle@PCMCapsuleVsMeshContactGeneration@Gu@physx@@SA_NAEBVTriangleV@23@IAEBVCapsuleV@23@AEBT__m128@@EPEAVMeshPersistentContact@23@AEAI@Z 000000018014a190 f   GuPCMContactCapsuleMesh.obj
 0001:001494c0       ?addContactsToPatch@PCMConvexVsMeshContactGeneration@Gu@physx@@QEAAXAEBT__m128@@I@Z 000000018014a4c0 f   GuPCMContactConvexCommon.obj
 0001:00149df0       ?doSupport@?$SupportLocalImpl@VTriangleV@Gu@physx@@@Gu@physx@@UEBA?AT__m128@@AEBT4@@Z 000000018014adf0 f i GuPCMContactConvexCommon.obj
 0001:00149e80       ?doSupport@?$SupportLocalImpl@VTriangleV@Gu@physx@@@Gu@physx@@UEBAXAEBT__m128@@AEAT4@1@Z 000000018014ae80 f i GuPCMContactConvexCommon.obj
 0001:00149ef0       ?generateLastContacts@PCMConvexVsMeshContactGeneration@Gu@physx@@QEAAXXZ 000000018014aef0 f   GuPCMContactConvexCommon.obj
 0001:0014a450       ?populateVerts@?$SupportLocalImpl@VTriangleV@Gu@physx@@@Gu@physx@@UEBAXPEBEIPEBV?$PxVec3T@M@3@PEAT__m128@@@Z 000000018014b450 f i GuPCMContactConvexCommon.obj
 0001:0014a590       ?processTriangle@PCMConvexVsMeshContactGeneration@Gu@physx@@QEAA_NPEBV?$PxVec3T@M@3@IEPEBI@Z 000000018014b590 f   GuPCMContactConvexCommon.obj
 0001:0014ab50       ?processTriangle@PCMConvexVsMeshContactGeneration@Gu@physx@@SA_NAEBUPolygonalData@23@PEBVSupportLocal@23@PEBV?$PxVec3T@M@3@IEAEBT__m128@@_NAEBVPxTransformV@aos@3@AEBVPxMatTransformV@93@PEAVMeshPersistentContact@23@AEAI@Z 000000018014bb50 f   GuPCMContactConvexCommon.obj
 0001:0014add0       ??$gjkPenetration@U?$RelativeConvex@VConvexHullNoScaleV@Gu@physx@@@Gu@physx@@U?$LocalConvex@VConvexHullNoScaleV@Gu@physx@@@23@@Gu@physx@@YA?AW4GjkStatus@01@AEBU?$RelativeConvex@VConvexHullNoScaleV@Gu@physx@@@01@AEBU?$LocalConvex@VConvexHullNoScaleV@Gu@physx@@@01@AEBT__m128@@2_NPEIAE4AEAEAEAUGjkOutput@01@@Z 000000018014bdd0 f i GuPCMContactConvexConvex.obj
 0001:0014ae40       ??$gjkPenetration@U?$RelativeConvex@VConvexHullNoScaleV@Gu@physx@@@Gu@physx@@U?$LocalConvex@VConvexHullNoScaleV@Gu@physx@@@23@@Gu@physx@@YA?AW4GjkStatus@01@AEBU?$RelativeConvex@VConvexHullNoScaleV@Gu@physx@@@01@AEBU?$LocalConvex@VConvexHullNoScaleV@Gu@physx@@@01@AEBT__m128@@2_NPEIAE4PEIAT5@5AEAEAEAUGjkOutput@01@@Z 000000018014be40 f i GuPCMContactConvexConvex.obj
 0001:0014c360       ??$gjkPenetration@U?$RelativeConvex@VConvexHullNoScaleV@Gu@physx@@@Gu@physx@@U?$LocalConvex@VConvexHullV@Gu@physx@@@23@@Gu@physx@@YA?AW4GjkStatus@01@AEBU?$RelativeConvex@VConvexHullNoScaleV@Gu@physx@@@01@AEBU?$LocalConvex@VConvexHullV@Gu@physx@@@01@AEBT__m128@@2_NPEIAE4AEAEAEAUGjkOutput@01@@Z 000000018014d360 f i GuPCMContactConvexConvex.obj
 0001:0014c3d0       ??$gjkPenetration@U?$RelativeConvex@VConvexHullNoScaleV@Gu@physx@@@Gu@physx@@U?$LocalConvex@VConvexHullV@Gu@physx@@@23@@Gu@physx@@YA?AW4GjkStatus@01@AEBU?$RelativeConvex@VConvexHullNoScaleV@Gu@physx@@@01@AEBU?$LocalConvex@VConvexHullV@Gu@physx@@@01@AEBT__m128@@2_NPEIAE4PEIAT5@5AEAEAEAUGjkOutput@01@@Z 000000018014d3d0 f i GuPCMContactConvexConvex.obj
 0001:0014d980       ??$gjkPenetration@U?$RelativeConvex@VConvexHullV@Gu@physx@@@Gu@physx@@U?$LocalConvex@VConvexHullNoScaleV@Gu@physx@@@23@@Gu@physx@@YA?AW4GjkStatus@01@AEBU?$RelativeConvex@VConvexHullV@Gu@physx@@@01@AEBU?$LocalConvex@VConvexHullNoScaleV@Gu@physx@@@01@AEBT__m128@@2_NPEIAE4AEAEAEAUGjkOutput@01@@Z 000000018014e980 f i GuPCMContactConvexConvex.obj
 0001:0014d9f0       ??$gjkPenetration@U?$RelativeConvex@VConvexHullV@Gu@physx@@@Gu@physx@@U?$LocalConvex@VConvexHullNoScaleV@Gu@physx@@@23@@Gu@physx@@YA?AW4GjkStatus@01@AEBU?$RelativeConvex@VConvexHullV@Gu@physx@@@01@AEBU?$LocalConvex@VConvexHullNoScaleV@Gu@physx@@@01@AEBT__m128@@2_NPEIAE4PEIAT5@5AEAEAEAUGjkOutput@01@@Z 000000018014e9f0 f i GuPCMContactConvexConvex.obj
 0001:0014f990       ?pcmContactConvexConvex@Gu@physx@@YA_NAEBVPxGeometry@2@0AEBUPxTransformPadded@2@1AEBUNarrowPhaseParams@12@AEAUCache@12@AEAVPxContactBuffer@2@PEAVPxRenderOutput@2@@Z 0000000180150990 f   GuPCMContactConvexConvex.obj
 0001:00150ae0       ?support@?$RelativeConvex@VConvexHullNoScaleV@Gu@physx@@@Gu@physx@@UEBA?AT__m128@@AEBT4@@Z 0000000180151ae0 f i GuPCMContactConvexConvex.obj
 0001:00150b90       ?support@?$RelativeConvex@VConvexHullNoScaleV@Gu@physx@@@Gu@physx@@UEBA?AT__m128@@AEBT4@AEAH@Z 0000000180151b90 f i GuPCMContactConvexConvex.obj
 0001:00150c50       ?supportPoint@?$RelativeConvex@VConvexHullNoScaleV@Gu@physx@@@Gu@physx@@UEBA?AT__m128@@H@Z 0000000180151c50 f i GuPCMContactConvexConvex.obj
 0001:00150ce0       ?PCMContactConvexHeightfield@Gu@physx@@YA_NAEBUPolygonalData@12@PEBVSupportLocal@12@AEBT__m128@@AEBVPxBounds3@2@AEBVPxHeightFieldGeometry@2@AEBV?$PxTransformT@M@2@5MAEAVPxContactBuffer@2@AEBVFastVertex2ShapeScaling@Cm@2@_NAEAVMultiplePersistentContactManifold@12@PEAVPxRenderOutput@2@@Z 0000000180151ce0 f   GuPCMContactConvexHeightField.obj
 0001:00151b60       ?pcmContactBoxHeightField@Gu@physx@@YA_NAEBVPxGeometry@2@0AEBUPxTransformPadded@2@1AEBUNarrowPhaseParams@12@AEAUCache@12@AEAVPxContactBuffer@2@PEAVPxRenderOutput@2@@Z 0000000180152b60 f   GuPCMContactConvexHeightField.obj
 0001:00151e00       ?pcmContactConvexHeightField@Gu@physx@@YA_NAEBVPxGeometry@2@0AEBUPxTransformPadded@2@1AEBUNarrowPhaseParams@12@AEAUCache@12@AEAVPxContactBuffer@2@PEAVPxRenderOutput@2@@Z 0000000180152e00 f   GuPCMContactConvexHeightField.obj
 0001:00152b40       ?PCMContactConvexMesh@Gu@physx@@YA_NAEBUPolygonalData@12@PEBVSupportLocal@12@AEBT__m128@@AEBVPxBounds3@2@AEBVPxTriangleMeshGeometry@2@AEBV?$PxTransformT@M@2@5MAEAVPxContactBuffer@2@AEBVFastVertex2ShapeScaling@Cm@2@7_N8AEAVMultiplePersistentContactManifold@12@PEAVPxRenderOutput@2@@Z 0000000180153b40 f   GuPCMContactConvexMesh.obj
 0001:00153640       ?pcmContactBoxMesh@Gu@physx@@YA_NAEBVPxGeometry@2@0AEBUPxTransformPadded@2@1AEBUNarrowPhaseParams@12@AEAUCache@12@AEAVPxContactBuffer@2@PEAVPxRenderOutput@2@@Z 0000000180154640 f   GuPCMContactConvexMesh.obj
 0001:00153980       ?pcmContactConvexMesh@Gu@physx@@YA_NAEBVPxGeometry@2@0AEBUPxTransformPadded@2@1AEBUNarrowPhaseParams@12@AEAUCache@12@AEAVPxContactBuffer@2@PEAVPxRenderOutput@2@@Z 0000000180154980 f   GuPCMContactConvexMesh.obj
 0001:00154580       ?addGJKEPAContacts@Gu@physx@@YA_NPEBUGjkConvex@12@0AEBVPxMatTransformV@aos@2@W4GjkStatus@12@PEAVPersistentContact@12@T__m128@@4AEAUGjkOutput@12@AEAVPersistentContactManifold@12@@Z 0000000180155580 f   GuPCMContactGenBoxConvex.obj
 0001:00154a30       ?computeMTD@Gu@physx@@YA_NAEBUPolygonalData@12@0PEBVSupportLocal@12@1AEAT__m128@@2@Z 0000000180155a30 f   GuPCMContactGenBoxConvex.obj
 0001:00155060       ?generateFullContactManifold@Gu@physx@@YA_NAEBUPolygonalData@12@0PEBVSupportLocal@12@1PEAVPersistentContact@12@AEAIAEBT__m128@@444MM_NPEAVPxRenderOutput@2@M@Z 0000000180156060 f   GuPCMContactGenBoxConvex.obj
 0001:00157010       ?computeMTD@Gu@physx@@YA_NAEBVCapsuleV@12@AEBUPolygonalData@12@PEBVSupportLocal@12@AEAT__m128@@3@Z 0000000180158010 f   GuPCMContactGenSphereCapsule.obj
 0001:00157100       ?generateCapsuleBoxFullContactManifold@Gu@physx@@YA_NAEBVCapsuleV@12@AEBUPolygonalData@12@PEBVSupportLocal@12@AEBVPxMatTransformV@aos@2@PEAVPersistentContact@12@AEAIAEBT__m128@@AEAT9@6M_NMPEAVPxRenderOutput@2@@Z 0000000180158100 f   GuPCMContactGenSphereCapsule.obj
 0001:001572a0       ?generateFullContactManifold@Gu@physx@@YA_NAEBVCapsuleV@12@AEBUPolygonalData@12@PEBVSupportLocal@12@AEBVPxMatTransformV@aos@2@PEAVPersistentContact@12@AEAIAEBT__m128@@AEAT9@6M_NM@Z 00000001801582a0 f   GuPCMContactGenSphereCapsule.obj
 0001:00157490       ?generateSphereFullContactManifold@Gu@physx@@YA_NAEBVCapsuleV@12@AEBUPolygonalData@12@PEBVSupportLocal@12@PEAVPersistentContact@12@AEAIAEBT__m128@@AEAT7@_N@Z 0000000180158490 f   GuPCMContactGenSphereCapsule.obj
 0001:00158960       ?pcmContactPlaneBox@Gu@physx@@YA_NAEBVPxGeometry@2@0AEBUPxTransformPadded@2@1AEBUNarrowPhaseParams@12@AEAUCache@12@AEAVPxContactBuffer@2@PEAVPxRenderOutput@2@@Z 0000000180159960 f   GuPCMContactPlaneBox.obj
 0001:00159520       ?pcmContactPlaneCapsule@Gu@physx@@YA_NAEBVPxGeometry@2@0AEBUPxTransformPadded@2@1AEBUNarrowPhaseParams@12@AEAUCache@12@AEAVPxContactBuffer@2@PEAVPxRenderOutput@2@@Z 000000018015a520 f   GuPCMContactPlaneCapsule.obj
 0001:00159ca0       ?pcmContactPlaneConvex@Gu@physx@@YA_NAEBVPxGeometry@2@0AEBUPxTransformPadded@2@1AEBUNarrowPhaseParams@12@AEAUCache@12@AEAVPxContactBuffer@2@PEAVPxRenderOutput@2@@Z 000000018015aca0 f   GuPCMContactPlaneConvex.obj
 0001:0015a900       ?pcmContactSphereBox@Gu@physx@@YA_NAEBVPxGeometry@2@0AEBUPxTransformPadded@2@1AEBUNarrowPhaseParams@12@AEAUCache@12@AEAVPxContactBuffer@2@PEAVPxRenderOutput@2@@Z 000000018015b900 f   GuPCMContactSphereBox.obj
 0001:0015ad60       ?pcmContactSphereCapsule@Gu@physx@@YA_NAEBVPxGeometry@2@0AEBUPxTransformPadded@2@1AEBUNarrowPhaseParams@12@AEAUCache@12@AEAVPxContactBuffer@2@PEAVPxRenderOutput@2@@Z 000000018015bd60 f   GuPCMContactSphereCapsule.obj
 0001:0015b1d0       ?pcmContactSphereConvex@Gu@physx@@YA_NAEBVPxGeometry@2@0AEBUPxTransformPadded@2@1AEBUNarrowPhaseParams@12@AEAUCache@12@AEAVPxContactBuffer@2@PEAVPxRenderOutput@2@@Z 000000018015c1d0 f   GuPCMContactSphereConvex.obj
 0001:0015be80       ??1?$PxArray@USortedTriangle@Gu@physx@@V?$PxInlineAllocator@$0IAA@V?$PxReflectionAllocator@USortedTriangle@Gu@physx@@@physx@@@3@@physx@@QEAA@XZ 000000018015ce80 f i GuPCMContactSphereHeightField.obj
 0001:0015bf40       ?pcmContactSphereHeightField@Gu@physx@@YA_NAEBVPxGeometry@2@0AEBUPxTransformPadded@2@1AEBUNarrowPhaseParams@12@AEAUCache@12@AEAVPxContactBuffer@2@PEAVPxRenderOutput@2@@Z 000000018015cf40 f   GuPCMContactSphereHeightField.obj
 0001:0015cfc0       ??$PxSort@USortedTriangle@Gu@physx@@U?$PxLess@USortedTriangle@Gu@physx@@@3@V?$PxReflectionAllocator@USortedTriangle@Gu@physx@@@3@@physx@@YAXPEAUSortedTriangle@Gu@0@IAEBU?$PxLess@USortedTriangle@Gu@physx@@@0@AEBV?$PxReflectionAllocator@USortedTriangle@Gu@physx@@@0@I@Z 000000018015dfc0 f i GuPCMContactSphereMesh.obj
 0001:0015d4e0       ??$processTriangleCache@$0BA@VPCMSphereVsMeshContactGeneration@Gu@physx@@@PCMMeshContactGeneration@Gu@physx@@QEAA_NAEAU?$TriangleCache@$0BA@@12@@Z 000000018015e4e0 f i GuPCMContactSphereMesh.obj
 0001:0015d9b0       ?addToPatch@PCMSphereVsMeshContactGeneration@Gu@physx@@QEAAXAEBT__m128@@0T4@I@Z 000000018015e9b0 f   GuPCMContactSphereMesh.obj
 0001:0015e070       ?allocate@?$PxArray@IV?$PxInlineAllocator@$0PAA@V?$PxReflectionAllocator@I@physx@@@physx@@@physx@@IEAAPEAIIPEAI@Z 000000018015f070 f i GuPCMContactSphereMesh.obj
 0001:0015e130       ?allocate@?$PxArray@USortedTriangle@Gu@physx@@V?$PxInlineAllocator@$0IAA@V?$PxReflectionAllocator@USortedTriangle@Gu@physx@@@physx@@@3@@physx@@IEAAPEAUSortedTriangle@Gu@2@IPEAI@Z 000000018015f130 f i GuPCMContactSphereMesh.obj
 0001:0015e1f0       ?generateLastContacts@PCMSphereVsMeshContactGeneration@Gu@physx@@QEAAXXZ 000000018015f1f0 f   GuPCMContactSphereMesh.obj
 0001:0015e820       ?growAndPushBack@?$PxArray@USortedTriangle@Gu@physx@@V?$PxInlineAllocator@$0IAA@V?$PxReflectionAllocator@USortedTriangle@Gu@physx@@@physx@@@3@@physx@@IEAAAEAUSortedTriangle@Gu@2@AEBU342@@Z 000000018015f820 f i GuPCMContactSphereMesh.obj
 0001:0015e930       ?pcmContactSphereMesh@Gu@physx@@YA_NAEBVPxGeometry@2@0AEBUPxTransformPadded@2@1AEBUNarrowPhaseParams@12@AEAUCache@12@AEAVPxContactBuffer@2@PEAVPxRenderOutput@2@@Z 000000018015f930 f   GuPCMContactSphereMesh.obj
 0001:0015fea0       ?processTriangle@PCMSphereVsMeshContactGeneration@Gu@physx@@QEAA_NPEBV?$PxVec3T@M@3@IEPEBI@Z 0000000180160ea0 f   GuPCMContactSphereMesh.obj
 0001:00160290       ?recreate@?$PxArray@IV?$PxInlineAllocator@$0PAA@V?$PxReflectionAllocator@I@physx@@@physx@@@physx@@IEAAXI@Z 0000000180161290 f i GuPCMContactSphereMesh.obj
 0001:00160350       ?pcmContactSpherePlane@Gu@physx@@YA_NAEBVPxGeometry@2@0AEBUPxTransformPadded@2@1AEBUNarrowPhaseParams@12@AEAUCache@12@AEAVPxContactBuffer@2@PEAVPxRenderOutput@2@@Z 0000000180161350 f   GuPCMContactSpherePlane.obj
 0001:001604d0       ?pcmContactSphereSphere@Gu@physx@@YA_NAEBVPxGeometry@2@0AEBUPxTransformPadded@2@1AEBUNarrowPhaseParams@12@AEAUCache@12@AEAVPxContactBuffer@2@PEAVPxRenderOutput@2@@Z 00000001801614d0 f   GuPCMContactSphereSphere.obj
 0001:00160d90       ?pcmContactGeometryCustomGeometry@Gu@physx@@YA_NAEBVPxGeometry@2@0AEBUPxTransformPadded@2@1AEBUNarrowPhaseParams@12@AEAUCache@12@AEAVPxContactBuffer@2@PEAVPxRenderOutput@2@@Z 0000000180161d90 f   GuPCMContactCustomGeometry.obj
 0001:00160e40       ?getPCMConvexData@Gu@physx@@YAXAEBVConvexHullV@12@_NAEAUPolygonalData@12@@Z 0000000180161e40 f   GuPCMShapeConvex.obj
 0001:00160e80       ?getPCMConvexData@Gu@physx@@YA_NAEBVPxConvexMeshGeometry@2@AEAVFastVertex2ShapeScaling@Cm@2@AEAVPxBounds3@2@AEAUPolygonalData@12@@Z 0000000180161e80 f   GuPCMShapeConvex.obj
 0001:001613f0       ?getPolygonalData@PCMPolygonalBox@Gu@physx@@QEBAXPEIAUPolygonalData@23@@Z 00000001801623f0 f   GuPCMShapeConvex.obj
 0001:00161470       ?generatePolyDataContactManifold@PCMConvexVsMeshContactGeneration@Gu@physx@@QEAA_NAEBVTriangleV@23@IIEPEAVMeshPersistentContact@23@AEAIAEBT__m128@@AEAT6@@Z 0000000180162470 f   GuPCMTriangleContactGen.obj
 0001:00161590       ?generateTriangleFullContactManifold@PCMConvexVsMeshContactGeneration@Gu@physx@@QEAA_NAEBVTriangleV@23@IPEBIEAEBUPolygonalData@23@PEBV?$SupportLocalImpl@VTriangleV@Gu@physx@@@23@PEBVSupportLocal@23@PEAVMeshPersistentContact@23@AEAIAEBT__m128@@AEAT9@@Z 0000000180162590 f   GuPCMTriangleContactGen.obj
 0001:00161ac0       ?generateTriangleFullContactManifold@PCMConvexVsMeshContactGeneration@Gu@physx@@SA_NAEBVTriangleV@23@IEAEBUPolygonalData@23@PEBV?$SupportLocalImpl@VTriangleV@Gu@physx@@@23@PEBVSupportLocal@23@PEAVMeshPersistentContact@23@AEAIAEBT__m128@@AEAT9@PEAVPxRenderOutput@3@@Z 0000000180162ac0 f   GuPCMTriangleContactGen.obj
 0001:00163b40       ?addBatchManifoldContacts2@PersistentContactManifold@Gu@physx@@QEAAXPEBVPersistentContact@23@I@Z 0000000180164b40 f   GuPersistentContactManifold.obj
 0001:00163bb0       ?addBatchManifoldContacts@PersistentContactManifold@Gu@physx@@QEAAXPEBVPersistentContact@23@IM@Z 0000000180164bb0 f   GuPersistentContactManifold.obj
 0001:00163c30       ?addBatchManifoldContactsCluster@PersistentContactManifold@Gu@physx@@QEAAXPEBVPersistentContact@23@I@Z 0000000180164c30 f   GuPersistentContactManifold.obj
 0001:00163eb0       ?addManifoldContactPoints@MultiplePersistentContactManifold@Gu@physx@@QEAAXPEAVMeshPersistentContact@23@IPEAPEAUPCMContactPatch@23@IAEBT__m128@@2E@Z 0000000180164eb0 f   GuPersistentContactManifold.obj
 0001:001642a0       ?addManifoldContactsToContactBuffer@MultiplePersistentContactManifold@Gu@physx@@QEAA_NAEAVPxContactBuffer@3@AEBVPxTransformV@aos@3@1AEBT__m128@@@Z 00000001801652a0 f   GuPersistentContactManifold.obj
 0001:00164560       ?addManifoldContactsToContactBuffer@MultiplePersistentContactManifold@Gu@physx@@QEAA_NAEAVPxContactBuffer@3@AEBVPxTransformV@aos@3@@Z 0000000180165560 f   GuPersistentContactManifold.obj
 0001:00164800       ?addManifoldContactsToContactBuffer@PersistentContactManifold@Gu@physx@@QEAAXAEAVPxContactBuffer@3@AEBT__m128@@1AEBVPxTransformV@aos@3@11@Z 0000000180165800 f   GuPersistentContactManifold.obj
 0001:00164990       ?addManifoldContactsToContactBuffer@PersistentContactManifold@Gu@physx@@QEAAXAEAVPxContactBuffer@3@AEBT__m128@@AEBVPxMatTransformV@aos@3@@Z 0000000180165990 f   GuPersistentContactManifold.obj
 0001:00164a40       ?addManifoldContactsToContactBuffer@PersistentContactManifold@Gu@physx@@QEAAXAEAVPxContactBuffer@3@AEBT__m128@@AEBVPxTransformV@aos@3@1@Z 0000000180165a40 f   GuPersistentContactManifold.obj
 0001:00164ba0       ?addManifoldPoint2@PersistentContactManifold@Gu@physx@@QEAAIAEBT__m128@@000@Z 0000000180165ba0 f   GuPersistentContactManifold.obj
 0001:00164cd0       ?addManifoldPoint@Gu@physx@@YAXPEAVPersistentContact@12@AEAVPersistentContactManifold@12@AEAUGjkOutput@12@AEBVPxMatTransformV@aos@2@T__m128@@@Z 0000000180165cd0 f   GuPersistentContactManifold.obj
 0001:00164ea0       ?addManifoldPoint@PersistentContactManifold@Gu@physx@@QEAAIAEBT__m128@@000@Z 0000000180165ea0 f   GuPersistentContactManifold.obj
 0001:001652e0       ?drawLine@MultiplePersistentContactManifold@Gu@physx@@SAXAEAVPxRenderOutput@3@AEBT__m128@@1I@Z 00000001801662e0 f   GuPersistentContactManifold.obj
 0001:00165390       ?drawLine@MultiplePersistentContactManifold@Gu@physx@@SAXAEAVPxRenderOutput@3@V?$PxVec3T@M@3@1I@Z 0000000180166390 f   GuPersistentContactManifold.obj
 0001:00165400       ?drawManifold@MultiplePersistentContactManifold@Gu@physx@@QEBAXAEAVPxRenderOutput@3@AEBVPxTransformV@aos@3@1@Z 0000000180166400 f   GuPersistentContactManifold.obj
 0001:00165a90       ?drawPoint@MultiplePersistentContactManifold@Gu@physx@@SAXAEAVPxRenderOutput@3@AEBT__m128@@MI@Z 0000000180166a90 f   GuPersistentContactManifold.obj
 0001:00165ca0       ?drawPolygon@MultiplePersistentContactManifold@Gu@physx@@SAXAEAVPxRenderOutput@3@AEBVPxTransformV@aos@3@PEAT__m128@@II@Z 0000000180166ca0 f   GuPersistentContactManifold.obj
 0001:00165f20       ?findRotationMatrixFromZAxis@Gu@physx@@YA?AUMat33V@aos@2@AEBT__m128@@@Z 0000000180166f20 f   GuPersistentContactManifold.obj
 0001:001661a0       ?fromBuffer@MultiplePersistentContactManifold@Gu@physx@@QEAAXPEIAE@Z 00000001801671a0 f   GuPersistentContactManifold.obj
 0001:00166300       ?reduceBatchContacts2@PersistentContactManifold@Gu@physx@@QEAAXPEBVPersistentContact@23@I@Z 0000000180167300 f   GuPersistentContactManifold.obj
 0001:00166510       ?reduceBatchContacts@PersistentContactManifold@Gu@physx@@QEAAXPEBVPersistentContact@23@IM@Z 0000000180167510 f   GuPersistentContactManifold.obj
 0001:001669e0       ?reduceBatchContactsCapsule@SinglePersistentContactManifold@Gu@physx@@QEAA?AT__m128@@PEBVMeshPersistentContact@23@IAEAUPCMContactPatch@23@@Z 00000001801679e0 f   GuPersistentContactManifold.obj
 0001:00166c80       ?reduceBatchContactsCluster@PersistentContactManifold@Gu@physx@@QEAAXPEBVPersistentContact@23@I@Z 0000000180167c80 f   GuPersistentContactManifold.obj
 0001:00167110       ?reduceBatchContactsConvex@SinglePersistentContactManifold@Gu@physx@@QEAA?AT__m128@@PEBVMeshPersistentContact@23@IAEAUPCMContactPatch@23@@Z 0000000180168110 f   GuPersistentContactManifold.obj
 0001:00167700       ?reduceContacts@SinglePersistentContactManifold@Gu@physx@@SAIPEAVMeshPersistentContact@23@I@Z 0000000180168700 f   GuPersistentContactManifold.obj
 0001:00167c80       ?reduceContactsForPCM@PersistentContactManifold@Gu@physx@@QEAAIAEBT__m128@@00@Z 0000000180168c80 f   GuPersistentContactManifold.obj
 0001:00168220       ?refreshContactPoints@SinglePersistentContactManifold@Gu@physx@@QEAA?AT__m128@@AEBVPxMatTransformV@aos@3@AEBT4@1@Z 0000000180169220 f   GuPersistentContactManifold.obj
 0001:00168370       ?replaceManifoldPoint@PersistentContactManifold@Gu@physx@@QEAA_NAEBT__m128@@000@Z 0000000180169370 f   GuPersistentContactManifold.obj
 0001:00168430       ?toBuffer@MultiplePersistentContactManifold@Gu@physx@@QEBAXPEIAE@Z 0000000180169430 f   GuPersistentContactManifold.obj
 0001:00168510       ?contains@Gu@physx@@YA_NPEAT__m128@@IAEBT3@11@Z 0000000180169510 f   GuPCMContactGenUtil.obj
 0001:001686d0       ?getPolygonIndex@Gu@physx@@YAHAEBUPolygonalData@12@PEBVSupportLocal@12@AEBT__m128@@AEAH@Z 00000001801696d0 f   GuPCMContactGenUtil.obj
 0001:00168970       ?getWitnessPolygonIndex@Gu@physx@@YAIAEBUPolygonalData@12@PEBVSupportLocal@12@AEBT__m128@@2M@Z 0000000180169970 f   GuPCMContactGenUtil.obj
 0001:00168f00       ?sweepBoxBox@Gu@physx@@YA_NAEBVBox@12@0AEBV?$PxVec3T@M@2@MV?$PxFlags@W4Enum@PxHitFlag@physx@@G@2@AEAUPxGeomSweepHit@2@@Z 0000000180169f00 f   GuSweepBoxBox.obj
 0001:0016a500       ?sweepBoxSphere@Gu@physx@@YA_NAEBVBox@12@MAEBV?$PxVec3T@M@2@1MAEAMAEAV42@V?$PxFlags@W4Enum@PxHitFlag@physx@@G@2@@Z 000000018016b500 f   GuSweepBoxSphere.obj
 0001:0016b200       ?sweepBoxTriangle@Gu@physx@@YA_NAEBVPxTriangle@2@AEBVPxBounds3@2@AEBV?$PxVec3T@M@2@2AEAV52@3AEAM_N@Z 000000018016c200 f   GuSweepBoxTriangle_FeatureBased.obj
 0001:0016c850       ?triBoxSweepTestBoxSpace@Gu@physx@@YAHAEBVPxTriangle@2@AEBV?$PxVec3T@M@2@11MAEAM_N@Z 000000018016d850 f   GuSweepBoxTriangle_SAT.obj
 0001:0016e180       ?sweepCapsuleBox@Gu@physx@@YA_NAEBVCapsule@12@AEBV?$PxTransformT@M@2@AEBV?$PxVec3T@M@2@2MAEAV52@AEAM3V?$PxFlags@W4Enum@PxHitFlag@physx@@G@2@@Z 000000018016f180 f   GuSweepCapsuleBox.obj
 0001:0016e4b0       ?distancePointSegmentSquared@Gu@physx@@YAMAEBVSegment@12@AEBV?$PxVec3T@M@2@PEAM@Z 000000018016f4b0 f i GuSweepCapsuleCapsule.obj
 0001:0016e5c0       ?edgeEdgeDist@@YAXAEAV?$PxVec3T@M@physx@@0AEBV12@111@Z 000000018016f5c0 f   GuSweepCapsuleCapsule.obj
 0001:0016e830       ?sweepCapsuleCapsule@Gu@physx@@YA_NAEBVCapsule@12@0AEBV?$PxVec3T@M@2@MAEAMAEAV42@3IAEAG@Z 000000018016f830 f   GuSweepCapsuleCapsule.obj
 0001:0016f650       ?sweepCapsuleTriangles_Precise@Gu@physx@@YA_NIPEIBVPxTriangle@2@AEBVCapsule@12@AEBV?$PxVec3T@M@2@MPEIBIAEAUPxGeomSweepHit@2@AEAV52@V?$PxFlags@W4Enum@PxHitFlag@physx@@G@2@_NPEBVBoxPadded@12@@Z 0000000180170650 f   GuSweepCapsuleTriangle.obj
 0001:00171690       ?sweepSphereCapsule@Gu@physx@@YA_NAEBVSphere@12@AEBVCapsule@12@AEBV?$PxVec3T@M@2@MAEAMAEAV52@4V?$PxFlags@W4Enum@PxHitFlag@physx@@G@2@@Z 0000000180172690 f   GuSweepSphereCapsule.obj
 0001:00171d30       ?sweepSphereSphere@Gu@physx@@YA_NAEBV?$PxVec3T@M@2@M0M0AEAMAEAV32@@Z 0000000180172d30 f   GuSweepSphereSphere.obj
 0001:00171fa0       ?sweepSphereTriangles@Gu@physx@@YA_NIPEIBVPxTriangle@2@AEBV?$PxVec3T@M@2@M1MPEIBIAEAUPxGeomSweepHit@2@AEAV42@_N555@Z 0000000180172fa0 f   GuSweepSphereTriangle.obj
 0001:00172850       ?sweepSphereVSQuad@Gu@physx@@YA_NPEIBV?$PxVec3T@M@2@AEBV32@1M1AEAM@Z 0000000180173850 f   GuSweepSphereTriangle.obj
 0001:00173830       ?sweepSphereVSTri@Gu@physx@@YA_NPEIBV?$PxVec3T@M@2@AEBV32@1M1AEAMAEA_N_N@Z 0000000180174830 f   GuSweepSphereTriangle.obj
 0001:001744e0       ??$gjk@U?$LocalConvex@VTriangleV@Gu@physx@@@Gu@physx@@U?$LocalConvex@VBoxV@Gu@physx@@@23@@Gu@physx@@YA?AW4GjkStatus@01@AEBU?$LocalConvex@VTriangleV@Gu@physx@@@01@AEBU?$LocalConvex@VBoxV@Gu@physx@@@01@AEBT__m128@@2AEAT5@333@Z 00000001801754e0 f i GuSweepTriangleUtils.obj
 0001:001751d0       ?computeBoxTriImpactData@Gu@physx@@YAXAEAV?$PxVec3T@M@2@0AEBV32@1AEBVPxTriangle@2@M@Z 00000001801761d0 f   GuSweepTriangleUtils.obj
 0001:00175450       ?computeEdgeEdgeNormal@Gu@physx@@YAXAEAV?$PxVec3T@M@2@AEBV32@1111M@Z 0000000180176450 f   GuSweepTriangleUtils.obj
 0001:00175700       ?computeSphereTriImpactData@Gu@physx@@YAXAEAV?$PxVec3T@M@2@0AEBV32@1MAEBVPxTriangle@2@@Z 0000000180176700 f   GuSweepTriangleUtils.obj
 0001:00175be0       ??0ShapeData@Gu@physx@@QEAA@AEBVPxGeometry@2@AEBV?$PxTransformT@M@2@M@Z 0000000180176be0 f   GuBounds.obj
 0001:00176150       ?computeBounds@Gu@physx@@YAXAEAVPxBounds3@2@AEBVPxGeometry@2@AEBV?$PxTransformT@M@2@MM@Z 0000000180177150 f   GuBounds.obj
 0001:00176e50       ?computeBoundsAroundVertices@Gu@physx@@YAXAEAVPxBounds3@2@IPEIBV?$PxVec3T@M@2@@Z 0000000180177e50 f   GuBounds.obj
 0001:00176ee0       ?computeGlobalBox@Gu@physx@@YAXAEAVPxBounds3@2@IPEIBV32@PEIBI@Z 0000000180177ee0 f   GuBounds.obj
 0001:00176f50       ?computeLocalBoundsAndGeomEpsilon@Gu@physx@@YAXPEBV?$PxVec3T@M@2@IAEAVPxBounds3@2@AEAM@Z 0000000180177f50 f   GuBounds.obj
 0001:00178080       ?computeTightBounds@Gu@physx@@YAXAEAVPxBounds3@2@IPEIBV?$PxVec3T@M@2@AEBV?$PxTransformT@M@2@AEBVPxMeshScale@2@MM@Z 0000000180179080 f   GuBounds.obj
 0001:00178440       ??0AABBTree@Gu@physx@@QEAA@XZ 0000000180179440 f   GuAABBTree.obj
 0001:00178470       ??0BVHPartialRefitData@Gu@physx@@QEAA@XZ 0000000180179470 f   GuAABBTree.obj
 0001:001784a0       ??0NodeAllocator@Gu@physx@@QEAA@XZ 00000001801794a0 f   GuAABBTree.obj
 0001:001784c0       ??1AABBTree@Gu@physx@@QEAA@XZ 00000001801794c0 f   GuAABBTree.obj
 0001:001784e0       ??1BVHPartialRefitData@Gu@physx@@QEAA@XZ 00000001801794e0 f   GuAABBTree.obj
 0001:00178590       ??1NodeAllocator@Gu@physx@@QEAA@XZ 0000000180179590 f   GuAABBTree.obj
 0001:001785e0       ?addRuntimeChilds@AABBTree@Gu@physx@@AEAAXAEAIAEBVAABBTreeMergeData@23@@Z 00000001801795e0 f   GuAABBTree.obj
 0001:001786e0       ?allocate@?$PxArray@PEAVAABBTreeBuildNode@Gu@physx@@V?$PxInlineAllocator@$0IAA@V?$PxReflectionAllocator@PEAVAABBTreeBuildNode@Gu@physx@@@physx@@@3@@physx@@IEAAPEAPEAVAABBTreeBuildNode@Gu@2@IPEAI@Z 00000001801796e0 f i GuAABBTree.obj
 0001:001787a0       ?build@AABBTree@Gu@physx@@QEAA_NAEBVAABBTreeBuildParams@23@AEAVNodeAllocator@23@@Z 00000001801797a0 f   GuAABBTree.obj
 0001:00178850       ?buildAABBTree@Gu@physx@@YAPEAIAEBVAABBTreeBuildParams@12@AEAVNodeAllocator@12@AEAUBuildStats@12@@Z 0000000180179850 f   GuAABBTree.obj
 0001:001788c0       ?buildAABBTree@Gu@physx@@YAXIAEBVAABBTreeBounds@12@AEAV?$PxArray@UBVHNode@Gu@physx@@V?$PxReflectionAllocator@UBVHNode@Gu@physx@@@3@@2@@Z 00000001801798c0 f   GuAABBTree.obj
 0001:00178a70       ?buildEnd@AABBTree@Gu@physx@@AEAAXAEBVAABBTreeBuildParams@23@AEAVNodeAllocator@23@AEBUBuildStats@23@@Z 0000000180179a70 f   GuAABBTree.obj
 0001:00178de0       ?constructFromTetrahedra@TinyBVH@Gu@physx@@SAXPEBIIPEBV?$PxVec3T@M@3@AEAU123@M@Z 0000000180179de0 f   GuAABBTree.obj
 0001:001790e0       ?constructFromTriangles@TinyBVH@Gu@physx@@SAXPEBIIPEBV?$PxVec3T@M@3@AEAU123@M@Z 000000018017a0e0 f   GuAABBTree.obj
 0001:00179490       ?createUpdateMap@BVHPartialRefitData@Gu@physx@@QEAAXI@Z 000000018017a490 f   GuAABBTree.obj
 0001:001795b0       ?flattenTree@Gu@physx@@YAXAEBVNodeAllocator@12@PEAUBVHNode@12@PEBI@Z 000000018017a5b0 f   GuAABBTree.obj
 0001:001797b0       ?fullRefit@BVHCoreData@Gu@physx@@QEAAXPEBVPxBounds3@3@@Z 000000018017a7b0 f   GuAABBTree.obj
 0001:00179970       ?getBiNode@NodeAllocator@Gu@physx@@QEAAPEAVAABBTreeBuildNode@23@XZ 000000018017a970 f   GuAABBTree.obj
 0001:00179aa0       ?getParentIndices@BVHPartialRefitData@Gu@physx@@IEAAPEAIXZ 000000018017aaa0 f   GuAABBTree.obj
 0001:00179b30       ?growAndPushBack@?$PxArray@PEAVAABBTreeBuildNode@Gu@physx@@V?$PxReflectionAllocator@PEAVAABBTreeBuildNode@Gu@physx@@@3@@physx@@IEAAAEAPEAVAABBTreeBuildNode@Gu@2@AEBQEAV342@@Z 000000018017ab30 f i GuAABBTree.obj
 0001:00179c50       ?growAndPushBack@?$PxArray@USlab@NodeAllocator@Gu@physx@@V?$PxReflectionAllocator@USlab@NodeAllocator@Gu@physx@@@4@@physx@@IEAAAEAUSlab@NodeAllocator@Gu@2@AEBU3452@@Z 000000018017ac50 f i GuAABBTree.obj
 0001:00179d70       ?init@AABBTreeBounds@Gu@physx@@QEAAXIPEBVPxBounds3@3@@Z 000000018017ad70 f   GuAABBTree.obj
 0001:00179e30       ?init@NodeAllocator@Gu@physx@@QEAAXII@Z 000000018017ae30 f   GuAABBTree.obj
 0001:0017a170       ?initTree@AABBTree@Gu@physx@@QEAAXAEBVAABBTreeMergeData@23@@Z 000000018017b170 f   GuAABBTree.obj
 0001:0017a2c0       ?markNodeForRefit@BVHPartialRefitData@Gu@physx@@QEAAXI@Z 000000018017b2c0 f   GuAABBTree.obj
 0001:0017a3d0       ?mergeRuntimeLeaf@AABBTree@Gu@physx@@AEAAXAEAUBVHNode@23@AEBVAABBTreeMergeData@23@I@Z 000000018017b3d0 f   GuAABBTree.obj
 0001:0017a650       ?mergeRuntimeNode@AABBTree@Gu@physx@@AEAAXAEAUBVHNode@23@AEBVAABBTreeMergeData@23@I@Z 000000018017b650 f   GuAABBTree.obj
 0001:0017a9d0       ?mergeTree@AABBTree@Gu@physx@@QEAAXAEBVAABBTreeMergeData@23@@Z 000000018017b9d0 f   GuAABBTree.obj
 0001:0017ac90       ?progressiveBuild@AABBTree@Gu@physx@@QEAAIAEBVAABBTreeBuildParams@23@AEAVNodeAllocator@23@AEAUBuildStats@23@II@Z 000000018017bc90 f   GuAABBTree.obj
 0001:0017af40       ?recreate@?$PxArray@PEAVAABBTreeBuildNode@Gu@physx@@V?$PxInlineAllocator@$0IAA@V?$PxReflectionAllocator@PEAVAABBTreeBuildNode@Gu@physx@@@physx@@@3@@physx@@IEAAXI@Z 000000018017bf40 f i GuAABBTree.obj
 0001:0017b000       ?refitMarkedNodes@BVHPartialRefitData@Gu@physx@@QEAAXPEBVPxBounds3@3@@Z 000000018017c000 f   GuAABBTree.obj
 0001:0017b170       ?release@AABBTree@Gu@physx@@QEAAX_N@Z 000000018017c170 f   GuAABBTree.obj
 0001:0017b260       ?release@AABBTreeBounds@Gu@physx@@QEAAXXZ 000000018017c260 f   GuAABBTree.obj
 0001:0017b2b0       ?release@NodeAllocator@Gu@physx@@QEAAXXZ 000000018017c2b0 f   GuAABBTree.obj
 0001:0017b360       ?releasePartialRefitData@BVHPartialRefitData@Gu@physx@@QEAAX_N@Z 000000018017c360 f   GuAABBTree.obj
 0001:0017b400       ?reshuffle@Gu@physx@@YAIIQEIAIPEIBV?$PxVec3T@M@2@MI@Z 000000018017c400 f   GuAABBTree.obj
 0001:0017b540       ?resize@?$PxArray@USlab@NodeAllocator@Gu@physx@@V?$PxReflectionAllocator@USlab@NodeAllocator@Gu@physx@@@4@@physx@@QEAAXIAEBUSlab@NodeAllocator@Gu@2@@Z 000000018017c540 f i GuAABBTree.obj
 0001:0017b5c0       ?resize@AABBTreeBounds@Gu@physx@@QEAAXII@Z 000000018017c5c0 f   GuAABBTree.obj
 0001:0017b670       ?resizeUninitialized@?$PxArray@PEAVAABBTreeBuildNode@Gu@physx@@V?$PxInlineAllocator@$0IAA@V?$PxReflectionAllocator@PEAVAABBTreeBuildNode@Gu@physx@@@physx@@@3@@physx@@QEAAXI@Z 000000018017c670 f i GuAABBTree.obj
 0001:0017b6c0       ?shiftIndices@AABBTree@Gu@physx@@QEAAXI@Z 000000018017c6c0 f   GuAABBTree.obj
 0001:0017b6e0       ?shiftOrigin@AABBTree@Gu@physx@@QEAAXAEBV?$PxVec3T@M@3@@Z 000000018017c6e0 f   GuAABBTree.obj
 0001:0017b970       ?subdivide@AABBTreeBuildNode@Gu@physx@@QEAAXAEBVAABBTreeBuildParams@23@AEAUBuildStats@23@AEAVNodeAllocator@23@QEAI@Z 000000018017c970 f   GuAABBTree.obj
 0001:0017bb50       ?subdivideSAH@AABBTreeBuildNode@Gu@physx@@QEAAXAEBVAABBTreeBuildParams@23@AEAUSAH_Buffers@23@AEAUBuildStats@23@AEAVNodeAllocator@23@QEAI@Z 000000018017cb50 f   GuAABBTree.obj
 0001:0017bc40       ?traverseRuntimeNode@AABBTree@Gu@physx@@AEAAXAEAUBVHNode@23@AEBVAABBTreeMergeData@23@I@Z 000000018017cc40 f   GuAABBTree.obj
 0001:0017bd80       ?initMap@AABBTreeUpdateMap@Gu@physx@@QEAAXIAEBVAABBTree@23@@Z 000000018017cd80 f   GuAABBTreeUpdateMap.obj
 0001:0017bf10       ?invalidate@AABBTreeUpdateMap@Gu@physx@@QEAAXIIAEAVAABBTree@23@@Z 000000018017cf10 f   GuAABBTreeUpdateMap.obj
 0001:0017c1b0       ?visualizeTree@@YAXAEAVPxRenderOutput@physx@@IPEBVAABBTree@Gu@2@@Z 000000018017d1b0 f   GuSqInternal.obj
 0001:0017c220       ?visualizeTree@@YAXAEAVPxRenderOutput@physx@@IPEBVBVH@Gu@2@@Z 000000018017d220 f   GuSqInternal.obj
 0001:0017c290       ?visualizeTree@@YAXAEAVPxRenderOutput@physx@@IPEBVIncrementalAABBTree@Gu@2@PEAVDebugVizCallback@2@@Z 000000018017d290 f   GuSqInternal.obj
 0001:0017c310       ??$PxSort@PEAXU?$PxLess@PEAX@physx@@V?$PxReflectionAllocator@UAABBTreeIndices@Gu@physx@@@2@@physx@@YAXPEAPEAXIAEBU?$PxLess@PEAX@0@AEBV?$PxReflectionAllocator@UAABBTreeIndices@Gu@physx@@@0@I@Z 000000018017d310 f i GuIncrementalAABBTree.obj
 0001:0017c770       ??$PxSort@PEAXU?$PxLess@PEAX@physx@@V?$PxReflectionAllocator@UIncrementalAABBTreeNodePair@Gu@physx@@@2@@physx@@YAXPEAPEAXIAEBU?$PxLess@PEAX@0@AEBV?$PxReflectionAllocator@UIncrementalAABBTreeNodePair@Gu@physx@@@0@I@Z 000000018017d770 f i GuIncrementalAABBTree.obj
 0001:0017cbd0       ??0IncrementalAABBTree@Gu@physx@@QEAA@XZ 000000018017dbd0 f   GuIncrementalAABBTree.obj
 0001:0017cc50       ??1?$PxPoolBase@UAABBTreeIndices@Gu@physx@@V?$PxReflectionAllocator@UAABBTreeIndices@Gu@physx@@@3@@physx@@QEAA@XZ 000000018017dc50 f i GuIncrementalAABBTree.obj
 0001:0017cdb0       ??1?$PxPoolBase@UIncrementalAABBTreeNodePair@Gu@physx@@V?$PxReflectionAllocator@UIncrementalAABBTreeNodePair@Gu@physx@@@3@@physx@@QEAA@XZ 000000018017ddb0 f i GuIncrementalAABBTree.obj
 0001:0017cf10       ??1IncrementalAABBTree@Gu@physx@@QEAA@XZ 000000018017df10 f   GuIncrementalAABBTree.obj
 0001:0017cf50       ?allocate@?$PxPoolBase@UAABBTreeIndices@Gu@physx@@V?$PxReflectionAllocator@UAABBTreeIndices@Gu@physx@@@3@@physx@@QEAAPEAUAABBTreeIndices@Gu@2@XZ 000000018017df50 f i GuIncrementalAABBTree.obj
 0001:0017d040       ?allocate@?$PxPoolBase@UIncrementalAABBTreeNodePair@Gu@physx@@V?$PxReflectionAllocator@UIncrementalAABBTreeNodePair@Gu@physx@@@3@@physx@@QEAAPEAUIncrementalAABBTreeNodePair@Gu@2@XZ 000000018017e040 f i GuIncrementalAABBTree.obj
 0001:0017d130       ?build@IncrementalAABBTree@Gu@physx@@QEAA_NAEBVAABBTreeBuildParams@23@AEAV?$PxArray@PEAVIncrementalAABBTreeNode@Gu@physx@@V?$PxReflectionAllocator@PEAVIncrementalAABBTreeNode@Gu@physx@@@3@@3@@Z 000000018017e130 f   GuIncrementalAABBTree.obj
 0001:0017d320       ?clone@IncrementalAABBTree@Gu@physx@@AEAAXAEAV?$PxArray@PEAVIncrementalAABBTreeNode@Gu@physx@@V?$PxReflectionAllocator@PEAVIncrementalAABBTreeNode@Gu@physx@@@3@@3@PEBIPEAPEAVIncrementalAABBTreeNode@23@@Z 000000018017e320 f   GuIncrementalAABBTree.obj
 0001:0017d830       ?copy@IncrementalAABBTree@Gu@physx@@QEAAXAEBVBVH@23@AEAV?$PxArray@PEAVIncrementalAABBTreeNode@Gu@physx@@V?$PxReflectionAllocator@PEAVIncrementalAABBTreeNode@Gu@physx@@@3@@3@@Z 000000018017e830 f   GuIncrementalAABBTree.obj
 0001:0017d8e0       ?copyNode@IncrementalAABBTree@Gu@physx@@AEAAXAEAVIncrementalAABBTreeNode@23@AEBUBVHNode@23@PEBU523@PEAV423@PEBIAEAV?$PxArray@PEAVIncrementalAABBTreeNode@Gu@physx@@V?$PxReflectionAllocator@PEAVIncrementalAABBTreeNode@Gu@physx@@@3@@3@@Z 000000018017e8e0 f   GuIncrementalAABBTree.obj
 0001:0017daa0       ?fixupTreeIndices@IncrementalAABBTree@Gu@physx@@QEAAXPEAVIncrementalAABBTreeNode@23@II@Z 000000018017eaa0 f   GuIncrementalAABBTree.obj
 0001:0017dad0       ?getTreeLeafDepth@IncrementalAABBTree@Gu@physx@@QEAAIPEAVIncrementalAABBTreeNode@23@@Z 000000018017ead0 f   GuIncrementalAABBTree.obj
 0001:0017daf0       ?growAndPushBack@?$PxArray@PEAVIncrementalAABBTreeNode@Gu@physx@@V?$PxReflectionAllocator@PEAVIncrementalAABBTreeNode@Gu@physx@@@3@@physx@@IEAAAEAPEAVIncrementalAABBTreeNode@Gu@2@AEBQEAV342@@Z 000000018017eaf0 f i GuIncrementalAABBTree.obj
 0001:0017dc10       ?growAndPushBack@?$PxArray@PEAXV?$PxReflectionAllocator@UAABBTreeIndices@Gu@physx@@@physx@@@physx@@IEAAAEAPEAXAEBQEAX@Z 000000018017ec10 f i GuIncrementalAABBTree.obj
 0001:0017dd30       ?growAndPushBack@?$PxArray@PEAXV?$PxReflectionAllocator@UIncrementalAABBTreeNodePair@Gu@physx@@@physx@@@physx@@IEAAAEAPEAXAEBQEAX@Z 000000018017ed30 f i GuIncrementalAABBTree.obj
 0001:0017de50       ?hierarchyCheck@IncrementalAABBTree@Gu@physx@@QEAAXIPEBVPxBounds3@3@@Z 000000018017ee50 f   GuIncrementalAABBTree.obj
 0001:0017dfa0       ?hierarchyCheck@IncrementalAABBTree@Gu@physx@@QEAAXPEBVPxBounds3@3@@Z 000000018017efa0 f   GuIncrementalAABBTree.obj
 0001:0017e110       ?insert@IncrementalAABBTree@Gu@physx@@QEAAPEAVIncrementalAABBTreeNode@23@IPEBVPxBounds3@3@AEAV?$PxArray@PEAVIncrementalAABBTreeNode@Gu@physx@@V?$PxReflectionAllocator@PEAVIncrementalAABBTreeNode@Gu@physx@@@3@@3@@Z 000000018017f110 f   GuIncrementalAABBTree.obj
 0001:0017e7f0       ?recreate@?$PxArray@PEAXV?$PxReflectionAllocator@UAABBTreeIndices@Gu@physx@@@physx@@@physx@@IEAAXI@Z 000000018017f7f0 f i GuIncrementalAABBTree.obj
 0001:0017e8e0       ?recreate@?$PxArray@PEAXV?$PxReflectionAllocator@UIncrementalAABBTreeNodePair@Gu@physx@@@physx@@@physx@@IEAAXI@Z 000000018017f8e0 f i GuIncrementalAABBTree.obj
 0001:0017e9d0       ?release@IncrementalAABBTree@Gu@physx@@QEAAXXZ 000000018017f9d0 f   GuIncrementalAABBTree.obj
 0001:0017ea00       ?releaseNode@IncrementalAABBTree@Gu@physx@@AEAAXPEAVIncrementalAABBTreeNode@23@@Z 000000018017fa00 f   GuIncrementalAABBTree.obj
 0001:0017ea90       ?remove@IncrementalAABBTree@Gu@physx@@QEAAPEAVIncrementalAABBTreeNode@23@PEAV423@IPEBVPxBounds3@3@@Z 000000018017fa90 f   GuIncrementalAABBTree.obj
 0001:0017edb0       ?rotateTree@IncrementalAABBTree@Gu@physx@@AEAAXPEAVIncrementalAABBTreeNode@23@AEAV?$PxArray@PEAVIncrementalAABBTreeNode@Gu@physx@@V?$PxReflectionAllocator@PEAVIncrementalAABBTreeNode@Gu@physx@@@3@@3@IPEBVPxBounds3@3@_N@Z 000000018017fdb0 f   GuIncrementalAABBTree.obj
 0001:0017f6e0       ?shiftOrigin@IncrementalAABBTree@Gu@physx@@QEAAXAEBV?$PxVec3T@M@3@@Z 00000001801806e0 f   GuIncrementalAABBTree.obj
 0001:0017f740       ?splitLeafNode@IncrementalAABBTree@Gu@physx@@AEAAPEAVIncrementalAABBTreeNode@23@PEAV423@IAEBT__m128@@1PEBVPxBounds3@3@@Z 0000000180180740 f   GuIncrementalAABBTree.obj
 0001:0017fa30       ?update@IncrementalAABBTree@Gu@physx@@QEAAPEAVIncrementalAABBTreeNode@23@PEAV423@IPEBVPxBounds3@3@AEAV?$PxArray@PEAVIncrementalAABBTreeNode@Gu@physx@@V?$PxReflectionAllocator@PEAVIncrementalAABBTreeNode@Gu@physx@@@3@@3@@Z 0000000180180a30 f   GuIncrementalAABBTree.obj
 0001:0017faf0       ?updateFast@IncrementalAABBTree@Gu@physx@@QEAAPEAVIncrementalAABBTreeNode@23@PEAV423@IPEBVPxBounds3@3@AEAV?$PxArray@PEAVIncrementalAABBTreeNode@Gu@physx@@V?$PxReflectionAllocator@PEAVIncrementalAABBTreeNode@Gu@physx@@@3@@3@@Z 0000000180180af0 f   GuIncrementalAABBTree.obj
 0001:0017fd10       ??0SAH_Buffers@Gu@physx@@QEAA@I@Z 0000000180180d10 f   GuSAH.obj
 0001:0017fe10       ??1SAH_Buffers@Gu@physx@@QEAA@XZ 0000000180180e10 f   GuSAH.obj
 0001:0017fed0       ?split@SAH_Buffers@Gu@physx@@QEAA_NAEAIIPEIBIPEIBVPxBounds3@3@PEIBV?$PxVec3T@M@3@@Z 0000000180180ed0 f   GuSAH.obj
 0001:001805b0       ??0BVH@Gu@physx@@QEAA@AEBUPxBVHInternalData@2@@Z 00000001801815b0 f   GuBVH.obj
 0001:00180670       ??0BVH@Gu@physx@@QEAA@PEAVMeshFactory@12@@Z 0000000180181670 f   GuBVH.obj
 0001:001806e0       ??0BVH@Gu@physx@@QEAA@PEAVMeshFactory@12@AEAVBVHData@12@@Z 00000001801816e0 f   GuBVH.obj
 0001:00180790       ??1BVHData@Gu@physx@@QEAA@XZ 0000000180181790 f i GuBVH.obj
 0001:00183f04       ??_EBVH@Gu@physx@@WBA@EAAPEAXI@Z 0000000180184f04 f i GuBVH.obj
 0001:00183f10       ??_EBVH@Gu@physx@@UEAAPEAXI@Z 0000000180184f10 f i GuBVH.obj
 0001:00183f10       ??_GBVH@Gu@physx@@UEAAPEAXI@Z 0000000180184f10 f i GuBVH.obj
 0001:00183fa0       ??_ERefCountable@Cm@physx@@UEAAPEAXI@Z 0000000180184fa0 f i GuBVH.obj
 0001:00183fa0       ??_GRefCountable@Cm@physx@@UEAAPEAXI@Z 0000000180184fa0 f i GuBVH.obj
 0001:001841d0       ?allocate@?$PxArray@PEBUBVHNode@Gu@physx@@V?$PxInlineAllocator@$0IAA@V?$PxReflectionAllocator@PEBUBVHNode@Gu@physx@@@physx@@@3@@physx@@IEAAPEAPEBUBVHNode@Gu@2@IPEAI@Z 00000001801851d0 f i GuBVH.obj
 0001:00184290       ?build@BVHData@Gu@physx@@QEAA_NIPEBXIMIW4BVHBuildStrategy@23@@Z 0000000180185290 f   GuBVH.obj
 0001:00184690       ?cull@BVH@Gu@physx@@UEBA_NIPEBVPxPlane@3@AEAUOverlapCallback@PxBVH@3@V?$PxFlags@W4Enum@PxGeometryQueryFlag@physx@@I@3@@Z 0000000180185690 f   GuBVH.obj
 0001:00184fe0       ?getConcreteTypeName@PxBVH@physx@@UEBAPEBDXZ 0000000180185fe0 f i GuBVH.obj
 0001:00184ff0       ?init@BVH@Gu@physx@@QEAA_NIPEAVAABBTreeBounds@23@PEBXIW4BVHBuildStrategy@23@IM@Z 0000000180185ff0 f   GuBVH.obj
 0001:00185410       ?isKindOf@PxBVH@physx@@MEBA_NPEBD@Z 0000000180186410 f i GuBVH.obj
 0001:00185480       ?load@BVH@Gu@physx@@QEAA_NAEAVPxInputStream@3@@Z 0000000180186480 f   GuBVH.obj
 0001:00185610       ?onRefCountZero@BVH@Gu@physx@@UEAAXXZ 0000000180186610 f   GuBVH.obj
 0001:001856f0       ?onRefCountZero@RefCountable@Cm@physx@@UEAAXXZ 00000001801866f0 f i GuBVH.obj
 0001:00185710       ?overlap@BVH@Gu@physx@@QEBA_NAEBVShapeData@23@AEAUOverlapCallback@PxBVH@3@V?$PxFlags@W4Enum@PxGeometryQueryFlag@physx@@I@3@@Z 0000000180186710 f   GuBVH.obj
 0001:00185f40       ?overlap@BVH@Gu@physx@@UEBA_NAEBVPxGeometry@3@AEBV?$PxTransformT@M@3@AEAUOverlapCallback@PxBVH@3@V?$PxFlags@W4Enum@PxGeometryQueryFlag@physx@@I@3@@Z 0000000180186f40 f   GuBVH.obj
 0001:00185fa0       ?partialRefit@BVH@Gu@physx@@UEAAXXZ 0000000180186fa0 f   GuBVH.obj
 0001:00185fb0       ?raycast@BVH@Gu@physx@@UEBA_NAEBV?$PxVec3T@M@3@0MAEAURaycastCallback@PxBVH@3@V?$PxFlags@W4Enum@PxGeometryQueryFlag@physx@@I@3@@Z 0000000180186fb0 f   GuBVH.obj
 0001:001860e0       ?recreate@?$PxArray@PEBUBVHNode@Gu@physx@@V?$PxInlineAllocator@$0IAA@V?$PxReflectionAllocator@PEBUBVHNode@Gu@physx@@@physx@@@3@@physx@@IEAAXI@Z 00000001801870e0 f i GuBVH.obj
 0001:001861a0       ?refit@BVH@Gu@physx@@UEAAXXZ 00000001801871a0 f   GuBVH.obj
 0001:001861b0       ?release@BVH@Gu@physx@@UEAAXXZ 00000001801871b0 f   GuBVH.obj
 0001:001861e0       ?resizeUninitialized@?$PxArray@PEBUBVHNode@Gu@physx@@V?$PxInlineAllocator@$0IAA@V?$PxReflectionAllocator@PEBUBVHNode@Gu@physx@@@physx@@@3@@physx@@QEAAXI@Z 00000001801871e0 f i GuBVH.obj
 0001:00186230       ?save@BVHData@Gu@physx@@QEBA_NAEAVPxOutputStream@3@_N@Z 0000000180187230 f   GuBVH.obj
 0001:001863a0       ?sweep@BVH@Gu@physx@@QEBA_NAEBVShapeData@23@AEBV?$PxVec3T@M@3@MAEAURaycastCallback@PxBVH@3@V?$PxFlags@W4Enum@PxGeometryQueryFlag@physx@@I@3@@Z 00000001801873a0 f   GuBVH.obj
 0001:00186590       ?sweep@BVH@Gu@physx@@UEBA_NAEBVPxGeometry@3@AEBV?$PxTransformT@M@3@AEBV?$PxVec3T@M@3@MAEAURaycastCallback@PxBVH@3@V?$PxFlags@W4Enum@PxGeometryQueryFlag@physx@@I@3@@Z 0000000180187590 f   GuBVH.obj
 0001:00186610       ?traverse@BVH@Gu@physx@@UEBA_NAEAUTraversalCallback@PxBVH@3@@Z 0000000180187610 f   GuBVH.obj
 0001:00186780       ?updateBounds@BVH@Gu@physx@@UEAA_NIAEBVPxBounds3@3@@Z 0000000180187780 f   GuBVH.obj
 0001:00186830       ?updateBoundsInternal@BVH@Gu@physx@@QEAA_NIAEBVPxBounds3@3@@Z 0000000180187830 f   GuBVH.obj
 0001:001868e0       PxFindOverlap              00000001801878e0 f   GuBVH.obj
 0001:001869d0       PxGetBVHInternalData       00000001801879d0 f   GuBVH.obj
 0001:00186a10       ??0IncrementalAABBPrunerCore@Gu@physx@@QEAA@PEBVPruningPool@12@@Z 0000000180187a10 f   GuIncrementalAABBPrunerCore.obj
 0001:00186b20       ??1IncrementalAABBPrunerCore@Gu@physx@@QEAA@XZ 0000000180187b20 f   GuIncrementalAABBPrunerCore.obj
 0001:00186c90       ??R?$AABBTreeOverlap@$00U?$OBBAABBTests@$00@Gu@physx@@VIncrementalAABBTree@23@VIncrementalAABBTreeNode@23@UOverlapCallbackAdapter@23@@Gu@physx@@QEAA_NAEBVAABBTreeBounds@12@AEBVIncrementalAABBTree@12@AEBU?$OBBAABBTests@$00@12@AEAUOverlapCallbackAdapter@12@@Z 0000000180187c90 f i GuIncrementalAABBPrunerCore.obj
 0001:00187230       ??R?$AABBTreeOverlap@$00UAABBAABBTest@Gu@physx@@VIncrementalAABBTree@23@VIncrementalAABBTreeNode@23@UOverlapCallbackAdapter@23@@Gu@physx@@QEAA_NAEBVAABBTreeBounds@12@AEBVIncrementalAABBTree@12@AEBUAABBAABBTest@12@AEAUOverlapCallbackAdapter@12@@Z 0000000180188230 f i GuIncrementalAABBPrunerCore.obj
 0001:00187490       ??R?$AABBTreeOverlap@$00UCapsuleAABBTest@Gu@physx@@VIncrementalAABBTree@23@VIncrementalAABBTreeNode@23@UOverlapCallbackAdapter@23@@Gu@physx@@QEAA_NAEBVAABBTreeBounds@12@AEBVIncrementalAABBTree@12@AEBUCapsuleAABBTest@12@AEAUOverlapCallbackAdapter@12@@Z 0000000180188490 f i GuIncrementalAABBPrunerCore.obj
 0001:001877d0       ??R?$AABBTreeRaycast@$00$00VIncrementalAABBTree@Gu@physx@@VIncrementalAABBTreeNode@23@URaycastCallbackAdapter@23@@Gu@physx@@QEAA_NAEBVAABBTreeBounds@12@AEBVIncrementalAABBTree@12@AEBV?$PxVec3T@M@2@2AEAM2AEAURaycastCallbackAdapter@12@@Z 00000001801887d0 f i GuIncrementalAABBPrunerCore.obj
 0001:00187e90       ??R?$AABBTreeRaycast@$0A@$00VIncrementalAABBTree@Gu@physx@@VIncrementalAABBTreeNode@23@URaycastCallbackAdapter@23@@Gu@physx@@QEAA_NAEBVAABBTreeBounds@12@AEBVIncrementalAABBTree@12@AEBV?$PxVec3T@M@2@2AEAM2AEAURaycastCallbackAdapter@12@@Z 0000000180188e90 f i GuIncrementalAABBPrunerCore.obj
 0001:001884c0       ?addObject@IncrementalAABBPrunerCore@Gu@physx@@QEAA_NII@Z 00000001801894c0 f   GuIncrementalAABBPrunerCore.obj
 0001:001885b0       ?allocate@?$PxArray@PEBVIncrementalAABBTreeNode@Gu@physx@@V?$PxInlineAllocator@$0IAA@V?$PxReflectionAllocator@PEBVIncrementalAABBTreeNode@Gu@physx@@@physx@@@3@@physx@@IEAAPEAPEBVIncrementalAABBTreeNode@Gu@2@IPEAI@Z 00000001801895b0 f i GuIncrementalAABBPrunerCore.obj
 0001:00188670       ?clear@?$PxHashMapBase@IPEAVIncrementalAABBTreeNode@Gu@physx@@U?$PxHash@I@3@VPxAllocator@3@@physx@@QEAAXXZ 0000000180189670 f i GuIncrementalAABBPrunerCore.obj
 0001:00188670       ?clear@?$PxHashMapBase@UPrunerPayload@Gu@physx@@UExtendedBucketPrunerData@23@UExtendedBucketPrunerHash@23@VPxAllocator@3@@physx@@QEAAXXZ 0000000180189670 f i GuExtendedBucketPruner.obj
 0001:00188700       ?create@?$PxHashBase@V?$PxPair@$$CBIPEAVIncrementalAABBTreeNode@Gu@physx@@@physx@@IU?$PxHash@I@2@UGetKey@?$PxHashMapBase@IPEAVIncrementalAABBTreeNode@Gu@physx@@U?$PxHash@I@3@VPxAllocator@3@@2@VPxAllocator@2@$00@physx@@QEAAPEAV?$PxPair@$$CBIPEAVIncrementalAABBTreeNode@Gu@physx@@@2@AEBIAEA_N@Z 0000000180189700 f i GuIncrementalAABBPrunerCore.obj
 0001:00188850       ?erase@?$PxHashBase@V?$PxPair@$$CBIPEAVIncrementalAABBTreeNode@Gu@physx@@@physx@@IU?$PxHash@I@2@UGetKey@?$PxHashMapBase@IPEAVIncrementalAABBTreeNode@Gu@physx@@U?$PxHash@I@3@VPxAllocator@3@@2@VPxAllocator@2@$00@physx@@QEAA_NAEBIAEAV?$PxPair@$$CBIPEAVIncrementalAABBTreeNode@Gu@physx@@@2@@Z 0000000180189850 f i GuIncrementalAABBPrunerCore.obj
 0001:001889c0       ?getCurrentWorldBoxes@PruningPool@Gu@physx@@QEAAPEAVPxBounds3@3@XZ 00000001801899c0 f i GuIncrementalAABBPrunerCore.obj
 0001:001889c0       ?getCurrentWorldBoxes@PruningPool@Gu@physx@@QEBAPEBVPxBounds3@3@XZ 00000001801899c0 f i GuIncrementalAABBPrunerCore.obj
 0001:001889c0       ?getMesh@CollisionTetrahedronMeshData@Gu@physx@@UEAAPEAVPxTetrahedronMeshData@3@XZ 00000001801899c0 f i GuCookingTetrahedronMesh.obj
 0001:001889c0       ?getMesh@CollisionTetrahedronMeshData@Gu@physx@@UEBAPEBVPxTetrahedronMeshData@3@XZ 00000001801899c0 f i GuCookingTetrahedronMesh.obj
 0001:001889c0       ?getMesh@SimulationTetrahedronMeshData@Gu@physx@@UEAAPEAVPxTetrahedronMeshData@3@XZ 00000001801899c0 f i GuCookingTetrahedronMesh.obj
 0001:001889d0       ?getGlobalBounds@IncrementalAABBPrunerCore@Gu@physx@@QEBAXAEAVPxBounds3@3@@Z 00000001801899d0 f   GuIncrementalAABBPrunerCore.obj
 0001:00188b00       ?getIndex@PruningPool@Gu@physx@@QEBAII@Z 0000000180189b00 f i GuIncrementalAABBPrunerCore.obj
 0001:00188b10       ?getPayloadData@PruningPool@Gu@physx@@QEBAAEBUPrunerPayload@23@IPEAUPrunerPayloadData@23@@Z 0000000180189b10 f i GuIncrementalAABBPrunerCore.obj
 0001:00188b60       ?overlap@IncrementalAABBPrunerCore@Gu@physx@@QEBA_NAEBVShapeData@23@AEAUPrunerOverlapCallback@23@@Z 0000000180189b60 f   GuIncrementalAABBPrunerCore.obj
 0001:001896d0       ?raycast@IncrementalAABBPrunerCore@Gu@physx@@QEBA_NAEBV?$PxVec3T@M@3@0AEAMAEAUPrunerRaycastCallback@23@@Z 000000018018a6d0 f   GuIncrementalAABBPrunerCore.obj
 0001:001897e0       ?recreate@?$PxArray@PEAVIncrementalAABBTreeNode@Gu@physx@@V?$PxReflectionAllocator@PEAVIncrementalAABBTreeNode@Gu@physx@@@3@@physx@@IEAAXI@Z 000000018018a7e0 f i GuIncrementalAABBPrunerCore.obj
 0001:001898d0       ?recreate@?$PxArray@PEBVIncrementalAABBTreeNode@Gu@physx@@V?$PxInlineAllocator@$0IAA@V?$PxReflectionAllocator@PEBVIncrementalAABBTreeNode@Gu@physx@@@physx@@@3@@physx@@IEAAXI@Z 000000018018a8d0 f i GuIncrementalAABBPrunerCore.obj
 0001:00189990       ?release@IncrementalAABBPrunerCore@Gu@physx@@QEAAXXZ 000000018018a990 f   GuIncrementalAABBPrunerCore.obj
 0001:00189a90       ?removeMarkedObjects@IncrementalAABBPrunerCore@Gu@physx@@QEAAII@Z 000000018018aa90 f   GuIncrementalAABBPrunerCore.obj
 0001:00189af0       ?removeObject@IncrementalAABBPrunerCore@Gu@physx@@QEAA_NIIAEAI@Z 000000018018aaf0 f   GuIncrementalAABBPrunerCore.obj
 0001:00189d00       ?reserveInternal@?$PxHashBase@V?$PxPair@$$CBIPEAVIncrementalAABBTreeNode@Gu@physx@@@physx@@IU?$PxHash@I@2@UGetKey@?$PxHashMapBase@IPEAVIncrementalAABBTreeNode@Gu@physx@@U?$PxHash@I@3@VPxAllocator@3@@2@VPxAllocator@2@$00@physx@@AEAAXI@Z 000000018018ad00 f i GuIncrementalAABBPrunerCore.obj
 0001:00189ec0       ?resizeUninitialized@?$PxArray@PEBVIncrementalAABBTreeNode@Gu@physx@@V?$PxInlineAllocator@$0IAA@V?$PxReflectionAllocator@PEBVIncrementalAABBTreeNode@Gu@physx@@@physx@@@3@@physx@@QEAAXI@Z 000000018018aec0 f i GuIncrementalAABBPrunerCore.obj
 0001:00189f10       ?setTransform@PruningPool@Gu@physx@@QEAA_NIAEBV?$PxTransformT@M@3@@Z 000000018018af10 f i GuIncrementalAABBPrunerCore.obj
 0001:00189f70       ?shiftOrigin@IncrementalAABBPrunerCore@Gu@physx@@QEAAXAEBV?$PxVec3T@M@3@@Z 000000018018af70 f   GuIncrementalAABBPrunerCore.obj
 0001:00189fb0       ?swapIndex@IncrementalAABBPrunerCore@Gu@physx@@QEAAXII@Z 000000018018afb0 f   GuIncrementalAABBPrunerCore.obj
 0001:0018a090       ?sweep@IncrementalAABBPrunerCore@Gu@physx@@QEBA_NAEBVShapeData@23@AEBV?$PxVec3T@M@3@AEAMAEAUPrunerRaycastCallback@23@@Z 000000018018b090 f   GuIncrementalAABBPrunerCore.obj
 0001:0018a2b0       ?updateMapping@IncrementalAABBPrunerCore@Gu@physx@@AEAAXAEAV?$PxHashMap@IPEAVIncrementalAABBTreeNode@Gu@physx@@U?$PxHash@I@3@VPxAllocator@3@@3@IPEAVIncrementalAABBTreeNode@23@@Z 000000018018b2b0 f   GuIncrementalAABBPrunerCore.obj
 0001:0018a420       ?updateObject@IncrementalAABBPrunerCore@Gu@physx@@QEAA_NI@Z 000000018018b420 f   GuIncrementalAABBPrunerCore.obj
 0001:0018a5c0       ?visualize@IncrementalAABBPrunerCore@Gu@physx@@QEBAXAEAVPxRenderOutput@3@I@Z 000000018018b5c0 f   GuIncrementalAABBPrunerCore.obj
 0001:0018a620       ??0IncrementalAABBPruner@Gu@physx@@QEAA@I_K@Z 000000018018b620 f   GuIncrementalAABBPruner.obj
 0001:0018a6d0       ??R?$AABBTreeOverlap@$00USphereAABBTest@Gu@physx@@VIncrementalAABBTree@23@VIncrementalAABBTreeNode@23@UOverlapCallbackAdapter@23@@Gu@physx@@QEAA_NAEBVAABBTreeBounds@12@AEBVIncrementalAABBTree@12@AEBUSphereAABBTest@12@AEAUOverlapCallbackAdapter@12@@Z 000000018018b6d0 f i GuIncrementalAABBPruner.obj
 0001:0018a9a0       ??_EBasePruner@Gu@physx@@UEAAPEAXI@Z 000000018018b9a0 f i GuIncrementalAABBPruner.obj
 0001:0018a9a0       ??_GBasePruner@Gu@physx@@UEAAPEAXI@Z 000000018018b9a0 f i GuIncrementalAABBPruner.obj
 0001:0018a9f0       ??_EIncrementalAABBPruner@Gu@physx@@UEAAPEAXI@Z 000000018018b9f0 f i GuIncrementalAABBPruner.obj
 0001:0018a9f0       ??_GIncrementalAABBPruner@Gu@physx@@UEAAPEAXI@Z 000000018018b9f0 f i GuIncrementalAABBPruner.obj
 0001:0018ab00       ?addObjects@IncrementalAABBPruner@Gu@physx@@UEAA_NPEAIPEBVPxBounds3@3@PEBUPrunerPayload@23@PEBV?$PxTransformT@M@3@I_N@Z 000000018018bb00 f   GuIncrementalAABBPruner.obj
 0001:0018acb0       ?commit@IncrementalAABBPruner@Gu@physx@@UEAAXXZ 000000018018bcb0 f   GuIncrementalAABBPruner.obj
 0001:0018ae00       ?getGlobalBounds@IncrementalAABBPruner@Gu@physx@@UEBAXAEAVPxBounds3@3@@Z 000000018018be00 f   GuIncrementalAABBPruner.obj
 0001:0018ae70       ?getPayloadData@IncrementalAABBPruner@Gu@physx@@UEBAAEBUPrunerPayload@23@IPEAUPrunerPayloadData@23@@Z 000000018018be70 f i GuIncrementalAABBPruner.obj
 0001:0018aec0       ?overlap@IncrementalAABBPruner@Gu@physx@@UEBA_NAEBVShapeData@23@AEAUPrunerOverlapCallback@23@@Z 000000018018bec0 f   GuIncrementalAABBPruner.obj
 0001:0018b5d0       ?preallocate@IncrementalAABBPruner@Gu@physx@@UEAAXI@Z 000000018018c5d0 f i GuIncrementalAABBPruner.obj
 0001:0018b5e0       ?purge@IncrementalAABBPruner@Gu@physx@@UEAAXXZ 000000018018c5e0 f   GuIncrementalAABBPruner.obj
 0001:0018b630       ?raycast@IncrementalAABBPruner@Gu@physx@@UEBA_NAEBV?$PxVec3T@M@3@0AEAMAEAUPrunerRaycastCallback@23@@Z 000000018018c630 f   GuIncrementalAABBPruner.obj
 0001:0018b6b0       ?removeObjects@IncrementalAABBPruner@Gu@physx@@UEAAXPEBIIPEAUPrunerPayloadRemovalCallback@23@@Z 000000018018c6b0 f   GuIncrementalAABBPruner.obj
 0001:0018b800       ?resize@?$PxArray@PEAVIncrementalAABBTreeNode@Gu@physx@@V?$PxReflectionAllocator@PEAVIncrementalAABBTreeNode@Gu@physx@@@3@@physx@@QEAAXIAEBQEAVIncrementalAABBTreeNode@Gu@2@@Z 000000018018c800 f i GuIncrementalAABBPruner.obj
 0001:0018b8c0       ?resizeUninitialized@?$PxArray@PEAVIncrementalAABBTreeNode@Gu@physx@@V?$PxReflectionAllocator@PEAVIncrementalAABBTreeNode@Gu@physx@@@3@@physx@@QEAAXI@Z 000000018018c8c0 f i GuIncrementalAABBPruner.obj
 0001:0018b900       ?setTransform@IncrementalAABBPruner@Gu@physx@@UEAA_NIAEBV?$PxTransformT@M@3@@Z 000000018018c900 f i GuIncrementalAABBPruner.obj
 0001:0018b960       ?shiftOrigin@IncrementalAABBPruner@Gu@physx@@UEAAXAEBV?$PxVec3T@M@3@@Z 000000018018c960 f   GuIncrementalAABBPruner.obj
 0001:0018b9a0       ?sweep@IncrementalAABBPruner@Gu@physx@@UEBA_NAEBVShapeData@23@AEBV?$PxVec3T@M@3@AEAMAEAUPrunerRaycastCallback@23@@Z 000000018018c9a0 f   GuIncrementalAABBPruner.obj
 0001:0018bac0       ?updateObjects@IncrementalAABBPruner@Gu@physx@@UEAAXPEBIIM0PEBVPxBounds3@3@PEBUPxTransformPadded@3@@Z 000000018018cac0 f   GuIncrementalAABBPruner.obj
 0001:0018bc90       ?visualize@IncrementalAABBPruner@Gu@physx@@UEBAXAEAVPxRenderOutput@3@II@Z 000000018018cc90 f   GuIncrementalAABBPruner.obj
 0001:0018be80       ??0PruningPool@Gu@physx@@QEAA@_KW4TransformCacheMode@12@@Z 000000018018ce80 f   GuPruningPool.obj
 0001:0018beb0       ??1PruningPool@Gu@physx@@QEAA@XZ 000000018018ceb0 f   GuPruningPool.obj
 0001:0018bf80       ?addObjects@PruningPool@Gu@physx@@QEAAIPEAIPEBVPxBounds3@3@PEBUPrunerPayload@23@PEBV?$PxTransformT@M@3@I@Z 000000018018cf80 f   GuPruningPool.obj
 0001:0018c130       ?preallocate@PruningPool@Gu@physx@@QEAAXI@Z 000000018018d130 f   GuPruningPool.obj
 0001:0018c140       ?removeObject@PruningPool@Gu@physx@@QEAAIIPEAUPrunerPayloadRemovalCallback@23@@Z 000000018018d140 f   GuPruningPool.obj
 0001:0018c280       ?resize@PruningPool@Gu@physx@@QEAA_NI@Z 000000018018d280 f   GuPruningPool.obj
 0001:0018c570       ?shiftOrigin@PruningPool@Gu@physx@@QEAAXAEBV?$PxVec3T@M@3@@Z 000000018018d570 f   GuPruningPool.obj
 0001:0018c940       ?updateAndInflateBounds@PruningPool@Gu@physx@@QEAAXPEBI0PEBVPxBounds3@3@PEBUPxTransformPadded@3@IM@Z 000000018018d940 f   GuPruningPool.obj
 0001:0018e340       ??0BucketPruner@Gu@physx@@QEAA@_K@Z 000000018018f340 f   GuBucketPruner.obj
 0001:0018e390       ??0BucketPrunerCore@Gu@physx@@QEAA@_N@Z 000000018018f390 f   GuBucketPruner.obj
 0001:0018e710       ??1BucketPrunerCore@Gu@physx@@QEAA@XZ 000000018018f710 f   GuBucketPruner.obj
 0001:0018e730       ??R?$BucketPrunerOverlapTraversal@UBucketPrunerAABBAABBTest@@$00@@QEBA_NAEBVBucketPrunerCore@Gu@physx@@AEBUBucketPrunerAABBAABBTest@@AEAUPrunerOverlapCallback@23@AEBVPxBounds3@3@@Z 000000018018f730 f i GuBucketPruner.obj
 0001:0018ecf0       ??R?$BucketPrunerOverlapTraversal@UOBBAABBTest_SIMD@@$0A@@@QEBA_NAEBVBucketPrunerCore@Gu@physx@@AEBUOBBAABBTest_SIMD@@AEAUPrunerOverlapCallback@23@AEBVPxBounds3@3@@Z 000000018018fcf0 f i GuBucketPruner.obj
 0001:0018f520       ??R?$BucketPrunerOverlapTraversal@USphereAABBTest_SIMD@@$00@@QEBA_NAEBVBucketPrunerCore@Gu@physx@@AEBUSphereAABBTest_SIMD@@AEAUPrunerOverlapCallback@23@AEBVPxBounds3@3@@Z 0000000180190520 f i GuBucketPruner.obj
 0001:0018faf0       ??_FBucketPrunerCore@Gu@physx@@QEAAXXZ 0000000180190af0 f i GuBucketPruner.obj
 0001:0018fb00       ??_EBucketPruner@Gu@physx@@UEAAPEAXI@Z 0000000180190b00 f i GuBucketPruner.obj
 0001:0018fb00       ??_GBucketPruner@Gu@physx@@UEAAPEAXI@Z 0000000180190b00 f i GuBucketPruner.obj
 0001:0018fba0       ?addObject@BucketPrunerCore@Gu@physx@@QEAA_NAEBUPrunerPayload@23@AEBVPxBounds3@3@AEBV?$PxTransformT@M@3@I@Z 0000000180190ba0 f   GuBucketPruner.obj
 0001:0018feb0       ?addObjects@BucketPruner@Gu@physx@@UEAA_NPEAIPEBVPxBounds3@3@PEBUPrunerPayload@23@PEBV?$PxTransformT@M@3@I_N@Z 0000000180190eb0 f   GuBucketPruner.obj
 0001:0018ff40       ?addPair@BucketPrunerMap@Gu@physx@@QEAAPEAUBucketPrunerPair@23@AEBUPrunerPayload@23@II@Z 0000000180190f40 f   GuBucketPruner.obj
 0001:00190130       ?allocateSortedMemory@BucketPrunerCore@Gu@physx@@AEAAXI@Z 0000000180191130 f   GuBucketPruner.obj
 0001:001902f0       ?classifyBoxes@BucketPrunerCore@Gu@physx@@AEAAXXZ 00000001801912f0 f   GuBucketPruner.obj
 0001:00190ac0       ?classifyBoxes@BucketPrunerNode@Gu@physx@@QEAAXMMIPEIAUBucketBox@23@PEIBUPrunerPayload@23@PEIBV?$PxTransformT@M@3@0PEIAU523@PEIAV63@_NI@Z 0000000180191ac0 f   GuBucketPruner.obj
 0001:00191340       ?build@CompanionPrunerBucket@@UEAAXXZ 0000000180192340 f   GuSecondaryPruner.obj
 0001:00191340       ?commit@BucketPruner@Gu@physx@@UEAAXXZ 0000000180192340 f   GuBucketPruner.obj
 0001:00191350       ?findPair@BucketPrunerMap@Gu@physx@@QEBAPEBUBucketPrunerPair@23@AEBUPrunerPayload@23@@Z 0000000180192350 f   GuBucketPruner.obj
 0001:00191730       ?getGlobalBounds@BucketPruner@Gu@physx@@UEBAXAEAVPxBounds3@3@@Z 0000000180192730 f   GuBucketPruner.obj
 0001:001917a0       ?getGlobalBounds@BucketPrunerCore@Gu@physx@@QEBAXAEAVPxBounds3@3@@Z 00000001801927a0 f   GuBucketPruner.obj
 0001:00191810       ?getPayloadData@BucketPruner@Gu@physx@@UEBAAEBUPrunerPayload@23@IPEAUPrunerPayloadData@23@@Z 0000000180192810 f i GuBucketPruner.obj
 0001:00191870       ?overlap@BucketPruner@Gu@physx@@UEBA_NAEBVShapeData@23@AEAUPrunerOverlapCallback@23@@Z 0000000180192870 f   GuBucketPruner.obj
 0001:00191890       ?overlap@BucketPrunerCore@Gu@physx@@QEBA_NAEBVShapeData@23@AEAUPrunerOverlapCallback@23@@Z 0000000180192890 f   GuBucketPruner.obj
 0001:00191b70       ?preallocate@BucketPruner@Gu@physx@@UEAAXI@Z 0000000180192b70 f i GuBucketPruner.obj
 0001:00191d60       ?purge@BucketPrunerMap@Gu@physx@@QEAAXXZ 0000000180192d60 f   GuBucketPruner.obj
 0001:00191df0       ?raycast@BucketPruner@Gu@physx@@UEBA_NAEBV?$PxVec3T@M@3@0AEAMAEAUPrunerRaycastCallback@23@@Z 0000000180192df0 f   GuBucketPruner.obj
 0001:00191e40       ?raycast@BucketPrunerCore@Gu@physx@@QEBA_NAEBV?$PxVec3T@M@3@0AEAMAEAUPrunerRaycastCallback@23@@Z 0000000180192e40 f   GuBucketPruner.obj
 0001:00191e80       ?reallocPairs@BucketPrunerMap@Gu@physx@@QEAAXXZ 0000000180192e80 f   GuBucketPruner.obj
 0001:001920c0       ?release@BucketPrunerCore@Gu@physx@@QEAAXXZ 00000001801930c0 f   GuBucketPruner.obj
 0001:00192200       ?removeMarkedObjects@BucketPrunerCore@Gu@physx@@QEAAII@Z 0000000180193200 f   GuBucketPruner.obj
 0001:001925f0       ?removeObject@BucketPrunerCore@Gu@physx@@QEAA_NAEBUPrunerPayload@23@AEAI@Z 00000001801935f0 f   GuBucketPruner.obj
 0001:001928b0       ?removeObjects@BucketPruner@Gu@physx@@UEAAXPEBIIPEAUPrunerPayloadRemovalCallback@23@@Z 00000001801938b0 f   GuBucketPruner.obj
 0001:00192960       ?removePair@BucketPrunerMap@Gu@physx@@QEAA_NAEBUPrunerPayload@23@AEAI1@Z 0000000180193960 f   GuBucketPruner.obj
 0001:00192ae0       ?removePairInternal@BucketPrunerMap@Gu@physx@@QEAAXAEBUPrunerPayload@23@II@Z 0000000180193ae0 f   GuBucketPruner.obj
 0001:00192c80       ?resizeCore@BucketPrunerCore@Gu@physx@@AEAAXXZ 0000000180193c80 f   GuBucketPruner.obj
 0001:00192ee0       ?setTransform@BucketPruner@Gu@physx@@UEAA_NIAEBV?$PxTransformT@M@3@@Z 0000000180193ee0 f i GuBucketPruner.obj
 0001:00192f40       ?shiftOrigin@BucketPruner@Gu@physx@@UEAAXAEBV?$PxVec3T@M@3@@Z 0000000180193f40 f   GuBucketPruner.obj
 0001:00192f40       ?shiftOrigin@CompanionPrunerBucket@@UEAAXAEBV?$PxVec3T@M@physx@@@Z 0000000180193f40 f   GuSecondaryPruner.obj
 0001:00192f50       ?shiftOrigin@BucketPrunerCore@Gu@physx@@QEAAXAEBV?$PxVec3T@M@3@@Z 0000000180193f50 f   GuBucketPruner.obj
 0001:00193e10       ?sweep@BucketPruner@Gu@physx@@UEBA_NAEBVShapeData@23@AEBV?$PxVec3T@M@3@AEAMAEAUPrunerRaycastCallback@23@@Z 0000000180194e10 f   GuBucketPruner.obj
 0001:00193e30       ?sweep@BucketPrunerCore@Gu@physx@@QEBA_NAEBVShapeData@23@AEBV?$PxVec3T@M@3@AEAMAEAUPrunerRaycastCallback@23@@Z 0000000180194e30 f   GuBucketPruner.obj
 0001:00193f00       ?updateObject@BucketPrunerCore@Gu@physx@@QEAA_NAEBVPxBounds3@3@AEBUPrunerPayload@23@AEBV?$PxTransformT@M@3@@Z 0000000180194f00 f   GuBucketPruner.obj
 0001:00193f60       ?updateObjects@BucketPruner@Gu@physx@@UEAAXPEBIIM0PEBVPxBounds3@3@PEBUPxTransformPadded@3@@Z 0000000180194f60 f   GuBucketPruner.obj
 0001:00194070       ?visualize@BucketPruner@Gu@physx@@UEBAXAEAVPxRenderOutput@3@II@Z 0000000180195070 f   GuBucketPruner.obj
 0001:00194070       ?visualize@CompanionPrunerBucket@@UEBAXAEAVPxRenderOutput@physx@@I@Z 0000000180195070 f   GuSecondaryPruner.obj
 0001:00194080       ?visualize@BucketPrunerCore@Gu@physx@@QEBAXAEAVPxRenderOutput@3@I@Z 0000000180195080 f   GuBucketPruner.obj
 0001:00194500       ?addObject@MaverickNode@Gu@physx@@QEAA_NAEBUPrunerPayload@23@IAEBVPxBounds3@3@AEBV?$PxTransformT@M@3@I@Z 0000000180195500 f   GuMaverickNode.obj
 0001:001945e0       ?removeMarkedObjects@MaverickNode@Gu@physx@@QEAAII@Z 00000001801955e0 f   GuMaverickNode.obj
 0001:00194770       ?removeObject@MaverickNode@Gu@physx@@QEAA_NIAEAI@Z 0000000180195770 f   GuMaverickNode.obj
 0001:00194900       ?shiftOrigin@MaverickNode@Gu@physx@@QEAAXAEBV?$PxVec3T@M@3@@Z 0000000180195900 f   GuMaverickNode.obj
 0001:001949f0       ?updateObject@MaverickNode@Gu@physx@@QEAA_NIAEBVPxBounds3@3@AEBV?$PxTransformT@M@3@@Z 00000001801959f0 f   GuMaverickNode.obj
 0001:00194ad0       ??0ExtendedBucketPruner@Gu@physx@@QEAA@_KW4CompanionPrunerType@12@PEBVPruningPool@12@@Z 0000000180195ad0 f   GuExtendedBucketPruner.obj
 0001:00194d00       ??1ExtendedBucketPruner@Gu@physx@@QEAA@XZ 0000000180195d00 f   GuExtendedBucketPruner.obj
 0001:00194e70       ??R?$AABBTreeOverlap@$00U?$OBBAABBTests@$00@Gu@physx@@VAABBTree@23@UBVHNode@23@U?$MainTreeOverlapPrunerCallback@U?$OBBAABBTests@$00@Gu@physx@@@@@Gu@physx@@QEAA_NAEBVAABBTreeBounds@12@AEBVAABBTree@12@AEBU?$OBBAABBTests@$00@12@AEAU?$MainTreeOverlapPrunerCallback@U?$OBBAABBTests@$00@Gu@physx@@@@@Z 0000000180195e70 f i GuExtendedBucketPruner.obj
 0001:00195450       ??R?$AABBTreeOverlap@$00U?$OBBAABBTests@$00@Gu@physx@@VAABBTree@23@UBVHNode@23@UOverlapCallbackAdapter@23@@Gu@physx@@QEAA_NAEBVAABBTreeBounds@12@AEBVAABBTree@12@AEBU?$OBBAABBTests@$00@12@AEAUOverlapCallbackAdapter@12@@Z 0000000180196450 f i GuExtendedBucketPruner.obj
 0001:00195a10       ??R?$AABBTreeOverlap@$00UAABBAABBTest@Gu@physx@@VAABBTree@23@UBVHNode@23@U?$MainTreeOverlapPrunerCallback@UAABBAABBTest@Gu@physx@@@@@Gu@physx@@QEAA_NAEBVAABBTreeBounds@12@AEBVAABBTree@12@AEBUAABBAABBTest@12@AEAU?$MainTreeOverlapPrunerCallback@UAABBAABBTest@Gu@physx@@@@@Z 0000000180196a10 f i GuExtendedBucketPruner.obj
 0001:00195cb0       ??R?$AABBTreeOverlap@$00UAABBAABBTest@Gu@physx@@VAABBTree@23@UBVHNode@23@UOverlapCallbackAdapter@23@@Gu@physx@@QEAA_NAEBVAABBTreeBounds@12@AEBVAABBTree@12@AEBUAABBAABBTest@12@AEAUOverlapCallbackAdapter@12@@Z 0000000180196cb0 f i GuExtendedBucketPruner.obj
 0001:00195f40       ??R?$AABBTreeOverlap@$00UCapsuleAABBTest@Gu@physx@@VAABBTree@23@UBVHNode@23@U?$MainTreeOverlapPrunerCallback@UCapsuleAABBTest@Gu@physx@@@@@Gu@physx@@QEAA_NAEBVAABBTreeBounds@12@AEBVAABBTree@12@AEBUCapsuleAABBTest@12@AEAU?$MainTreeOverlapPrunerCallback@UCapsuleAABBTest@Gu@physx@@@@@Z 0000000180196f40 f i GuExtendedBucketPruner.obj
 0001:001962e0       ??R?$AABBTreeOverlap@$00UCapsuleAABBTest@Gu@physx@@VAABBTree@23@UBVHNode@23@UOverlapCallbackAdapter@23@@Gu@physx@@QEAA_NAEBVAABBTreeBounds@12@AEBVAABBTree@12@AEBUCapsuleAABBTest@12@AEAUOverlapCallbackAdapter@12@@Z 00000001801972e0 f i GuExtendedBucketPruner.obj
 0001:00196670       ??R?$AABBTreeOverlap@$00USphereAABBTest@Gu@physx@@VAABBTree@23@UBVHNode@23@U?$MainTreeOverlapPrunerCallback@USphereAABBTest@Gu@physx@@@@@Gu@physx@@QEAA_NAEBVAABBTreeBounds@12@AEBVAABBTree@12@AEBUSphereAABBTest@12@AEAU?$MainTreeOverlapPrunerCallback@USphereAABBTest@Gu@physx@@@@@Z 0000000180197670 f i GuExtendedBucketPruner.obj
 0001:00196980       ??R?$AABBTreeOverlap@$00USphereAABBTest@Gu@physx@@VAABBTree@23@UBVHNode@23@UOverlapCallbackAdapter@23@@Gu@physx@@QEAA_NAEBVAABBTreeBounds@12@AEBVAABBTree@12@AEBUSphereAABBTest@12@AEAUOverlapCallbackAdapter@12@@Z 0000000180197980 f i GuExtendedBucketPruner.obj
 0001:00196c70       ??R?$AABBTreeRaycast@$00$00VAABBTree@Gu@physx@@UBVHNode@23@U?$MainTreeRaycastPrunerCallback@$00@@@Gu@physx@@QEAA_NAEBVAABBTreeBounds@12@AEBVAABBTree@12@AEBV?$PxVec3T@M@2@2AEAM2AEAU?$MainTreeRaycastPrunerCallback@$00@@@Z 0000000180197c70 f i GuExtendedBucketPruner.obj
 0001:00197390       ??R?$AABBTreeRaycast@$00$00VAABBTree@Gu@physx@@UBVHNode@23@URaycastCallbackAdapter@23@@Gu@physx@@QEAA_NAEBVAABBTreeBounds@12@AEBVAABBTree@12@AEBV?$PxVec3T@M@2@2AEAM2AEAURaycastCallbackAdapter@12@@Z 0000000180198390 f i GuExtendedBucketPruner.obj
 0001:00197a70       ??R?$AABBTreeRaycast@$0A@$00VAABBTree@Gu@physx@@UBVHNode@23@U?$MainTreeRaycastPrunerCallback@$0A@@@@Gu@physx@@QEAA_NAEBVAABBTreeBounds@12@AEBVAABBTree@12@AEBV?$PxVec3T@M@2@2AEAM2AEAU?$MainTreeRaycastPrunerCallback@$0A@@@@Z 0000000180198a70 f i GuExtendedBucketPruner.obj
 0001:00198120       ??R?$AABBTreeRaycast@$0A@$00VAABBTree@Gu@physx@@UBVHNode@23@URaycastCallbackAdapter@23@@Gu@physx@@QEAA_NAEBVAABBTreeBounds@12@AEBVAABBTree@12@AEBV?$PxVec3T@M@2@2AEAM2AEAURaycastCallbackAdapter@12@@Z 0000000180199120 f i GuExtendedBucketPruner.obj
 0001:00198790       ?addTree@ExtendedBucketPruner@Gu@physx@@QEAAXAEBVAABBTreeMergeData@23@I@Z 0000000180199790 f   GuExtendedBucketPruner.obj
 0001:00198910       ?buildMainAABBTree@ExtendedBucketPruner@Gu@physx@@AEAAXXZ 0000000180199910 f   GuExtendedBucketPruner.obj
 0001:001989c0       ?create@?$PxHashBase@V?$PxPair@$$CBUPrunerPayload@Gu@physx@@UExtendedBucketPrunerData@23@@physx@@UPrunerPayload@Gu@2@UExtendedBucketPrunerHash@42@UGetKey@?$PxHashMapBase@UPrunerPayload@Gu@physx@@UExtendedBucketPrunerData@23@UExtendedBucketPrunerHash@23@VPxAllocator@3@@2@VPxAllocator@2@$00@physx@@QEAAPEAV?$PxPair@$$CBUPrunerPayload@Gu@physx@@UExtendedBucketPrunerData@23@@2@AEBUPrunerPayload@Gu@2@AEA_N@Z 00000001801999c0 f i GuExtendedBucketPruner.obj
 0001:00198b90       ?eraseInternal@?$PxHashBase@V?$PxPair@$$CBUPrunerPayload@Gu@physx@@UExtendedBucketPrunerData@23@@physx@@UPrunerPayload@Gu@2@UExtendedBucketPrunerHash@42@UGetKey@?$PxHashMapBase@UPrunerPayload@Gu@physx@@UExtendedBucketPrunerData@23@UExtendedBucketPrunerHash@23@VPxAllocator@3@@2@VPxAllocator@2@$00@physx@@AEAA_NPEAI@Z 0000000180199b90 f i GuExtendedBucketPruner.obj
 0001:00198cb0       ?find@?$PxHashMapBase@UPrunerPayload@Gu@physx@@UExtendedBucketPrunerData@23@UExtendedBucketPrunerHash@23@VPxAllocator@3@@physx@@QEBAPEBV?$PxPair@$$CBUPrunerPayload@Gu@physx@@UExtendedBucketPrunerData@23@@2@AEBUPrunerPayload@Gu@2@@Z 0000000180199cb0 f i GuExtendedBucketPruner.obj
 0001:00198da0       ?getGlobalBounds@ExtendedBucketPruner@Gu@physx@@QEBAXAEAVPxBounds3@3@@Z 0000000180199da0 f   GuExtendedBucketPruner.obj
 0001:00198e70       ?invalidateObject@ExtendedBucketPruner@Gu@physx@@AEAAXAEBUExtendedBucketPrunerData@23@IAEBUPrunerPayload@23@I@Z 0000000180199e70 f   GuExtendedBucketPruner.obj
 0001:00198fb0       ?overlap@ExtendedBucketPruner@Gu@physx@@QEBA_NAEBVShapeData@23@AEAUPrunerOverlapCallback@23@@Z 0000000180199fb0 f   GuExtendedBucketPruner.obj
 0001:00199780       ?raycast@ExtendedBucketPruner@Gu@physx@@QEBA_NAEBV?$PxVec3T@M@3@0AEAMAEAUPrunerRaycastCallback@23@@Z 000000018019a780 f   GuExtendedBucketPruner.obj
 0001:00199860       ?refitMarkedNodes@ExtendedBucketPruner@Gu@physx@@QEAAXPEBVPxBounds3@3@@Z 000000018019a860 f   GuExtendedBucketPruner.obj
 0001:00199d50       ?release@ExtendedBucketPruner@Gu@physx@@QEAAXXZ 000000018019ad50 f   GuExtendedBucketPruner.obj
 0001:00199e20       ?removeMarkedObjects@ExtendedBucketPruner@Gu@physx@@QEAAII@Z 000000018019ae20 f   GuExtendedBucketPruner.obj
 0001:0019a140       ?removeObject@ExtendedBucketPruner@Gu@physx@@QEAA_NAEBUPrunerPayload@23@II0I@Z 000000018019b140 f   GuExtendedBucketPruner.obj
 0001:0019a330       ?reserveInternal@?$PxHashBase@V?$PxPair@$$CBUPrunerPayload@Gu@physx@@UExtendedBucketPrunerData@23@@physx@@UPrunerPayload@Gu@2@UExtendedBucketPrunerHash@42@UGetKey@?$PxHashMapBase@UPrunerPayload@Gu@physx@@UExtendedBucketPrunerData@23@UExtendedBucketPrunerHash@23@VPxAllocator@3@@2@VPxAllocator@2@$00@physx@@AEAAXI@Z 000000018019b330 f i GuExtendedBucketPruner.obj
 0001:0019a530       ?resize@ExtendedBucketPruner@Gu@physx@@AEAAXI@Z 000000018019b530 f   GuExtendedBucketPruner.obj
 0001:0019a6d0       ?shiftOrigin@ExtendedBucketPruner@Gu@physx@@QEAAXAEBV?$PxVec3T@M@3@@Z 000000018019b6d0 f   GuExtendedBucketPruner.obj
 0001:0019a750       ?swapIndex@ExtendedBucketPruner@Gu@physx@@QEAAXIAEBUPrunerPayload@23@I_N@Z 000000018019b750 f   GuExtendedBucketPruner.obj
 0001:0019a820       ?sweep@ExtendedBucketPruner@Gu@physx@@QEBA_NAEBVShapeData@23@AEBV?$PxVec3T@M@3@AEAMAEAUPrunerRaycastCallback@23@@Z 000000018019b820 f   GuExtendedBucketPruner.obj
 0001:0019a9b0       ?updateObject@ExtendedBucketPruner@Gu@physx@@QEAA_NAEBVPxBounds3@3@AEBV?$PxTransformT@M@3@AEBUPrunerPayload@23@II@Z 000000018019b9b0 f   GuExtendedBucketPruner.obj
 0001:0019aa80       ?visualize@ExtendedBucketPruner@Gu@physx@@QEBAXAEAVPxRenderOutput@3@I@Z 000000018019ba80 f   GuExtendedBucketPruner.obj
 0001:0019ab10       ??0?$OBBAABBTests@$00@Gu@physx@@QEAA@AEBV?$PxVec3T@M@2@AEBV?$PxMat33T@M@2@0@Z 000000018019bb10 f i GuSecondaryPruner.obj
 0001:0019ca80       ??_ECompanionPruner@Gu@physx@@UEAAPEAXI@Z 000000018019da80 f i GuSecondaryPruner.obj
 0001:0019ca80       ??_GCompanionPruner@Gu@physx@@UEAAPEAXI@Z 000000018019da80 f i GuSecondaryPruner.obj
 0001:0019cad0       ??_ECompanionPrunerAABBTree@@UEAAPEAXI@Z 000000018019dad0 f i GuSecondaryPruner.obj
 0001:0019cad0       ??_GCompanionPrunerAABBTree@@UEAAPEAXI@Z 000000018019dad0 f i GuSecondaryPruner.obj
 0001:0019cb80       ??_ECompanionPrunerBucket@@UEAAPEAXI@Z 000000018019db80 f i GuSecondaryPruner.obj
 0001:0019cb80       ??_GCompanionPrunerBucket@@UEAAPEAXI@Z 000000018019db80 f i GuSecondaryPruner.obj
 0001:0019cc00       ??_ECompanionPrunerIncremental@@UEAAPEAXI@Z 000000018019dc00 f i GuSecondaryPruner.obj
 0001:0019cc00       ??_GCompanionPrunerIncremental@@UEAAPEAXI@Z 000000018019dc00 f i GuSecondaryPruner.obj
 0001:0019cc80       ?addObject@CompanionPrunerAABBTree@@UEAA_NAEBUPrunerPayload@Gu@physx@@IAEBVPxBounds3@4@AEBV?$PxTransformT@M@4@II@Z 000000018019dc80 f   GuSecondaryPruner.obj
 0001:0019ced0       ?addObject@CompanionPrunerBucket@@UEAA_NAEBUPrunerPayload@Gu@physx@@IAEBVPxBounds3@4@AEBV?$PxTransformT@M@4@II@Z 000000018019ded0 f i GuSecondaryPruner.obj
 0001:0019cef0       ?addObject@CompanionPrunerIncremental@@UEAA_NAEBUPrunerPayload@Gu@physx@@IAEBVPxBounds3@4@AEBV?$PxTransformT@M@4@II@Z 000000018019def0 f i GuSecondaryPruner.obj
 0001:0019cf10       ?addObjectInternal@CompanionPrunerAABBTree@@QEAA_NII@Z 000000018019df10 f   GuSecondaryPruner.obj
 0001:0019d0c0       ?build@CompanionPrunerAABBTree@@UEAAXXZ 000000018019e0c0 f   GuSecondaryPruner.obj
 0001:0019d5b0       ?createCompanionPruner@Gu@physx@@YAPEAVCompanionPruner@12@_KW4CompanionPrunerType@12@PEBVPruningPool@12@@Z 000000018019e5b0 f   GuSecondaryPruner.obj
 0001:0019d7b0       ?getGlobalBounds@CompanionPrunerAABBTree@@UEBAXAEAVPxBounds3@physx@@@Z 000000018019e7b0 f   GuSecondaryPruner.obj
 0001:0019d8a0       ?getGlobalBounds@CompanionPrunerBucket@@UEBAXAEAVPxBounds3@physx@@@Z 000000018019e8a0 f i GuSecondaryPruner.obj
 0001:0019d8b0       ?getGlobalBounds@CompanionPrunerIncremental@@UEBAXAEAVPxBounds3@physx@@@Z 000000018019e8b0 f i GuSecondaryPruner.obj
 0001:0019d8c0       ?getNbObjects@CompanionPrunerAABBTree@@UEBAIXZ 000000018019e8c0 f   GuSecondaryPruner.obj
 0001:0019d8d0       ?getNbObjects@CompanionPrunerBucket@@UEBAIXZ 000000018019e8d0 f i GuSecondaryPruner.obj
 0001:0019d8e0       ?getNbObjects@CompanionPrunerIncremental@@UEBAIXZ 000000018019e8e0 f i GuSecondaryPruner.obj
 0001:0019d8f0       ?growAndPushBack@?$PxArray@ULocalData@CompanionPrunerAABBTree@@V?$PxReflectionAllocator@ULocalData@CompanionPrunerAABBTree@@@physx@@@physx@@IEAAAEAULocalData@CompanionPrunerAABBTree@@AEBU34@@Z 000000018019e8f0 f i GuSecondaryPruner.obj
 0001:0019da10       ?overlap@CompanionPrunerAABBTree@@UEBA_NAEBVShapeData@Gu@physx@@AEAUPrunerOverlapCallback@34@@Z 000000018019ea10 f   GuSecondaryPruner.obj
 0001:0019e990       ?overlap@CompanionPrunerBucket@@UEBA_NAEBVShapeData@Gu@physx@@AEAUPrunerOverlapCallback@34@@Z 000000018019f990 f i GuSecondaryPruner.obj
 0001:0019e9b0       ?overlap@CompanionPrunerIncremental@@UEBA_NAEBVShapeData@Gu@physx@@AEAUPrunerOverlapCallback@34@@Z 000000018019f9b0 f i GuSecondaryPruner.obj
 0001:0019e9d0       ?raycast@CompanionPrunerAABBTree@@UEBA_NAEBV?$PxVec3T@M@physx@@0AEAMAEAUPrunerRaycastCallback@Gu@3@@Z 000000018019f9d0 f   GuSecondaryPruner.obj
 0001:0019eda0       ?raycast@CompanionPrunerBucket@@UEBA_NAEBV?$PxVec3T@M@physx@@0AEAMAEAUPrunerRaycastCallback@Gu@3@@Z 000000018019fda0 f i GuSecondaryPruner.obj
 0001:0019edc0       ?raycast@CompanionPrunerIncremental@@UEBA_NAEBV?$PxVec3T@M@physx@@0AEAMAEAUPrunerRaycastCallback@Gu@3@@Z 000000018019fdc0 f i GuSecondaryPruner.obj
 0001:0019ede0       ?release@CompanionPrunerAABBTree@@UEAAXXZ 000000018019fde0 f   GuSecondaryPruner.obj
 0001:0019edf0       ?release@CompanionPrunerBucket@@UEAAXXZ 000000018019fdf0 f i GuSecondaryPruner.obj
 0001:0019ee00       ?release@CompanionPrunerIncremental@@UEAAXXZ 000000018019fe00 f i GuSecondaryPruner.obj
 0001:0019ee10       ?releaseInternal@CompanionPrunerAABBTree@@QEAAXXZ 000000018019fe10 f   GuSecondaryPruner.obj
 0001:0019ee90       ?removeMarkedObjects@CompanionPrunerAABBTree@@UEAAII@Z 000000018019fe90 f   GuSecondaryPruner.obj
 0001:0019eeb0       ?removeMarkedObjects@CompanionPrunerBucket@@UEAAII@Z 000000018019feb0 f i GuSecondaryPruner.obj
 0001:0019eec0       ?removeMarkedObjects@CompanionPrunerIncremental@@UEAAII@Z 000000018019fec0 f i GuSecondaryPruner.obj
 0001:0019eed0       ?removeObject@CompanionPrunerAABBTree@@UEAA_NAEBUPrunerPayload@Gu@physx@@III@Z 000000018019fed0 f   GuSecondaryPruner.obj
 0001:0019ef70       ?removeObject@CompanionPrunerBucket@@UEAA_NAEBUPrunerPayload@Gu@physx@@III@Z 000000018019ff70 f i GuSecondaryPruner.obj
 0001:0019ef90       ?removeObject@CompanionPrunerIncremental@@UEAA_NAEBUPrunerPayload@Gu@physx@@III@Z 000000018019ff90 f i GuSecondaryPruner.obj
 0001:0019efb0       ?shiftOrigin@CompanionPrunerAABBTree@@UEAAXAEBV?$PxVec3T@M@physx@@@Z 000000018019ffb0 f   GuSecondaryPruner.obj
 0001:0019f0e0       ?shiftOrigin@CompanionPrunerIncremental@@UEAAXAEBV?$PxVec3T@M@physx@@@Z 00000001801a00e0 f i GuSecondaryPruner.obj
 0001:0019f0f0       ?swapIndex@CompanionPrunerIncremental@@UEAAXII@Z 00000001801a00f0 f i GuSecondaryPruner.obj
 0001:0019f100       ?sweep@CompanionPrunerAABBTree@@UEBA_NAEBVShapeData@Gu@physx@@AEBV?$PxVec3T@M@4@AEAMAEAUPrunerRaycastCallback@34@@Z 00000001801a0100 f   GuSecondaryPruner.obj
 0001:0019f630       ?sweep@CompanionPrunerBucket@@UEBA_NAEBVShapeData@Gu@physx@@AEBV?$PxVec3T@M@4@AEAMAEAUPrunerRaycastCallback@34@@Z 00000001801a0630 f i GuSecondaryPruner.obj
 0001:0019f650       ?sweep@CompanionPrunerIncremental@@UEBA_NAEBVShapeData@Gu@physx@@AEBV?$PxVec3T@M@4@AEAMAEAUPrunerRaycastCallback@34@@Z 00000001801a0650 f i GuSecondaryPruner.obj
 0001:0019f670       ?timeStampChange@CompanionPrunerIncremental@@UEAAXXZ 00000001801a0670 f i GuSecondaryPruner.obj
 0001:0019f690       ?updateObject@CompanionPrunerAABBTree@@UEAA_NAEBUPrunerPayload@Gu@physx@@IAEBVPxBounds3@4@AEBV?$PxTransformT@M@4@I@Z 00000001801a0690 f   GuSecondaryPruner.obj
 0001:0019f710       ?updateObject@CompanionPrunerBucket@@UEAA_NAEBUPrunerPayload@Gu@physx@@IAEBVPxBounds3@4@AEBV?$PxTransformT@M@4@I@Z 00000001801a0710 f i GuSecondaryPruner.obj
 0001:0019f730       ?updateObject@CompanionPrunerIncremental@@UEAA_NAEBUPrunerPayload@Gu@physx@@IAEBVPxBounds3@4@AEBV?$PxTransformT@M@4@I@Z 00000001801a0730 f i GuSecondaryPruner.obj
 0001:0019f740       ?visualize@CompanionPrunerAABBTree@@UEBAXAEAVPxRenderOutput@physx@@I@Z 00000001801a0740 f   GuSecondaryPruner.obj
 0001:0019f760       ?visualize@CompanionPrunerIncremental@@UEBAXAEAVPxRenderOutput@physx@@I@Z 00000001801a0760 f i GuSecondaryPruner.obj
 0001:0019f770       ??0AABBPruner@Gu@physx@@QEAA@_N_KW4CompanionPrunerType@12@W4BVHBuildStrategy@12@I@Z 00000001801a0770 f   GuAABBPruner.obj
 0001:0019f8a0       ??1AABBPruner@Gu@physx@@UEAA@XZ 00000001801a08a0 f   GuAABBPruner.obj
 0001:0019fa00       ??_EAABBPruner@Gu@physx@@UEAAPEAXI@Z 00000001801a0a00 f i GuAABBPruner.obj
 0001:0019fa00       ??_GAABBPruner@Gu@physx@@UEAAPEAXI@Z 00000001801a0a00 f i GuAABBPruner.obj
 0001:0019fa70       ?addObjects@AABBPruner@Gu@physx@@UEAA_NPEAIPEBVPxBounds3@3@PEBUPrunerPayload@23@PEBV?$PxTransformT@M@3@I_N@Z 00000001801a0a70 f   GuAABBPruner.obj
 0001:0019fbd0       ?buildStep@AABBPruner@Gu@physx@@UEAA_N_N@Z 00000001801a0bd0 f   GuAABBPruner.obj
 0001:0019fe00       ?commit@AABBPruner@Gu@physx@@UEAAXXZ 00000001801a0e00 f   GuAABBPruner.obj
 0001:001a01f0       ?getGlobalBounds@AABBPruner@Gu@physx@@UEBAXAEAVPxBounds3@3@@Z 00000001801a11f0 f   GuAABBPruner.obj
 0001:001a0330       ?getPayloadData@AABBPruner@Gu@physx@@UEBAAEBUPrunerPayload@23@IPEAUPrunerPayloadData@23@@Z 00000001801a1330 f i GuAABBPruner.obj
 0001:001a0390       ?growAndPushBack@?$PxArray@UNewTreeFixup@AABBPruner@Gu@physx@@V?$PxReflectionAllocator@UNewTreeFixup@AABBPruner@Gu@physx@@@4@@physx@@IEAAAEAUNewTreeFixup@AABBPruner@Gu@2@AEBU3452@@Z 00000001801a1390 f i GuAABBPruner.obj
 0001:001a04b0       ?isDynamic@AABBPruner@Gu@physx@@UEBA_NXZ 00000001801a14b0 f i GuAABBPruner.obj
 0001:001a04c0       ?merge@AABBPruner@Gu@physx@@UEAAXPEBX@Z 00000001801a14c0 f   GuAABBPruner.obj
 0001:001a0540       ?overlap@AABBPruner@Gu@physx@@UEBA_NAEBVShapeData@23@AEAUPrunerOverlapCallback@23@@Z 00000001801a1540 f   GuAABBPruner.obj
 0001:001a0b10       ?preallocate@AABBPruner@Gu@physx@@UEAAXI@Z 00000001801a1b10 f i GuAABBPruner.obj
 0001:001a0b20       ?prepareBuild@AABBPruner@Gu@physx@@UEAA_NXZ 00000001801a1b20 f   GuAABBPruner.obj
 0001:001a0cb0       ?purge@AABBPruner@Gu@physx@@UEAAXXZ 00000001801a1cb0 f   GuAABBPruner.obj
 0001:001a0cd0       ?raycast@AABBPruner@Gu@physx@@UEBA_NAEBV?$PxVec3T@M@3@0AEAMAEAUPrunerRaycastCallback@23@@Z 00000001801a1cd0 f   GuAABBPruner.obj
 0001:001a0dc0       ?release@AABBPruner@Gu@physx@@QEAAXXZ 00000001801a1dc0 f   GuAABBPruner.obj
 0001:001a0ef0       ?removeObjects@AABBPruner@Gu@physx@@UEAAXPEBIIPEAUPrunerPayloadRemovalCallback@23@@Z 00000001801a1ef0 f   GuAABBPruner.obj
 0001:001a10e0       ?setRebuildRateHint@AABBPruner@Gu@physx@@UEAAXI@Z 00000001801a20e0 f   GuAABBPruner.obj
 0001:001a1100       ?setTransform@AABBPruner@Gu@physx@@UEAA_NIAEBV?$PxTransformT@M@3@@Z 00000001801a2100 f i GuAABBPruner.obj
 0001:001a1160       ?shiftOrigin@AABBPruner@Gu@physx@@UEAAXAEBV?$PxVec3T@M@3@@Z 00000001801a2160 f   GuAABBPruner.obj
 0001:001a11d0       ?sweep@AABBPruner@Gu@physx@@UEBA_NAEBVShapeData@23@AEBV?$PxVec3T@M@3@AEAMAEAUPrunerRaycastCallback@23@@Z 00000001801a21d0 f   GuAABBPruner.obj
 0001:001a1360       ?updateObjects@AABBPruner@Gu@physx@@UEAAXPEBIIM0PEBVPxBounds3@3@PEBUPxTransformPadded@3@@Z 00000001801a2360 f   GuAABBPruner.obj
 0001:001a1500       ?visualize@AABBPruner@Gu@physx@@UEBAXAEAVPxRenderOutput@3@II@Z 00000001801a2500 f   GuAABBPruner.obj
 0001:001a15b0       ??0ActorShapeMap@Gu@physx@@QEAA@XZ 00000001801a25b0 f   GuActorShapeMap.obj
 0001:001a1610       ??1ActorShapeMap@Gu@physx@@QEAA@XZ 00000001801a2610 f   GuActorShapeMap.obj
 0001:001a1670       ?add@ActorShapeMap@Gu@physx@@QEAA_NIPEBX0_K@Z 00000001801a2670 f   GuActorShapeMap.obj
 0001:001a1810       ?create@?$PxHashBase@V?$PxPair@$$CBUActorShape@ActorShapeMap@Gu@physx@@_K@physx@@UActorShape@ActorShapeMap@Gu@2@U?$PxHash@UActorShape@ActorShapeMap@Gu@physx@@@2@UGetKey@?$PxHashMapBase@UActorShape@ActorShapeMap@Gu@physx@@_KU?$PxHash@UActorShape@ActorShapeMap@Gu@physx@@@4@VPxAllocator@4@@2@VPxAllocator@2@$00@physx@@QEAAPEAV?$PxPair@$$CBUActorShape@ActorShapeMap@Gu@physx@@_K@2@AEBUActorShape@ActorShapeMap@Gu@2@AEA_N@Z 00000001801a2810 f i GuActorShapeMap.obj
 0001:001a1a00       ?eraseInternal@?$PxHashBase@V?$PxPair@$$CBUActorShape@ActorShapeMap@Gu@physx@@_K@physx@@UActorShape@ActorShapeMap@Gu@2@U?$PxHash@UActorShape@ActorShapeMap@Gu@physx@@@2@UGetKey@?$PxHashMapBase@UActorShape@ActorShapeMap@Gu@physx@@_KU?$PxHash@UActorShape@ActorShapeMap@Gu@physx@@@4@VPxAllocator@4@@2@VPxAllocator@2@$00@physx@@AEAA_NPEAI@Z 00000001801a2a00 f i GuActorShapeMap.obj
 0001:001a1b10       ?find@ActorShapeMap@Gu@physx@@QEBA_KIPEBX0@Z 00000001801a2b10 f   GuActorShapeMap.obj
 0001:001a1c00       ?remove@ActorShapeMap@Gu@physx@@QEAA_NIPEBX0PEA_K@Z 00000001801a2c00 f   GuActorShapeMap.obj
 0001:001a1d50       ?reserveInternal@?$PxHashBase@V?$PxPair@$$CBUActorShape@ActorShapeMap@Gu@physx@@_K@physx@@UActorShape@ActorShapeMap@Gu@2@U?$PxHash@UActorShape@ActorShapeMap@Gu@physx@@@2@UGetKey@?$PxHashMapBase@UActorShape@ActorShapeMap@Gu@physx@@_KU?$PxHash@UActorShape@ActorShapeMap@Gu@physx@@@4@VPxAllocator@4@@2@VPxAllocator@2@$00@physx@@AEAAXI@Z 00000001801a2d50 f i GuActorShapeMap.obj
 0001:001a1f60       ??0QuerySystem@Gu@physx@@QEAA@_KMAEBVAdapter@12@_N@Z 00000001801a2f60 f   GuQuerySystem.obj
 0001:001a2030       ??1QuerySystem@Gu@physx@@QEAA@XZ 00000001801a3030 f   GuQuerySystem.obj
 0001:001a2250       ??_GPrunerExt@QuerySystem@Gu@physx@@QEAAPEAXI@Z 00000001801a3250 f i GuQuerySystem.obj
 0001:001a2360       ?addPruner@QuerySystem@Gu@physx@@QEAAIPEAVPruner@23@I@Z 00000001801a3360 f   GuQuerySystem.obj
 0001:001a2480       ?addPrunerShape@QuerySystem@Gu@physx@@QEAA_KAEBUPrunerPayload@23@I_NAEBV?$PxTransformT@M@3@PEBVPxBounds3@3@@Z 00000001801a3480 f   GuQuerySystem.obj
 0001:001a25c0       ?addToDirtyList@PrunerExt@QuerySystem@Gu@physx@@QEAAXIIAEBV?$PxTransformT@M@4@PEBVPxBounds3@4@@Z 00000001801a35c0 f   GuQuerySystem.obj
 0001:001a2810       ?commitUpdates@QuerySystem@Gu@physx@@QEAAXXZ 00000001801a3810 f   GuQuerySystem.obj
 0001:001a28c0       ?createTreeOfPruners@QuerySystem@Gu@physx@@QEAAXXZ 00000001801a38c0 f   GuQuerySystem.obj
 0001:001a2a20       ?flushMemory@QuerySystem@Gu@physx@@QEAAXXZ 00000001801a3a20 f   GuQuerySystem.obj
 0001:001a2ab0       ?getPayloadData@QuerySystem@Gu@physx@@QEBAAEBUPrunerPayload@23@_KPEAUPrunerPayloadData@23@@Z 00000001801a3ab0 f   GuQuerySystem.obj
 0001:001a2ad0       ?growAndPushBack@?$PxArray@PEAUPrunerExt@QuerySystem@Gu@physx@@V?$PxReflectionAllocator@PEAUPrunerExt@QuerySystem@Gu@physx@@@4@@physx@@IEAAAEAPEAUPrunerExt@QuerySystem@Gu@2@AEBQEAU3452@@Z 00000001801a3ad0 f i GuQuerySystem.obj
 0001:001a2bf0       ?overlap@QuerySystem@Gu@physx@@QEBAXAEBVShapeData@23@AEAUPrunerOverlapCallback@23@PEBVPrunerFilter@23@@Z 00000001801a3bf0 f   GuQuerySystem.obj
 0001:001a2cf0       ?processDirtyLists@QuerySystem@Gu@physx@@AEAAXXZ 00000001801a3cf0 f   GuQuerySystem.obj
 0001:001a2fd0       ?raycast@QuerySystem@Gu@physx@@QEBAXAEBV?$PxVec3T@M@3@0AEAMAEAUPrunerRaycastCallback@23@PEBVPrunerFilter@23@@Z 00000001801a3fd0 f   GuQuerySystem.obj
 0001:001a3110       ?recreate@?$PxArray@UData@PrunerExt@QuerySystem@Gu@physx@@V?$PxReflectionAllocator@UData@PrunerExt@QuerySystem@Gu@physx@@@5@@physx@@IEAAXI@Z 00000001801a4110 f i GuQuerySystem.obj
 0001:001a3400       ?removePruner@QuerySystem@Gu@physx@@QEAAXI@Z 00000001801a4400 f   GuQuerySystem.obj
 0001:001a34e0       ?removePrunerShape@QuerySystem@Gu@physx@@QEAAX_KPEAUPrunerPayloadRemovalCallback@23@@Z 00000001801a44e0 f   GuQuerySystem.obj
 0001:001a3710       ?sweep@QuerySystem@Gu@physx@@QEBAXAEBVShapeData@23@AEBV?$PxVec3T@M@3@AEAMAEAUPrunerRaycastCallback@23@PEBVPrunerFilter@23@@Z 00000001801a4710 f   GuQuerySystem.obj
 0001:001a3840       ?sync@QuerySystem@Gu@physx@@QEAAXIPEBI0PEBVPxBounds3@3@PEBUPxTransformPadded@3@I@Z 00000001801a4840 f   GuQuerySystem.obj
 0001:001a38f0       ?update@QuerySystem@Gu@physx@@QEAAX_N0@Z 00000001801a48f0 f   GuQuerySystem.obj
 0001:001a39c0       ?updatePrunerShape@QuerySystem@Gu@physx@@QEAAX_K_NAEBV?$PxTransformT@M@3@PEBVPxBounds3@3@@Z 00000001801a49c0 f   GuQuerySystem.obj
 0001:001a3bb0       createAABBPruner           00000001801a4bb0 f   GuFactory.obj
 0001:001a3c70       createBucketPruner         00000001801a4c70 f   GuFactory.obj
 0001:001a3d00       createIncrementalPruner    00000001801a4d00 f   GuFactory.obj
 0001:001a3d90       ??$PxSmallSort@I$$CBUSortBoundsPredicate@physx@@@physx@@YAXPEAIHHAEBUSortBoundsPredicate@0@@Z 00000001801a4d90 f i GuRTreeCooking.obj
 0001:001a4040       ??$PxSort@IU?$PxLess@I@physx@@V?$PxReflectionAllocator@I@2@@physx@@YAXPEAIIAEBU?$PxLess@I@0@AEBV?$PxReflectionAllocator@I@0@I@Z 00000001801a5040 f i GuRTreeCooking.obj
 0001:001a4490       ??$PxSort@IUSortBoundsPredicate@physx@@V?$PxReflectionAllocator@I@2@@physx@@YAXPEAIIAEBUSortBoundsPredicate@0@AEBV?$PxReflectionAllocator@I@0@I@Z 00000001801a5490 f i GuRTreeCooking.obj
 0001:001a4940       ??$quickSelectFirstK@UBoundsLTE@physx@@@quickSelect@physx@@YAXPEIAIIIIAEBUBoundsLTE@1@@Z 00000001801a5940 f i GuRTreeCooking.obj
 0001:001a4b10       ?allocate@?$PxArray@UInterval@physx@@V?$PxInlineAllocator@$0CAAA@V?$PxReflectionAllocator@UInterval@physx@@@physx@@@2@@physx@@IEAAPEAUInterval@2@IPEAI@Z 00000001801a5b10 f i GuRTreeCooking.obj
 0001:001a58b0       ?buildFromTriangles@RTreeCooker@physx@@SAXAEAURTree@Gu@2@PEBV?$PxVec3T@M@2@IPEBGPEBIIAEAV?$PxArray@IV?$PxReflectionAllocator@I@physx@@@2@PEAURemapCallback@12@MW4Enum@PxMeshCookingHint@2@@Z 00000001801a68b0 f   GuRTreeCooking.obj
 0001:001a5b70       ?copy@?$PxArray@URTreeNodeNQ@physx@@V?$PxReflectionAllocator@URTreeNodeNQ@physx@@@2@@physx@@KAXPEAURTreeNodeNQ@2@0PEBU32@@Z 00000001801a6b70 f i GuRTreeCooking.obj
 0001:001a5d30       ?growAndPushBack@?$PxArray@UInterval@physx@@V?$PxInlineAllocator@$0CAAA@V?$PxReflectionAllocator@UInterval@physx@@@physx@@@2@@physx@@IEAAAEAUInterval@2@AEBU32@@Z 00000001801a6d30 f i GuRTreeCooking.obj
 0001:001a5e20       ?growAndPushBack@?$PxArray@UPxBounds3V@physx@@V?$PxReflectionAllocator@UPxBounds3V@physx@@@2@@physx@@IEAAAEAUPxBounds3V@2@AEBU32@@Z 00000001801a6e20 f i GuRTreeCooking.obj
 0001:001a5f50       ?growAndPushBack@?$PxArray@URTreeNodeNQ@physx@@V?$PxReflectionAllocator@URTreeNodeNQ@physx@@@2@@physx@@IEAAAEAURTreeNodeNQ@2@AEBU32@@Z 00000001801a6f50 f i GuRTreeCooking.obj
 0001:001a6090       ?growAndPushBack@?$PxArray@URTreeNodeQ@Gu@physx@@V?$PxReflectionAllocator@URTreeNodeQ@Gu@physx@@@3@@physx@@IEAAAEAURTreeNodeQ@Gu@2@AEBU342@@Z 00000001801a7090 f i GuRTreeCooking.obj
 0001:001a61d0       ?recreate@?$PxArray@UPxBounds3V@physx@@V?$PxReflectionAllocator@UPxBounds3V@physx@@@2@@physx@@IEAAXI@Z 00000001801a71d0 f i GuRTreeCooking.obj
 0001:001a62d0       ?recreate@?$PxArray@URTreeNodeNQ@physx@@V?$PxReflectionAllocator@URTreeNodeNQ@physx@@@2@@physx@@IEAAXI@Z 00000001801a72d0 f i GuRTreeCooking.obj
 0001:001a63b0       ?recreate@?$PxArray@URTreeNodeQ@Gu@physx@@V?$PxReflectionAllocator@URTreeNodeQ@Gu@physx@@@3@@physx@@IEAAXI@Z 00000001801a73b0 f i GuRTreeCooking.obj
 0001:001a64b0       ?resizeUninitialized@?$PxArray@URTreeNodeNQ@physx@@V?$PxReflectionAllocator@URTreeNodeNQ@physx@@@2@@physx@@QEAAXI@Z 00000001801a74b0 f i GuRTreeCooking.obj
 0001:001a64f0       ?sort4@SubSortQuick@physx@@QEAAXPEIAIIAEAV?$PxArray@URTreeNodeNQ@physx@@V?$PxReflectionAllocator@URTreeNodeNQ@physx@@@2@@2@AEAIAEAUPxBounds3V@2@I@Z 00000001801a74f0 f i GuRTreeCooking.obj
 0001:001a6880       ?sort4@SubSortSAH@physx@@QEAAXPEAIIAEAV?$PxArray@URTreeNodeNQ@physx@@V?$PxReflectionAllocator@URTreeNodeNQ@physx@@@2@@2@AEAIIPEAURTreeNodeNQ@2@@Z 00000001801a7880 f i GuRTreeCooking.obj
 0001:001a7140       ?split@SubSortSAH@physx@@QEAAIPEAII@Z 00000001801a8140 f i GuRTreeCooking.obj
 0001:001a7c10       cookBVH                    00000001801a8c10 f   GuCookingBVH.obj
 0001:001a7da0       createBVH                  00000001801a8da0 f   GuCookingBVH.obj
 0001:001a7f30       cookHeightField            00000001801a8f30 f   GuCookingHF.obj
 0001:001a8040       createHeightField          00000001801a9040 f   GuCookingHF.obj
 0001:001a86a0       ?isFinite@?$PxVec3T@M@physx@@QEBA_NXZ 00000001801a96a0 f i GuCookingConvexMesh.obj
 0001:001a8700       computeHullPolygons        00000001801a9700 f   GuCookingConvexMesh.obj
 0001:001a88e0       cookConvexMesh             00000001801a98e0 f   GuCookingConvexMesh.obj
 0001:001a8a20       createConvexMesh           00000001801a9a20 f   GuCookingConvexMesh.obj
 0001:001a8ba0       validateConvexMesh         00000001801a9ba0 f   GuCookingConvexMesh.obj
 0001:001a8cc0       ??1BV4TriangleMeshBuilder@physx@@UEAA@XZ 00000001801a9cc0 f   GuCookingTriangleMesh.obj
 0001:001a8d50       ??1RTreeTriangleMeshBuilder@physx@@UEAA@XZ 00000001801a9d50 f   GuCookingTriangleMesh.obj
 0001:001a8dc0       ??_EBV4TriangleMeshBuilder@physx@@UEAAPEAXI@Z 00000001801a9dc0 f i GuCookingTriangleMesh.obj
 0001:001a8dc0       ??_GBV4TriangleMeshBuilder@physx@@UEAAPEAXI@Z 00000001801a9dc0 f i GuCookingTriangleMesh.obj
 0001:001a8e00       ??_ERTreeTriangleMeshBuilder@physx@@UEAAPEAXI@Z 00000001801a9e00 f i GuCookingTriangleMesh.obj
 0001:001a8e00       ??_GRTreeTriangleMeshBuilder@physx@@UEAAPEAXI@Z 00000001801a9e00 f i GuCookingTriangleMesh.obj
 0001:001a8e40       ??_ETriangleMeshBuilder@physx@@UEAAPEAXI@Z 00000001801a9e40 f i GuCookingTriangleMesh.obj
 0001:001a8e40       ??_GTriangleMeshBuilder@physx@@UEAAPEAXI@Z 00000001801a9e40 f i GuCookingTriangleMesh.obj
 0001:001a97f0       ?buildInertiaTensor@TriangleMeshBuilder@physx@@IEAAX_N@Z 00000001801aa7f0 f   GuCookingTriangleMesh.obj
 0001:001a9910       ?buildInertiaTensorFromSDF@TriangleMeshBuilder@physx@@IEAAXXZ 00000001801aa910 f   GuCookingTriangleMesh.obj
 0001:001a9b10       ?cleanMesh@TriangleMeshBuilder@physx@@QEAA_N_NPEAW4Enum@PxTriangleMeshCookingResult@2@@Z 00000001801aab10 f   GuCookingTriangleMesh.obj
 0001:001aa000       ?createGRBMidPhaseAndData@TriangleMeshBuilder@physx@@QEAA_NI@Z 00000001801ab000 f   GuCookingTriangleMesh.obj
 0001:001aa1b0       ?createMidPhaseStructure@BV32TriangleMeshBuilder@physx@@SA_NAEBUPxCookingParams@2@AEAVTriangleMeshData@Gu@2@AEAVBV32Tree@52@@Z 00000001801ab1b0 f   GuCookingTriangleMesh.obj
 0001:001aa400       ?createMidPhaseStructure@BV4TriangleMeshBuilder@physx@@UEAA_NXZ 00000001801ab400 f   GuCookingTriangleMesh.obj
 0001:001aa6c0       ?createMidPhaseStructure@RTreeTriangleMeshBuilder@physx@@UEAA_NXZ 00000001801ab6c0 f   GuCookingTriangleMesh.obj
 0001:001aa7b0       ?createSharedEdgeData@TriangleMeshBuilder@physx@@QEAAX_N0@Z 00000001801ab7b0 f   GuCookingTriangleMesh.obj
 0001:001aae30       ?createVertMapping@TriangleMeshBuilder@physx@@QEAAXXZ 00000001801abe30 f   GuCookingTriangleMesh.obj
 0001:001ab1a0       ?importMesh@TriangleMeshBuilder@physx@@IEAA_NAEBVPxTriangleMeshDesc@2@PEAW4Enum@PxTriangleMeshCookingResult@2@_N@Z 00000001801ac1a0 f   GuCookingTriangleMesh.obj
 0001:001ab6f0       ?isValid@PxTriangleMeshDesc@physx@@QEBA_NXZ 00000001801ac6f0 f i GuCookingTriangleMesh.obj
 0001:001ab7c0       ?loadFromDescInternal@TriangleMeshBuilder@physx@@IEAA_NAEAVPxTriangleMeshDesc@2@PEAW4Enum@PxTriangleMeshCookingResult@2@_N@Z 00000001801ac7c0 f   GuCookingTriangleMesh.obj
 0001:001ab9e0       ?onMeshIndexFormatChange@BV4TriangleMeshBuilder@physx@@UEAAXXZ 00000001801ac9e0 f   GuCookingTriangleMesh.obj
 0001:001aba20       ?remap@RTreeCookerRemap@@UEAAXPEAIII@Z 00000001801aca20 f i GuCookingTriangleMesh.obj
 0001:001aba40       ?remapTopology@TriangleMeshBuilder@physx@@QEAAXPEBI@Z 00000001801aca40 f   GuCookingTriangleMesh.obj
 0001:001abce0       ?save@TriangleMeshBuilder@physx@@QEBA_NAEAVPxOutputStream@2@_NAEBUPxCookingParams@2@@Z 00000001801acce0 f   GuCookingTriangleMesh.obj
 0001:001ac490       ?saveMidPhaseStructure@BV32TriangleMeshBuilder@physx@@SAXPEAVBV32Tree@Gu@2@AEAVPxOutputStream@2@_N@Z 00000001801ad490 f   GuCookingTriangleMesh.obj
 0001:001ac690       ?saveMidPhaseStructure@BV4TriangleMeshBuilder@physx@@UEBAXAEAVPxOutputStream@2@_N@Z 00000001801ad690 f   GuCookingTriangleMesh.obj
 0001:001ac840       ?saveMidPhaseStructure@RTreeTriangleMeshBuilder@physx@@UEBAXAEAVPxOutputStream@2@_N@Z 00000001801ad840 f   GuCookingTriangleMesh.obj
 0001:001aca80       cookTriangleMesh           00000001801ada80 f   GuCookingTriangleMesh.obj
 0001:001acd60       createTriangleMesh         00000001801add60 f   GuCookingTriangleMesh.obj
 0001:001acf80       validateTriangleMesh       00000001801adf80 f   GuCookingTriangleMesh.obj
 0001:001ad210       ??0DeformableVolumeCollisionData@Gu@physx@@QEAA@XZ 00000001801ae210 f i GuCookingTetrahedronMesh.obj
 0001:001ad270       ??_ECollisionTetrahedronMeshData@Gu@physx@@UEAAPEAXI@Z 00000001801ae270 f i GuCookingTetrahedronMesh.obj
 0001:001ad270       ??_GCollisionTetrahedronMeshData@Gu@physx@@UEAAPEAXI@Z 00000001801ae270 f i GuCookingTetrahedronMesh.obj
 0001:001ad340       ??_EPxCollisionTetrahedronMeshData@physx@@UEAAPEAXI@Z 00000001801ae340 f i GuCookingTetrahedronMesh.obj
 0001:001ad340       ??_GPxCollisionTetrahedronMeshData@physx@@UEAAPEAXI@Z 00000001801ae340 f i GuCookingTetrahedronMesh.obj
 0001:001ad390       ??_EPxSimulationTetrahedronMeshData@physx@@UEAAPEAXI@Z 00000001801ae390 f i GuCookingTetrahedronMesh.obj
 0001:001ad390       ??_GPxSimulationTetrahedronMeshData@physx@@UEAAPEAXI@Z 00000001801ae390 f i GuCookingTetrahedronMesh.obj
 0001:001ad3e0       ??_ESimulationTetrahedronMeshData@Gu@physx@@UEAAPEAXI@Z 00000001801ae3e0 f i GuCookingTetrahedronMesh.obj
 0001:001ad3e0       ??_GSimulationTetrahedronMeshData@Gu@physx@@UEAAPEAXI@Z 00000001801ae3e0 f i GuCookingTetrahedronMesh.obj
 0001:001ad4b0       ?PointOutsideOfPlane4@Gu@physx@@YA?AV?$PxVec4T@M@2@AEBV?$PxVec3T@M@2@0000@Z 00000001801ae4b0 f i GuCookingTetrahedronMesh.obj
 0001:001ad920       ?combineGridModelPartitions@@YAXAEBVTetrahedronMeshData@Gu@physx@@AEAVDeformableVolumeSimulationData@23@PEAPEAI@Z 00000001801ae920 f   GuCookingTetrahedronMesh.obj
 0001:001ae160       ?combineGridModelPartitionsHexMesh_parallelGS@@YAXAEBVTetrahedronMeshData@Gu@physx@@AEAVDeformableVolumeSimulationData@23@PEAPEAI@Z 00000001801af160 f   GuCookingTetrahedronMesh.obj
 0001:001ae480       ?computeCollisionData@TetrahedronMeshBuilder@physx@@SA_NAEBVPxTetrahedronMeshDesc@2@AEAVTetrahedronMeshData@Gu@2@AEAVDeformableVolumeCollisionData@52@AEBUPxCookingParams@2@_N@Z 00000001801af480 f   GuCookingTetrahedronMesh.obj
 0001:001ae6c0       ?computeGridModelTetrahedronPartitions@@YAPEAIAEBVTetrahedronMeshData@Gu@physx@@AEAVDeformableVolumeSimulationData@23@@Z 00000001801af6c0 f   GuCookingTetrahedronMesh.obj
 0001:001aeb90       ?computeGridModelVoxelPartitions@@YAPEAIAEBVTetrahedronMeshData@Gu@physx@@AEAVDeformableVolumeSimulationData@23@@Z 00000001801afb90 f   GuCookingTetrahedronMesh.obj
 0001:001af3c0       ?computeModelsMapping@TetrahedronMeshBuilder@physx@@SAXAEAVTetrahedronMeshData@Gu@2@AEBV342@AEBVDeformableVolumeCollisionData@42@AEAVCollisionMeshMappingData@42@_NPEBUPxBoundedData@2@@Z 00000001801b03c0 f   GuCookingTetrahedronMesh.obj
 0001:001affd0       ?computeRestPoseAndPointMass@@YAXPEAU?$TetrahedronT@I@Gu@physx@@IPEBV?$PxVec3T@M@3@PEAMPEAV?$PxMat33T@M@3@@Z 00000001801b0fd0 f   GuCookingTetrahedronMesh.obj
 0001:001b0500       ?computeSimData@TetrahedronMeshBuilder@physx@@SAXAEBVPxTetrahedronMeshDesc@2@AEAVTetrahedronMeshData@Gu@2@AEAVDeformableVolumeSimulationData@52@AEBUPxCookingParams@2@@Z 00000001801b1500 f   GuCookingTetrahedronMesh.obj
 0001:001b0bf0       ?computeTetData@TetrahedronMeshBuilder@physx@@SAXAEBVPxTetrahedronMeshDesc@2@AEAVTetrahedronMeshData@Gu@2@@Z 00000001801b1bf0 f   GuCookingTetrahedronMesh.obj
 0001:001b0ce0       ?computeTetrahedronPartition@@YAIPEBU?$TetrahedronT@I@Gu@physx@@IPEAII@Z 00000001801b1ce0 f   GuCookingTetrahedronMesh.obj
 0001:001b0dd0       ?create@?$PxHashBase@IIU?$PxHash@I@physx@@UGetKey@?$PxHashSetBase@IU?$PxHash@I@physx@@VPxAllocator@2@$0A@@2@VPxAllocator@2@$0A@@physx@@QEAAPEAIAEBIAEA_N@Z 00000001801b1dd0 f i GuCookingTetrahedronMesh.obj
 0001:001b0f50       ?createCollisionModelMapping@TetrahedronMeshBuilder@physx@@SAXAEBVTetrahedronMeshData@Gu@2@AEBVDeformableVolumeCollisionData@42@AEAVCollisionMeshMappingData@42@@Z 00000001801b1f50 f   GuCookingTetrahedronMesh.obj
 0001:001b1540       ?createGRBMidPhaseAndData@TetrahedronMeshBuilder@physx@@SA_NIAEAVTetrahedronMeshData@Gu@2@AEAVDeformableVolumeCollisionData@42@AEBUPxCookingParams@2@@Z 00000001801b2540 f   GuCookingTetrahedronMesh.obj
 0001:001b22a0       ?createMidPhaseStructure@BV32TetrahedronMeshBuilder@physx@@SA_NAEBUPxCookingParams@2@AEAVTetrahedronMeshData@Gu@2@AEAVBV32Tree@52@AEAVDeformableVolumeCollisionData@52@@Z 00000001801b32a0 f   GuCookingTetrahedronMesh.obj
 0001:001b2570       ?createMidPhaseStructure@TetrahedronMeshBuilder@physx@@SA_NAEAVTetrahedronMeshData@Gu@2@AEAVDeformableVolumeCollisionData@42@AEBUPxCookingParams@2@@Z 00000001801b3570 f   GuCookingTetrahedronMesh.obj
 0001:001b3240       ?getData@CollisionTetrahedronMeshData@Gu@physx@@UEAAPEAVPxDeformableVolumeCollisionData@3@XZ 00000001801b4240 f i GuCookingTetrahedronMesh.obj
 0001:001b3240       ?getData@CollisionTetrahedronMeshData@Gu@physx@@UEBAPEBVPxDeformableVolumeCollisionData@3@XZ 00000001801b4240 f i GuCookingTetrahedronMesh.obj
 0001:001b3240       ?getData@SimulationTetrahedronMeshData@Gu@physx@@UEAAPEAVPxDeformableVolumeSimulationData@3@XZ 00000001801b4240 f i GuCookingTetrahedronMesh.obj
 0001:001b3260       ?importMesh@TetrahedronMeshBuilder@physx@@SA_NAEBVPxTetrahedronMeshDesc@2@AEBUPxCookingParams@2@AEAVTetrahedronMeshData@Gu@2@AEAVDeformableVolumeCollisionData@62@_N@Z 00000001801b4260 f   GuCookingTetrahedronMesh.obj
 0001:001b3560       ?isValid@PxTetrahedronMeshDesc@physx@@QEBA_NXZ 00000001801b4560 f i GuCookingTetrahedronMesh.obj
 0001:001b35e0       ?loadFromDesc@TetrahedronMeshBuilder@physx@@SA_NAEBVPxTetrahedronMeshDesc@2@0VPxDeformableVolumeSimulationDataDesc@2@AEAVTetrahedronMeshData@Gu@2@AEAVDeformableVolumeSimulationData@62@2AEAVDeformableVolumeCollisionData@62@AEAVCollisionMeshMappingData@62@AEBUPxCookingParams@2@_N@Z 00000001801b45e0 f   GuCookingTetrahedronMesh.obj
 0001:001b3750       ?recreate@?$PxArray@V?$PxArray@IV?$PxReflectionAllocator@I@physx@@@physx@@V?$PxReflectionAllocator@V?$PxArray@IV?$PxReflectionAllocator@I@physx@@@physx@@@2@@physx@@IEAAXI@Z 00000001801b4750 f i GuCookingTetrahedronMesh.obj
 0001:001b3860       ?release@CollisionTetrahedronMeshData@Gu@physx@@UEAAXXZ 00000001801b4860 f i GuCookingTetrahedronMesh.obj
 0001:001b3880       ?reserveInternal@?$PxHashBase@IIU?$PxHash@I@physx@@UGetKey@?$PxHashSetBase@IU?$PxHash@I@physx@@VPxAllocator@2@$0A@@2@VPxAllocator@2@$0A@@physx@@AEAAXI@Z 00000001801b4880 f i GuCookingTetrahedronMesh.obj
 0001:001b3c50       ?reserveInternal@?$PxHashBase@V?$PxPair@$$CBVSortedTriangleInds@@I@physx@@VSortedTriangleInds@@USortedTriangleIndsHash@@UGetKey@?$PxHashMapBase@VSortedTriangleInds@@IUSortedTriangleIndsHash@@VPxAllocator@physx@@@2@VPxAllocator@2@$00@physx@@AEAAXI@Z 00000001801b4c50 f i GuCookingTetrahedronMesh.obj
 0001:001b3e90       ?resize@?$PxArray@V?$PxArray@IV?$PxReflectionAllocator@I@physx@@@physx@@V?$PxReflectionAllocator@V?$PxArray@IV?$PxReflectionAllocator@I@physx@@@physx@@@2@@physx@@QEAAXIAEBV?$PxArray@IV?$PxReflectionAllocator@I@physx@@@2@@Z 00000001801b4e90 f i GuCookingTetrahedronMesh.obj
 0001:001b3f30       ?saveDeformableVolumeMeshData@TetrahedronMeshBuilder@physx@@SA_NAEAVPxOutputStream@2@_NAEBUPxCookingParams@2@AEBVTetrahedronMeshData@Gu@2@AEBVDeformableVolumeSimulationData@62@3AEBVDeformableVolumeCollisionData@62@AEBVCollisionMeshMappingData@62@@Z 00000001801b4f30 f   GuCookingTetrahedronMesh.obj
 0001:001b4660       ?saveTetrahedronMeshData@TetrahedronMeshBuilder@physx@@SA_NAEAVPxOutputStream@2@_NAEBUPxCookingParams@2@AEBVTetrahedronMeshData@Gu@2@@Z 00000001801b5660 f   GuCookingTetrahedronMesh.obj
 0001:001b4810       ?smoothMassRatiosWhilePreservingTotalMass@@YAXPEAMIPEBIHMM@Z 00000001801b5810 f   GuCookingTetrahedronMesh.obj
 0001:001b4cb0       ?support@?$LocalConvex@VTetrahedronV@Gu@physx@@@Gu@physx@@UEBA?AT__m128@@AEBT4@@Z 00000001801b5cb0 f i GuCookingTetrahedronMesh.obj
 0001:001b4d70       ?support@?$LocalConvex@VTetrahedronV@Gu@physx@@@Gu@physx@@UEBA?AT__m128@@AEBT4@AEAH@Z 00000001801b5d70 f i GuCookingTetrahedronMesh.obj
 0001:001b4f20       assembleDeformableVolumeMesh 00000001801b5f20 f   GuCookingTetrahedronMesh.obj
 0001:001b4f80       computeCollisionData       00000001801b5f80 f   GuCookingTetrahedronMesh.obj
 0001:001b5180       computeModelsMapping       00000001801b6180 f   GuCookingTetrahedronMesh.obj
 0001:001b5280       computeSimulationData      00000001801b6280 f   GuCookingTetrahedronMesh.obj
 0001:001b5450       cookDeformableVolumeMesh   00000001801b6450 f   GuCookingTetrahedronMesh.obj
 0001:001b5a60       cookTetrahedronMesh        00000001801b6a60 f   GuCookingTetrahedronMesh.obj
 0001:001b5b50       createDeformableVolumeMesh 00000001801b6b50 f   GuCookingTetrahedronMesh.obj
 0001:001b61e0       createTetrahedronMesh      00000001801b71e0 f   GuCookingTetrahedronMesh.obj
 0001:001b7ec0       ?computeVolumeIntegrals@physx@@YA_NAEBVPxSimpleTriangleMesh@1@MAEAUPxIntegrals@1@@Z 00000001801b8ec0 f   GuCookingVolumeIntegration.obj
 0001:001b7f00       ?computeVolumeIntegralsEberly@physx@@YA_NAEBVPxConvexMeshDesc@1@MAEAUPxIntegrals@1@AEBV?$PxVec3T@M@1@_N@Z 00000001801b8f00 f   GuCookingVolumeIntegration.obj
 0001:001b8560       ??0QuickHull@local@@QEAA@AEBUPxCookingParams@physx@@AEBVPxConvexMeshDesc@3@@Z 00000001801b9560 f   GuCookingQuickHullConvexHullLib.obj
 0001:001b8610       ??0QuickHullConvexHullLib@physx@@QEAA@AEBVPxConvexMeshDesc@1@AEBUPxCookingParams@1@@Z 00000001801b9610 f   GuCookingQuickHullConvexHullLib.obj
 0001:001b86f0       ??1?$MemBlock@UQuickHullFace@local@@$00@local@@QEAA@XZ 00000001801b96f0 f i GuCookingQuickHullConvexHullLib.obj
 0001:001b86f0       ??1?$MemBlock@UQuickHullHalfEdge@local@@$0A@@local@@QEAA@XZ 00000001801b96f0 f i GuCookingQuickHullConvexHullLib.obj
 0001:001b87b0       ??1QuickHull@local@@QEAA@XZ 00000001801b97b0 f   GuCookingQuickHullConvexHullLib.obj
 0001:001b8910       ??_GConvexHull@physx@@QEAAPEAXI@Z 00000001801b9910 f i GuCookingQuickHullConvexHullLib.obj
 0001:001b8a00       ??_EConvexHullLib@physx@@UEAAPEAXI@Z 00000001801b9a00 f i GuCookingQuickHullConvexHullLib.obj
 0001:001b8a00       ??_GConvexHullLib@physx@@UEAAPEAXI@Z 00000001801b9a00 f i GuCookingQuickHullConvexHullLib.obj
 0001:001b8a40       ??_EQuickHullConvexHullLib@physx@@UEAAPEAXI@Z 00000001801b9a40 f i GuCookingQuickHullConvexHullLib.obj
 0001:001b8a40       ??_GQuickHullConvexHullLib@physx@@UEAAPEAXI@Z 00000001801b9a40 f i GuCookingQuickHullConvexHullLib.obj
 0001:001b8b60       ?addPointToHull@QuickHull@local@@IEAA_NPEBUQuickHullVertex@2@AEAUQuickHullFace@2@AEA_N@Z 00000001801b9b60 f   GuCookingQuickHullConvexHullLib.obj
 0001:001b8e30       ?addSimplex@QuickHull@local@@IEAA_NPEAUQuickHullVertex@2@_N@Z 00000001801b9e30 f   GuCookingQuickHullConvexHullLib.obj
 0001:001b93b0       ?buildHull@QuickHull@local@@QEAA?AW4Enum@QuickHullResult@2@XZ 00000001801ba3b0 f   GuCookingQuickHullConvexHullLib.obj
 0001:001b9600       ?calculateHorizon@QuickHull@local@@IEAAXAEBV?$PxVec3T@M@physx@@PEAUQuickHullHalfEdge@2@AEAUQuickHullFace@2@AEAV?$PxArray@PEAUQuickHullHalfEdge@local@@V?$PxReflectionAllocator@PEAUQuickHullHalfEdge@local@@@physx@@@4@AEAV?$PxArray@PEAUQuickHullFace@local@@V?$PxReflectionAllocator@PEAUQuickHullFace@local@@@physx@@@4@@Z 00000001801ba600 f   GuCookingQuickHullConvexHullLib.obj
 0001:001b97b0       ?canMergeFaces@QuickHull@local@@IEAA_NAEBUQuickHullHalfEdge@2@@Z 00000001801ba7b0 f   GuCookingQuickHullConvexHullLib.obj
 0001:001b9ff0       ?cleanupForSimplex@QuickHullConvexHullLib@physx@@IEAA_NPEAV?$PxVec3T@M@2@IPEAUQuickHullVertex@local@@1AEAM2@Z 00000001801baff0 f   GuCookingQuickHullConvexHullLib.obj
 0001:001bac40       ?computeMinMaxVerts@QuickHull@local@@IEAAXXZ 00000001801bbc40 f   GuCookingQuickHullConvexHullLib.obj
 0001:001bb010       ?connectHalfEdges@QuickHullFace@local@@AEAAPEAU12@PEAUQuickHullHalfEdge@2@0@Z 00000001801bc010 f   GuCookingQuickHullConvexHullLib.obj
 0001:001bb380       ?copy@?$PxArray@UExpandPoint@local@@V?$PxReflectionAllocator@UExpandPoint@local@@@physx@@@physx@@KAXPEAUExpandPoint@local@@0PEBU34@@Z 00000001801bc380 f i GuCookingQuickHullConvexHullLib.obj
 0001:001bb430       ?copy@?$PxArray@VPxPlane@physx@@V?$PxReflectionAllocator@VPxPlane@physx@@@2@@physx@@KAXPEAVPxPlane@2@0PEBV32@@Z 00000001801bc430 f i GuCookingQuickHullConvexHullLib.obj
 0001:001bb530       ?createConvexHull@QuickHullConvexHullLib@physx@@UEAA?AW4Enum@PxConvexMeshCookingResult@2@XZ 00000001801bc530 f   GuCookingQuickHullConvexHullLib.obj
 0001:001bb930       ?createEdgeList@QuickHullConvexHullLib@physx@@UEAA_NIPEBEPEAPEAEPEAPEAG2@Z 00000001801bc930 f   GuCookingQuickHullConvexHullLib.obj
 0001:001bbb50       ?createTriangle@QuickHull@local@@IEAAPEAUQuickHullFace@2@AEBUQuickHullVertex@2@00@Z 00000001801bcb50 f   GuCookingQuickHullConvexHullLib.obj
 0001:001bbf20       ?doAdjacentMerge@QuickHull@local@@IEAA_NAEAUQuickHullFace@2@_NAEA_N@Z 00000001801bcf20 f   GuCookingQuickHullConvexHullLib.obj
 0001:001bc270       ?expandHull@QuickHullConvexHullLib@physx@@IEAA?AW4Enum@PxConvexMeshCookingResult@2@XZ 00000001801bd270 f   GuCookingQuickHullConvexHullLib.obj
 0001:001bcbb0       ?expandHullOBB@QuickHullConvexHullLib@physx@@IEAA?AW4Enum@PxConvexMeshCookingResult@2@XZ 00000001801bdbb0 f   GuCookingQuickHullConvexHullLib.obj
 0001:001bcfd0       ?fillConvexMeshDesc@QuickHullConvexHullLib@physx@@UEAAXAEAVPxConvexMeshDesc@2@@Z 00000001801bdfd0 f   GuCookingQuickHullConvexHullLib.obj
 0001:001bd020       ?fillConvexMeshDescFromCroppedHull@QuickHullConvexHullLib@physx@@IEAAXAEAVPxConvexMeshDesc@2@@Z 00000001801be020 f   GuCookingQuickHullConvexHullLib.obj
 0001:001bd210       ?fillConvexMeshDescFromQuickHull@QuickHullConvexHullLib@physx@@IEAAXAEAVPxConvexMeshDesc@2@@Z 00000001801be210 f   GuCookingQuickHullConvexHullLib.obj
 0001:001bd5b0       ?findSimplex@QuickHull@local@@IEAA_NXZ 00000001801be5b0 f   GuCookingQuickHullConvexHullLib.obj
 0001:001be270       ?getFreeItem@?$MemBlock@UQuickHullFace@local@@$00@local@@QEAAPEAUQuickHullFace@2@XZ 00000001801bf270 f i GuCookingQuickHullConvexHullLib.obj
 0001:001be3a0       ?getFreeItem@?$MemBlock@UQuickHullHalfEdge@local@@$0A@@local@@QEAAPEAUQuickHullHalfEdge@2@XZ 00000001801bf3a0 f i GuCookingQuickHullConvexHullLib.obj
 0001:001be470       ?growAndPushBack@?$PxArray@PEAUQuickHullFace@local@@V?$PxReflectionAllocator@PEAUQuickHullFace@local@@@physx@@@physx@@IEAAAEAPEAUQuickHullFace@local@@AEBQEAU34@@Z 00000001801bf470 f i GuCookingQuickHullConvexHullLib.obj
 0001:001be590       ?growAndPushBack@?$PxArray@PEAUQuickHullHalfEdge@local@@V?$PxReflectionAllocator@PEAUQuickHullHalfEdge@local@@@physx@@@physx@@IEAAAEAPEAUQuickHullHalfEdge@local@@AEBQEAU34@@Z 00000001801bf590 f i GuCookingQuickHullConvexHullLib.obj
 0001:001be6b0       ?growAndPushBack@?$PxArray@PEAUQuickHullVertex@local@@V?$PxReflectionAllocator@PEAUQuickHullVertex@local@@@physx@@@physx@@IEAAAEAPEAUQuickHullVertex@local@@AEBQEAU34@@Z 00000001801bf6b0 f i GuCookingQuickHullConvexHullLib.obj
 0001:001be7d0       ?growAndPushBack@?$PxArray@UExpandPoint@local@@V?$PxReflectionAllocator@UExpandPoint@local@@@physx@@@physx@@IEAAAEAUExpandPoint@local@@AEBU34@@Z 00000001801bf7d0 f i GuCookingQuickHullConvexHullLib.obj
 0001:001be940       ?growAndPushBack@?$PxArray@VPxPlane@physx@@V?$PxReflectionAllocator@VPxPlane@physx@@@2@@physx@@IEAAAEAVPxPlane@2@AEBV32@@Z 00000001801bf940 f i GuCookingQuickHullConvexHullLib.obj
 0001:001bea60       ?init@?$MemBlock@UQuickHullFace@local@@$00@local@@QEAAXI@Z 00000001801bfa60 f i GuCookingQuickHullConvexHullLib.obj
 0001:001beb60       ?init@?$MemBlock@UQuickHullHalfEdge@local@@$0A@@local@@QEAAXI@Z 00000001801bfb60 f i GuCookingQuickHullConvexHullLib.obj
 0001:001bec00       ?mergeAdjacentFace@QuickHullFace@local@@QEAA_NPEAUQuickHullHalfEdge@2@AEAV?$PxArray@PEAUQuickHullFace@local@@V?$PxReflectionAllocator@PEAUQuickHullFace@local@@@physx@@@physx@@@Z 00000001801bfc00 f   GuCookingQuickHullConvexHullLib.obj
 0001:001bf060       ?nextPointToAdd@QuickHull@local@@IEAAPEAUQuickHullVertex@2@AEAPEAUQuickHullFace@2@@Z 00000001801c0060 f   GuCookingQuickHullConvexHullLib.obj
 0001:001bf1e0       ?parseInputVertices@QuickHull@local@@QEAAXPEBV?$PxVec3T@M@physx@@I@Z 00000001801c01e0 f   GuCookingQuickHullConvexHullLib.obj
 0001:001bf360       ?postMergeHull@QuickHull@local@@IEAAXXZ 00000001801c0360 f   GuCookingQuickHullConvexHullLib.obj
 0001:001bf5c0       ?preallocate@QuickHull@local@@QEAAXI@Z 00000001801c05c0 f   GuCookingQuickHullConvexHullLib.obj
 0001:001bf700       ?recreate@?$PxArray@PEAUQuickHullFace@local@@V?$PxReflectionAllocator@PEAUQuickHullFace@local@@@physx@@@physx@@IEAAXI@Z 00000001801c0700 f i GuCookingQuickHullConvexHullLib.obj
 0001:001bf7f0       ?recreate@?$PxArray@PEAUQuickHullHalfEdge@local@@V?$PxReflectionAllocator@PEAUQuickHullHalfEdge@local@@@physx@@@physx@@IEAAXI@Z 00000001801c07f0 f i GuCookingQuickHullConvexHullLib.obj
 0001:001bf8e0       ?recreate@?$PxArray@PEAUQuickHullVertex@local@@V?$PxReflectionAllocator@PEAUQuickHullVertex@local@@@physx@@@physx@@IEAAXI@Z 00000001801c08e0 f i GuCookingQuickHullConvexHullLib.obj
 0001:001bf9d0       ?recreate@?$PxArray@UExpandPoint@local@@V?$PxReflectionAllocator@UExpandPoint@local@@@physx@@@physx@@IEAAXI@Z 00000001801c09d0 f i GuCookingQuickHullConvexHullLib.obj
 0001:001bfab0       ?recreate@?$PxArray@VPxPlane@physx@@V?$PxReflectionAllocator@VPxPlane@physx@@@2@@physx@@IEAAXI@Z 00000001801c0ab0 f i GuCookingQuickHullConvexHullLib.obj
 0001:001bfb90       ?resolveUnclaimedPoints@QuickHull@local@@IEAAXAEBV?$PxArray@PEAUQuickHullFace@local@@V?$PxReflectionAllocator@PEAUQuickHullFace@local@@@physx@@@physx@@@Z 00000001801c0b90 f   GuCookingQuickHullConvexHullLib.obj
 0001:001bfe10       ??$copy@V?$PxReflectionAllocator@VPair@@@physx@@@?$PxArray@VPair@@V?$PxReflectionAllocator@VPair@@@physx@@@physx@@IEAAXAEBV01@@Z 00000001801c0e10 f i GuCookingConvexPolygonsBuilder.obj
 0001:001bfe90       ??0ConvexPolygonsBuilder@physx@@QEAA@PEAUConvexHullData@Gu@1@_N@Z 00000001801c0e90 f   GuCookingConvexPolygonsBuilder.obj
 0001:001bfeb0       ??1ConvexPolygonsBuilder@physx@@QEAA@XZ 00000001801c0eb0 f   GuCookingConvexPolygonsBuilder.obj
 0001:001c0700       ?allocate@?$PxArray@VPair@@V?$PxReflectionAllocator@VPair@@@physx@@@physx@@IEAAPEAVPair@@IPEAI@Z 00000001801c1700 f i GuCookingConvexPolygonsBuilder.obj
 0001:001c11e0       ?computeHullPolygons@ConvexPolygonsBuilder@physx@@QEAA_NAEBIPEBV?$PxVec3T@M@2@0PEBI@Z 00000001801c21e0 f   GuCookingConvexPolygonsBuilder.obj
 0001:001c24a0       ?createPolygonData@ConvexPolygonsBuilder@physx@@AEAA_NXZ 00000001801c34a0 f   GuCookingConvexPolygonsBuilder.obj
 0001:001c2ef0       ?createTrianglesFromPolygons@ConvexPolygonsBuilder@physx@@AEAA_NXZ 00000001801c3ef0 f   GuCookingConvexPolygonsBuilder.obj
 0001:001c4590       ?growAndPushBack@?$PxArray@VPair@@V?$PxReflectionAllocator@VPair@@@physx@@@physx@@IEAAAEAVPair@@AEBV3@@Z 00000001801c5590 f i GuCookingConvexPolygonsBuilder.obj
 0001:001c4770       ??0ConvexMeshBuilder@physx@@QEAA@_N@Z 00000001801c5770 f   GuCookingConvexMeshBuilder.obj
 0001:001c47e0       ??1ConvexMeshBuilder@physx@@QEAA@XZ 00000001801c57e0 f   GuCookingConvexMeshBuilder.obj
 0001:001c4ca0       ?build@ConvexMeshBuilder@physx@@QEAA_NAEBVPxConvexMeshDesc@2@I_NPEAVConvexHullLib@2@@Z 00000001801c5ca0 f   GuCookingConvexMeshBuilder.obj
 0001:001c5030       ?checkExtentRadiusRatio@ConvexMeshBuilder@physx@@QEAA_NXZ 00000001801c6030 f   GuCookingConvexMeshBuilder.obj
 0001:001c5060       ?computeHullPolygons@ConvexMeshBuilder@physx@@QEAA_NAEBIPEBV?$PxVec3T@M@2@0PEBIAEAVPxAllocatorCallback@2@AEAIAEAPEAV32@4AEAPEAI4AEAPEAUPxHullPolygon@2@@Z 00000001801c6060 f   GuCookingConvexMeshBuilder.obj
 0001:001c5260       ?computeMassInfo@ConvexMeshBuilder@physx@@QEAAX_N@Z 00000001801c6260 f   GuCookingConvexMeshBuilder.obj
 0001:001c55f0       ?computeSDF@ConvexMeshBuilder@physx@@QEAAXAEBVPxConvexMeshDesc@2@@Z 00000001801c65f0 f   GuCookingConvexMeshBuilder.obj
 0001:001c5a60       ?copy@ConvexMeshBuilder@physx@@QEAA_NAEAUConvexHullInitData@Gu@2@@Z 00000001801c6a60 f   GuCookingConvexMeshBuilder.obj
 0001:001c5bc0       ?loadConvexHull@ConvexMeshBuilder@physx@@QEAA_NAEBVPxConvexMeshDesc@2@PEAVConvexHullLib@2@@Z 00000001801c6bc0 f   GuCookingConvexMeshBuilder.obj
 0001:001c5e10       ?save@ConvexMeshBuilder@physx@@QEBA_NAEAVPxOutputStream@2@_N@Z 00000001801c6e10 f   GuCookingConvexMeshBuilder.obj
 0001:001c6230       ??0ConvexHull@physx@@QEAA@AEBV?$PxVec3T@M@1@AEBV?$PxTransformT@M@1@AEBV?$PxArray@VPxPlane@physx@@V?$PxReflectionAllocator@VPxPlane@physx@@@2@@1@@Z 00000001801c7230 f   GuCookingConvexHullUtils.obj
 0001:001c7350       ?assertIntact@ConvexHull@physx@@QEBA_NM@Z 00000001801c8350 f   GuCookingConvexHullUtils.obj
 0001:001c7660       ?computeOBBFromConvex@physx@@YA_NAEBVPxConvexMeshDesc@1@AEAV?$PxVec3T@M@1@AEAV?$PxTransformT@M@1@@Z 00000001801c8660 f   GuCookingConvexHullUtils.obj
 0001:001c7cc0       ?computeOBBSIMD@local@@YAXIPEBT__m128@@AEAT2@AEBT2@1@Z 00000001801c8cc0 f   GuCookingConvexHullUtils.obj
 0001:001c8070       ?convexHullCrop@physx@@YAPEAVConvexHull@1@AEBV21@AEBVPxPlane@1@M@Z 00000001801c9070 f   GuCookingConvexHullUtils.obj
 0001:001c8e90       ?findCandidatePlane@ConvexHull@physx@@QEBAHMM@Z 00000001801c9e90 f   GuCookingConvexHullUtils.obj
 0001:001c92f0       ?growAndPushBack@?$PxArray@VHalfEdge@ConvexHull@physx@@V?$PxReflectionAllocator@VHalfEdge@ConvexHull@physx@@@3@@physx@@IEAAAEAVHalfEdge@ConvexHull@2@AEBV342@@Z 00000001801ca2f0 f i GuCookingConvexHullUtils.obj
 0001:001c9410       ?maxNumVertsPerFace@ConvexHull@physx@@QEBAIXZ 00000001801ca410 f   GuCookingConvexHullUtils.obj
 0001:001c9480       ?recreate@?$PxArray@VHalfEdge@ConvexHull@physx@@V?$PxReflectionAllocator@VHalfEdge@ConvexHull@physx@@@3@@physx@@IEAAXI@Z 00000001801ca480 f i GuCookingConvexHullUtils.obj
 0001:001c9570       ?resize@?$PxArray@VHalfEdge@ConvexHull@physx@@V?$PxReflectionAllocator@VHalfEdge@ConvexHull@physx@@@3@@physx@@QEAAXIAEBVHalfEdge@ConvexHull@2@@Z 00000001801ca570 f i GuCookingConvexHullUtils.obj
 0001:001c9630       ?resize@?$PxArray@VPxPlane@physx@@V?$PxReflectionAllocator@VPxPlane@physx@@@2@@physx@@QEAAXIAEBVPxPlane@2@@Z 00000001801ca630 f i GuCookingConvexHullUtils.obj
 0001:001c9750       ??1ConvexHullLib@physx@@UEAA@XZ 00000001801ca750 f   GuCookingConvexHullLib.obj
 0001:001c9d40       ?cleanupVertices@ConvexHullLib@physx@@IEAA_NIPEBV?$PxVec3T@M@2@IAEAIPEAV32@@Z 00000001801cad40 f   GuCookingConvexHullLib.obj
 0001:001c9e80       ?shiftAndcleanupVertices@ConvexHullLib@physx@@IEAA_NIPEBV?$PxVec3T@M@2@IAEAIPEAV32@@Z 00000001801cae80 f   GuCookingConvexHullLib.obj
 0001:001ca470       ?shiftConvexMeshDesc@ConvexHullLib@physx@@IEAAXAEAVPxConvexMeshDesc@2@@Z 00000001801cb470 f   GuCookingConvexHullLib.obj
 0001:001ca530       ?swapLargestFace@ConvexHullLib@physx@@IEAAXAEAVPxConvexMeshDesc@2@@Z 00000001801cb530 f   GuCookingConvexHullLib.obj
 0001:001ca7a0       ??0ConvexHullBuilder@physx@@QEAA@PEAUConvexHullData@Gu@1@_N@Z 00000001801cb7a0 f   GuCookingConvexHullBuilder.obj
 0001:001ca7d0       ??1ConvexHullBuilder@physx@@QEAA@XZ 00000001801cb7d0 f   GuCookingConvexHullBuilder.obj
 0001:001ca8e0       ?calculateVertexMapTable@ConvexHullBuilder@physx@@QEAA_NI_N@Z 00000001801cb8e0 f   GuCookingConvexHullBuilder.obj
 0001:001caaa0       ?checkHullPolygons@ConvexHullBuilder@physx@@QEBA_NXZ 00000001801cbaa0 f   GuCookingConvexHullBuilder.obj
 0001:001cb250       ?copy@ConvexHullBuilder@physx@@QEAA_NAEAUConvexHullData@Gu@2@AEAI@Z 00000001801cc250 f   GuCookingConvexHullBuilder.obj
 0001:001cb4f0       ?createEdgeList@ConvexHullBuilder@physx@@QEAA_N_NI@Z 00000001801cc4f0 f   GuCookingConvexHullBuilder.obj
 0001:001cbc40       ?init@ConvexHullBuilder@physx@@QEAA_NIPEBV?$PxVec3T@M@2@PEBIIIPEBUPxHullPolygon@2@_NPEAVConvexHullLib@2@@Z 00000001801ccc40 f   GuCookingConvexHullBuilder.obj
 0001:001cc5a0       ?save@ConvexHullBuilder@physx@@QEBA_NAEAVPxOutputStream@2@_N@Z 00000001801cd5a0 f   GuCookingConvexHullBuilder.obj
 0001:001cc8e0       ??0BigConvexDataBuilder@physx@@QEAA@PEBUConvexHullData@Gu@1@PEAVBigConvexData@1@PEBV?$PxVec3T@M@1@@Z 00000001801cd8e0 f   GuCookingBigConvexDataBuilder.obj
 0001:001cc8f0       ?computeValencies@BigConvexDataBuilder@physx@@QEAA_NAEBVConvexHullBuilder@2@@Z 00000001801cd8f0 f   GuCookingBigConvexDataBuilder.obj
 0001:001cccd0       ?precompute@BigConvexDataBuilder@physx@@QEAA_NI@Z 00000001801cdcd0 f   GuCookingBigConvexDataBuilder.obj
 0001:001cd8f0       ?save@BigConvexDataBuilder@physx@@QEBA_NAEAVPxOutputStream@2@_N@Z 00000001801ce8f0 f   GuCookingBigConvexDataBuilder.obj
 0001:001cde60       ?buildSDF@physx@@YA_NAEAVPxTriangleMeshDesc@1@AEAV?$PxArray@MV?$PxReflectionAllocator@M@physx@@@1@AEAV?$PxArray@EV?$PxReflectionAllocator@E@physx@@@1@AEAV?$PxArray@IV?$PxReflectionAllocator@I@physx@@@1@@Z 00000001801cee60 f   GuCookingSDF.obj
 0001:001ceea0       ?recreate@?$PxArray@EV?$PxReflectionAllocator@E@physx@@@physx@@IEAAXI@Z 00000001801cfea0 f i GuCookingSDF.obj
 0001:001cef90       ?resize@?$PxArray@EV?$PxReflectionAllocator@E@physx@@@physx@@QEAAXIAEBE@Z 00000001801cff90 f i GuCookingSDF.obj
 0001:001cf04a       __tailMerge_physxfoundation_64_dll 00000001801d004a     PhysXFoundation_64:PhysXFoundation_64.dll
 0001:001cf0c3       __imp_load_PxGetFoundation 00000001801d00c3 f   PhysXFoundation_64:PhysXFoundation_64.dll
 0001:001cf0cf       __imp_load_PxGetBroadcastAllocator 00000001801d00cf f   PhysXFoundation_64:PhysXFoundation_64.dll
 0001:001cf0db       __imp_load_?PxAtomicIncrement@physx@@YAHPECH@Z 00000001801d00db f   PhysXFoundation_64:PhysXFoundation_64.dll
 0001:001cf0e7       __imp_load_??0PxMutexImpl@physx@@QEAA@XZ 00000001801d00e7 f   PhysXFoundation_64:PhysXFoundation_64.dll
 0001:001cf0f3       __imp_load_??1PxMutexImpl@physx@@QEAA@XZ 00000001801d00f3 f   PhysXFoundation_64:PhysXFoundation_64.dll
 0001:001cf0ff       __imp_load_?lock@PxMutexImpl@physx@@QEAAXXZ 00000001801d00ff f   PhysXFoundation_64:PhysXFoundation_64.dll
 0001:001cf10b       __imp_load_?unlock@PxMutexImpl@physx@@QEAAXXZ 00000001801d010b f   PhysXFoundation_64:PhysXFoundation_64.dll
 0001:001cf117       __imp_load_?getSize@PxMutexImpl@physx@@SAIXZ 00000001801d0117 f   PhysXFoundation_64:PhysXFoundation_64.dll
 0001:001cf123       __imp_load_?PxTransformFromSegment@physx@@YA?AV?$PxTransformT@M@1@AEBV?$PxVec3T@M@1@0PEAM@Z 00000001801d0123 f   PhysXFoundation_64:PhysXFoundation_64.dll
 0001:001cf12f       __imp_load_?PxAtomicAdd@physx@@YAHPECHH@Z 00000001801d012f f   PhysXFoundation_64:PhysXFoundation_64.dll
 0001:001cf13b       __imp_load_?getDefaultStackSize@PxThreadImpl@physx@@SAIXZ 00000001801d013b f   PhysXFoundation_64:PhysXFoundation_64.dll
 0001:001cf147       __imp_load_??0PxThreadImpl@physx@@QEAA@P6APEAXPEAX@Z0PEBD@Z 00000001801d0147 f   PhysXFoundation_64:PhysXFoundation_64.dll
 0001:001cf153       __imp_load_??1PxThreadImpl@physx@@QEAA@XZ 00000001801d0153 f   PhysXFoundation_64:PhysXFoundation_64.dll
 0001:001cf15f       __imp_load_?start@PxThreadImpl@physx@@QEAAXIPEAVPxRunnable@2@@Z 00000001801d015f f   PhysXFoundation_64:PhysXFoundation_64.dll
 0001:001cf16b       __imp_load_?waitForQuit@PxThreadImpl@physx@@QEAA_NXZ 00000001801d016b f   PhysXFoundation_64:PhysXFoundation_64.dll
 0001:001cf177       __imp_load_?getSize@PxThreadImpl@physx@@SAIXZ 00000001801d0177 f   PhysXFoundation_64:PhysXFoundation_64.dll
 0001:001cf183       __imp_load_?allocate@PxTempAllocator@physx@@QEAAPEAX_KPEBDH@Z 00000001801d0183 f   PhysXFoundation_64:PhysXFoundation_64.dll
 0001:001cf18f       __imp_load_?deallocate@PxTempAllocator@physx@@QEAAXPEAX@Z 00000001801d018f f   PhysXFoundation_64:PhysXFoundation_64.dll
 0001:001cf19b       __imp_load_?PxOptimizeBoundingBox@physx@@YA?AV?$PxVec3T@M@1@AEAV?$PxMat33T@M@1@@Z 00000001801d019b f   PhysXFoundation_64:PhysXFoundation_64.dll
 0001:001cf1a7       __imp_load_?Pxstrcmp@physx@@YAHPEBD0@Z 00000001801d01a7 f   PhysXFoundation_64:PhysXFoundation_64.dll
 0001:001cf1b3       __imp_load_?PxAtomicDecrement@physx@@YAHPECH@Z 00000001801d01b3 f   PhysXFoundation_64:PhysXFoundation_64.dll
 0001:001cf1bf       __imp_load_??0PxFPUGuard@physx@@QEAA@XZ 00000001801d01bf f   PhysXFoundation_64:PhysXFoundation_64.dll
 0001:001cf1cb       __imp_load_??1PxFPUGuard@physx@@QEAA@XZ 00000001801d01cb f   PhysXFoundation_64:PhysXFoundation_64.dll
 0001:001cf1d7       __imp_load_?PxDiagonalize@physx@@YA?AV?$PxVec3T@M@1@AEBV?$PxMat33T@M@1@AEAV?$PxQuatT@M@1@@Z 00000001801d01d7 f   PhysXFoundation_64:PhysXFoundation_64.dll
 0001:001cf1e4       ?DloadAcquireSectionWriteAccess@@YAXXZ 00000001801d01e4 f i Delayimp:delayhlp.obj
 0001:001cf290       ?DloadGetSRWLockFunctionPointers@@YAEXZ 00000001801d0290 f i Delayimp:delayhlp.obj
 0001:001cf330       ?DloadMakePermanentImageCommit@@YAXPEAX_K@Z 00000001801d0330 f i Delayimp:delayhlp.obj
 0001:001cf3c8       ?DloadObtainSection@@YAPEAXPEAK0@Z 00000001801d03c8 f i Delayimp:delayhlp.obj
 0001:001cf464       ?DloadProtectSection@@YAXKPEAK@Z 00000001801d0464 f i Delayimp:delayhlp.obj
 0001:001cf4f4       ?DloadReleaseSectionWriteAccess@@YAXXZ 00000001801d04f4 f i Delayimp:delayhlp.obj
 0001:001cf588       __delayLoadHelper2         00000001801d0588 f   Delayimp:delayhlp.obj
 0001:001cf860       ??3@YAXPEAX_K@Z            00000001801d0860 f   LIBCMT:delete_scalar_size.obj
 0001:001cf860       ??_V@YAXPEAX@Z             00000001801d0860 f   LIBCMT:delete_array.obj
 0001:001cf868       ??_Etype_info@@UEAAPEAXI@Z 00000001801d0868 f i LIBCMT:std_type_info_static.obj
 0001:001cf868       ??_Gtype_info@@UEAAPEAXI@Z 00000001801d0868 f i LIBCMT:std_type_info_static.obj
 0001:001cf894       ?__scrt_initialize_type_info@@YAXXZ 00000001801d0894 f   LIBCMT:tncleanup.obj
 0001:001cf8a4       ?__scrt_uninitialize_type_info@@YAXXZ 00000001801d08a4 f   LIBCMT:tncleanup.obj
 0001:001cf8c0       __chkstk                   00000001801d08c0 f   LIBCMT:chkstk.obj
 0001:001cf8c0       _alloca_probe              00000001801d08c0 f   LIBCMT:chkstk.obj
 0001:001cf910       __vdecl_sinf4              00000001801d0910 f   LIBCMT:svml_ssinf4_dispatch.obj
 0001:001cf930       __libm_sse2_sincosf_       00000001801d0930 f   LIBCMT:svml_ssinf4_dispatch.obj
 0001:001cf973       __libm_sse2_sincosf4_      00000001801d0973 f   LIBCMT:svml_ssinf4_dispatch.obj
 0001:001cf980       ??3@YAXPEAX@Z              00000001801d0980 f   LIBCMT:delete_scalar.obj
 0001:001cf988       __scrt_acquire_startup_lock 00000001801d0988 f   LIBCMT:utility.obj
 0001:001cf9c4       __scrt_dllmain_after_initialize_c 00000001801d09c4 f   LIBCMT:utility.obj
 0001:001cf9f8       __scrt_dllmain_before_initialize_c 00000001801d09f8 f   LIBCMT:utility.obj
 0001:001cfa10       __scrt_dllmain_crt_thread_attach 00000001801d0a10 f   LIBCMT:utility.obj
 0001:001cfa38       __scrt_dllmain_crt_thread_detach 00000001801d0a38 f   LIBCMT:utility.obj
 0001:001cfa50       __scrt_dllmain_exception_filter 00000001801d0a50 f   LIBCMT:utility.obj
 0001:001cfab0       __scrt_dllmain_uninitialize_c 00000001801d0ab0 f   LIBCMT:utility.obj
 0001:001cfae0       __scrt_dllmain_uninitialize_critical 00000001801d0ae0 f   LIBCMT:utility.obj
 0001:001cfaf4       __scrt_initialize_crt      00000001801d0af4 f   LIBCMT:utility.obj
 0001:001cfb30       __scrt_initialize_onexit_tables 00000001801d0b30 f   LIBCMT:utility.obj
 0001:001cfbbc       __scrt_is_nonwritable_in_current_image 00000001801d0bbc f   LIBCMT:utility.obj
 0001:001cfc54       __scrt_release_startup_lock 00000001801d0c54 f   LIBCMT:utility.obj
 0001:001cfc78       __scrt_uninitialize_crt    00000001801d0c78 f   LIBCMT:utility.obj
 0001:001cfca4       _onexit                    00000001801d0ca4 f   LIBCMT:utility.obj
 0001:001cfce0       atexit                     00000001801d0ce0 f   LIBCMT:utility.obj
 0001:001cfcf8       __isa_available_init       00000001801d0cf8 f   LIBCMT:cpu_disp.obj
 0001:001d01c0       _DllMainCRTStartup         00000001801d11c0 f   LIBCMT:dll_dllmain.obj
 0001:001d0200       __sse2_sinf4@@16           00000001801d1200 f   LIBCMT:svml_ssinf4_sse2.obj
 0001:001d0b40       __sse4_sinf4@@16           00000001801d1b40 f   LIBCMT:svml_ssinf4_sse4.obj
 0001:001d12b4       __scrt_is_ucrt_dll_in_use  00000001801d22b4 f   LIBCMT:ucrt_detection.obj
 0001:001d12c0       __crt_debugger_hook        00000001801d22c0 f   LIBCMT:utility_desktop.obj
 0001:001d12c8       __scrt_fastfail            00000001801d22c8 f   LIBCMT:utility_desktop.obj
 0001:001d1410       __security_init_cookie     00000001801d2410 f   LIBCMT:gs_support.obj
 0001:001d14bc       __local_stdio_scanf_options 00000001801d24bc f i LIBCMT:default_local_stdio_options.obj
 0001:001d14c4       __scrt_initialize_default_local_stdio_options 00000001801d24c4 f   LIBCMT:default_local_stdio_options.obj
 0001:001d14e0       __scrt_get_dyn_tls_init_callback 00000001801d24e0 f   LIBCMT:dyn_tls_init.obj
 0001:001d14e8       _RTC_Initialize            00000001801d24e8 f   LIBCMT:initsect.obj
 0001:001d1524       _RTC_Terminate             00000001801d2524 f   LIBCMT:initsect.obj
 0001:001d1560       __common_ssin_cout_rare    00000001801d2560 f   LIBCMT:svml_s_sin_cout.obj
 0001:001d15d0       _get_purecall_handler      00000001801d25d0 f   libvcruntime:purevirt.obj
 0001:001d15dc       _purecall                  00000001801d25dc f   libvcruntime:purevirt.obj
 0001:001d1600       __std_type_info_compare    00000001801d2600 f   libvcruntime:std_type_info.obj
 0001:001d1628       __std_type_info_destroy_list 00000001801d2628 f   libvcruntime:std_type_info.obj
 0001:001d1654       __std_type_info_name       00000001801d2654 f   libvcruntime:std_type_info.obj
 0001:001d1770       strstr                     00000001801d2770 f   libvcruntime:strstr.obj
 0001:001d1958       __vcrt_initialize          00000001801d2958 f   libvcruntime:initialization.obj
 0001:001d1980       __vcrt_thread_attach       00000001801d2980 f   libvcruntime:initialization.obj
 0001:001d1994       __vcrt_thread_detach       00000001801d2994 f   libvcruntime:initialization.obj
 0001:001d19a4       __vcrt_uninitialize        00000001801d29a4 f   libvcruntime:initialization.obj
 0001:001d19c0       __vcrt_uninitialize_critical 00000001801d29c0 f   libvcruntime:initialization.obj
 0001:001d19d0       __C_specific_handler       00000001801d29d0 f   libvcruntime:riscchandler.obj
 0001:001d1be8       __DestructExceptionObject  00000001801d2be8 f   libvcruntime:ehhelpers.obj
 0001:001d1c58       ?_CallMemberFunction0@@YAXQEAX0@Z 00000001801d2c58 f i libvcruntime:ehhelpers.obj
 0001:001d1c5c       _IsExceptionObjectToBeDestroyed 00000001801d2c5c f   libvcruntime:ehhelpers.obj
 0001:001d1c8c       __AdjustPointer            00000001801d2c8c f   libvcruntime:ehhelpers.obj
 0001:001d1cb0       __FrameUnwindFilter        00000001801d2cb0 f   libvcruntime:ehhelpers.obj
 0001:001d1d18       __std_terminate            00000001801d2d18 f   libvcruntime:ehhelpers.obj
 0001:001d1d24       ??$?0$00@DName@@QEAA@PEBDU?$StringLifeSelector@$00@@@Z 00000001801d2d24 f i libvcruntime:undname.obj
 0001:001d1d64       ??$?0$01@DName@@QEAA@PEBDU?$StringLifeSelector@$01@@@Z 00000001801d2d64 f i libvcruntime:undname.obj
 0001:001d1d64       ??$?0$0A@@DName@@QEAA@PEBDU?$StringLifeSelector@$0A@@@@Z 00000001801d2d64 f i libvcruntime:undname.obj
 0001:001d1da4       ??$?0$01@pcharNode@@QEAA@PEBDHU?$StringLifeSelector@$01@@@Z 00000001801d2da4 f i libvcruntime:undname.obj
 0001:001d1da4       ??$?0$0A@@pcharNode@@QEAA@PEBDHU?$StringLifeSelector@$0A@@@@Z 00000001801d2da4 f i libvcruntime:undname.obj
 0001:001d1e18       ??$append@VDNameNode@@@DName@@AEAAXPEBVDNameNode@@@Z 00000001801d2e18 f i libvcruntime:undname.obj
 0001:001d1e18       ??$append@VDNameStatusNode@@@DName@@AEAAXPEBVDNameStatusNode@@@Z 00000001801d2e18 f i libvcruntime:undname.obj
 0001:001d1e18       ??$append@VcharNode@@@DName@@AEAAXPEBVcharNode@@@Z 00000001801d2e18 f i libvcruntime:undname.obj
 0001:001d1e18       ??$append@VpcharNode@@@DName@@AEAAXPEBVpcharNode@@@Z 00000001801d2e18 f i libvcruntime:undname.obj
 0001:001d1e7c       ??$doPchar@$00@DName@@AEAAXPEBDH@Z 00000001801d2e7c f i libvcruntime:undname.obj
 0001:001d1f20       ??$doPchar@$01@DName@@AEAAXPEBDH@Z 00000001801d2f20 f i libvcruntime:undname.obj
 0001:001d1f20       ??$doPchar@$0A@@DName@@AEAAXPEBDH@Z 00000001801d2f20 f i libvcruntime:undname.obj
 0001:001d1fb8       ??0DName@@QEAA@AEAPEBDD@Z  00000001801d2fb8 f   libvcruntime:undname.obj
 0001:001d2068       ??0DName@@QEAA@AEBUStringLiteral@@@Z 00000001801d3068 f   libvcruntime:undname.obj
 0001:001d2094       ??0DName@@QEAA@PEAV0@@Z    00000001801d3094 f   libvcruntime:undname.obj
 0001:001d2118       ??0DName@@QEAA@_J@Z        00000001801d3118 f   libvcruntime:undname.obj
 0001:001d21c0       ??0DName@@QEAA@_K@Z        00000001801d31c0 f   libvcruntime:undname.obj
 0001:001d2248       ??0UnDecorator@@QEAA@PEBDP6APEADJ@ZK@Z 00000001801d3248 f i libvcruntime:undname.obj
 0001:001d22fc       ??2@YAPEAX_KAEAV_HeapManager@@H@Z 00000001801d32fc f   libvcruntime:undname.obj
 0001:001d2328       ??4DName@@QEAAAEAV0@W4DNameStatus@@@Z 00000001801d3328 f   libvcruntime:undname.obj
 0001:001d2358       ??AReplicator@@QEBA?AVDName@@H@Z 00000001801d3358 f   libvcruntime:undname.obj
 0001:001d2398       ??HDName@@QEBA?AV0@AEBUStringLiteral@@@Z 00000001801d3398 f   libvcruntime:undname.obj
 0001:001d23c4       ??HDName@@QEBA?AV0@AEBV0@@Z 00000001801d33c4 f   libvcruntime:undname.obj
 0001:001d23f0       ??HDName@@QEBA?AV0@D@Z     00000001801d33f0 f   libvcruntime:undname.obj
 0001:001d241c       ??HDName@@QEBA?AV0@W4DNameStatus@@@Z 00000001801d341c f   libvcruntime:undname.obj
 0001:001d2448       ??YDName@@QEAAAEAV0@AEBUStringLiteral@@@Z 00000001801d3448 f   libvcruntime:undname.obj
 0001:001d24c8       ??YDName@@QEAAAEAV0@AEBV0@@Z 00000001801d34c8 f   libvcruntime:undname.obj
 0001:001d2520       ??YDName@@QEAAAEAV0@D@Z    00000001801d3520 f   libvcruntime:undname.obj
 0001:001d258c       ??YDName@@QEAAAEAV0@W4DNameStatus@@@Z 00000001801d358c f   libvcruntime:undname.obj
 0001:001d25e4       ??YReplicator@@QEAAAEAV0@AEBVDName@@@Z 00000001801d35e4 f   libvcruntime:undname.obj
 0001:001d263c       ?UScore@UnDecorator@@SA?AUStringLiteral@@W4Tokens@@@Z 00000001801d363c f   libvcruntime:undname.obj
 0001:001d2688       ?composeDeclaration@UnDecorator@@CA?AVDName@@AEBV2@@Z 00000001801d3688 f i libvcruntime:undname.obj
 0001:001d3644       ?doPchar@DName@@AEAAXD@Z   00000001801d4644 f   libvcruntime:undname.obj
 0001:001d3694       ?getAddressOf@UnDecorator@@CA?AVDName@@XZ 00000001801d4694 f   libvcruntime:undname.obj
 0001:001d3724       ?getArgumentList@UnDecorator@@CA?AVDName@@XZ 00000001801d4724 f   libvcruntime:undname.obj
 0001:001d38a8       ?getArgumentTypes@UnDecorator@@CA?AVDName@@XZ 00000001801d48a8 f   libvcruntime:undname.obj
 0001:001d39f4       ?getArrayAccess@UnDecorator@@CA?AVDName@@XZ 00000001801d49f4 f   libvcruntime:undname.obj
 0001:001d3a90       ?getArrayObject@UnDecorator@@CA?AVDName@@XZ 00000001801d4a90 f   libvcruntime:undname.obj
 0001:001d3b60       ?getArrayType@UnDecorator@@CA?AVDName@@AEBV2@@Z 00000001801d4b60 f i libvcruntime:undname.obj
 0001:001d3dbc       ?getBasedType@UnDecorator@@CA?AVDName@@XZ 00000001801d4dbc f   libvcruntime:undname.obj
 0001:001d3eb4       ?getBasicDataType@UnDecorator@@CA?AVDName@@AEBV2@@Z 00000001801d4eb4 f   libvcruntime:undname.obj
 0001:001d44b8       ?getCallingConvention@UnDecorator@@CA?AVDName@@XZ 00000001801d54b8 f   libvcruntime:undname.obj
 0001:001d45d8       ?getDataIndirectType@UnDecorator@@CA?AVDName@@AEBV2@W4IndirectionKind@@0H@Z 00000001801d55d8 f   libvcruntime:undname.obj
 0001:001d4f20       ?getDataType@UnDecorator@@CA?AVDName@@PEAV2@@Z 00000001801d5f20 f   libvcruntime:undname.obj
 0001:001d5034       ?getDecoratedName@UnDecorator@@CA?AVDName@@XZ 00000001801d6034 f   libvcruntime:undname.obj
 0001:001d531c       ?getDimension@UnDecorator@@CA?AVDName@@_N@Z 00000001801d631c f   libvcruntime:undname.obj
 0001:001d5464       ?getDispatchTarget@UnDecorator@@CA?AVDName@@XZ 00000001801d6464 f   libvcruntime:undname.obj
 0001:001d54c4       ?getECSUDataType@UnDecorator@@CA?AVDName@@XZ 00000001801d64c4 f   libvcruntime:undname.obj
 0001:001d56c0       ?getEnumType@UnDecorator@@CA?AVDName@@XZ 00000001801d66c0 f i libvcruntime:undname.obj
 0001:001d57e8       ?getExtendedDataIndirectType@UnDecorator@@CA?AVDName@@AEAW4IndirectionKind@@AEA_NH@Z 00000001801d67e8 f   libvcruntime:undname.obj
 0001:001d5a54       ?getExternalDataType@UnDecorator@@CA?AVDName@@AEBV2@@Z 00000001801d6a54 f i libvcruntime:undname.obj
 0001:001d5b14       ?getFloatingPoint@UnDecorator@@CA?AVDName@@H@Z 00000001801d6b14 f   libvcruntime:undname.obj
 0001:001d5c7c       ?getFunctionIndirectType@UnDecorator@@CA?AVDName@@AEBV2@@Z 00000001801d6c7c f   libvcruntime:undname.obj
 0001:001d61b0       ?getLastChar@DNameStatusNode@@UEBADXZ 00000001801d71b0 f i libvcruntime:undname.obj
 0001:001d61bc       ?getLastChar@charNode@@UEBADXZ 00000001801d71bc f i libvcruntime:undname.obj
 0001:001d61c0       ?getLastChar@pDNameNode@@UEBADXZ 00000001801d71c0 f i libvcruntime:undname.obj
 0001:001d61ec       ?getLastChar@pairNode@@UEBADXZ 00000001801d71ec f i libvcruntime:undname.obj
 0001:001d6224       ?getLastChar@pcharNode@@UEBADXZ 00000001801d7224 f i libvcruntime:undname.obj
 0001:001d6238       ?getLexicalFrame@UnDecorator@@CA?AVDName@@XZ 00000001801d7238 f i libvcruntime:undname.obj
 0001:001d629c       ?getMemberAccess@UnDecorator@@CA?AVDName@@XZ 00000001801d729c f   libvcruntime:undname.obj
 0001:001d6330       ?getMemoryWithBuffer@_HeapManager@@QEAAPEAX_K@Z 00000001801d7330 f   libvcruntime:undname.obj
 0001:001d63c0       ?getNoexcept@UnDecorator@@CA?AVDName@@XZ 00000001801d73c0 f   libvcruntime:undname.obj
 0001:001d6424       ?getNumberOfDimensions@UnDecorator@@CAHXZ 00000001801d7424 f   libvcruntime:undname.obj
 0001:001d6480       ?getOperatorName@UnDecorator@@CA?AVDName@@_NPEA_N@Z 00000001801d7480 f i libvcruntime:undname.obj
 0001:001d6e1c       ?getPointerToMember@UnDecorator@@CA?AVDName@@XZ 00000001801d7e1c f   libvcruntime:undname.obj
 0001:001d6f14       ?getPrimaryDataType@UnDecorator@@CA?AVDName@@AEBV2@@Z 00000001801d7f14 f   libvcruntime:undname.obj
 0001:001d71cc       ?getPtrRefDataType@UnDecorator@@CA?AVDName@@AEBV2@H@Z 00000001801d81cc f   libvcruntime:undname.obj
 0001:001d7398       ?getPtrRefType@UnDecorator@@CA?AVDName@@AEBV2@0W4IndirectionKind@@@Z 00000001801d8398 f   libvcruntime:undname.obj
 0001:001d7580       ?getRestrictionSpec@UnDecorator@@CA?AVDName@@XZ 00000001801d8580 f   libvcruntime:undname.obj
 0001:001d775c       ?getReturnType@UnDecorator@@CA?AVDName@@PEAV2@@Z 00000001801d875c f   libvcruntime:undname.obj
 0001:001d7790       ?getScope@UnDecorator@@CA?AVDName@@XZ 00000001801d8790 f   libvcruntime:undname.obj
 0001:001d7c48       ?getScopedName@UnDecorator@@CA?AVDName@@XZ 00000001801d8c48 f   libvcruntime:undname.obj
 0001:001d7d8c       ?getSignedDimension@UnDecorator@@CA?AVDName@@XZ 00000001801d8d8c f   libvcruntime:undname.obj
 0001:001d7e14       ?getString@DNameStatusNode@@UEBAPEADPEAD0@Z 00000001801d8e14 f i libvcruntime:undname.obj
 0001:001d7e5c       ?getString@charNode@@UEBAPEADPEAD0@Z 00000001801d8e5c f i libvcruntime:undname.obj
 0001:001d7e70       ?getString@pDNameNode@@UEBAPEADPEAD0@Z 00000001801d8e70 f i libvcruntime:undname.obj
 0001:001d7ea0       ?getString@pairNode@@UEBAPEADPEAD0@Z 00000001801d8ea0 f i libvcruntime:undname.obj
 0001:001d7eec       ?getString@pcharNode@@UEBAPEADPEAD0@Z 00000001801d8eec f i libvcruntime:undname.obj
 0001:001d7f24       ?getStringEncoding@UnDecorator@@CA?AVDName@@W4PrefixKind@@H@Z 00000001801d8f24 f   libvcruntime:undname.obj
 0001:001d8034       ?getStringObject@UnDecorator@@CA?AVDName@@XZ 00000001801d9034 f   libvcruntime:undname.obj
 0001:001d80c4       ?getSymbolName@UnDecorator@@CA?AVDName@@XZ 00000001801d90c4 f i libvcruntime:undname.obj
 0001:001d8110       ?getTemplateArgumentList@UnDecorator@@CA?AVDName@@XZ 00000001801d9110 f   libvcruntime:undname.obj
 0001:001d8330       ?getTemplateName@UnDecorator@@CA?AVDName@@_N@Z 00000001801d9330 f   libvcruntime:undname.obj
 0001:001d85e0       ?getTemplateNonTypeArgument@UnDecorator@@CA?AVDName@@XZ 00000001801d95e0 f   libvcruntime:undname.obj
 0001:001d8b30       ?getTemplateTypeArgument@UnDecorator@@CA?AVDName@@XZ 00000001801d9b30 f   libvcruntime:undname.obj
 0001:001d8c98       ?getThrowTypes@UnDecorator@@CA?AVDName@@XZ 00000001801d9c98 f   libvcruntime:undname.obj
 0001:001d8cbc       ?getTypeEncoding@UnDecorator@@CAHXZ 00000001801d9cbc f i libvcruntime:undname.obj
 0001:001d9078       ?getUndecoratedName@UnDecorator@@QEAAPEADPEADH@Z 00000001801da078 f i libvcruntime:undname.obj
 0001:001d91cc       ?getUnionObject@UnDecorator@@CA?AVDName@@XZ 00000001801da1cc f   libvcruntime:undname.obj
 0001:001d92a4       ?getVCallThunkType@UnDecorator@@CA?AVDName@@XZ 00000001801da2a4 f i libvcruntime:undname.obj
 0001:001d931c       ?getValue@UnDecorator@@CA?AV?$optional@_K@std@@XZ 00000001801da31c f   libvcruntime:undname.obj
 0001:001d9360       ?getValueObject@UnDecorator@@CA?AVDName@@XZ 00000001801da360 f   libvcruntime:undname.obj
 0001:001d94e4       ?getVdispMapType@UnDecorator@@CA?AVDName@@AEBV2@@Z 00000001801da4e4 f i libvcruntime:undname.obj
 0001:001d9560       ?getVfTableType@UnDecorator@@CA?AVDName@@AEBV2@@Z 00000001801da560 f i libvcruntime:undname.obj
 0001:001d976c       ?getZName@UnDecorator@@CA?AVDName@@_N0@Z 00000001801da76c f   libvcruntime:undname.obj
 0001:001d9a40       ?length@pDNameNode@@UEBAHXZ 00000001801daa40 f i libvcruntime:undname.obj
 0001:001d9a68       ?length@pairNode@@UEBAHXZ  00000001801daa68 f i libvcruntime:undname.obj
 0001:001d9ab0       ?parseDecoratedName@UnDecorator@@CA?AVDName@@XZ 00000001801daab0 f   libvcruntime:undname.obj
 0001:001d9bc8       ?raw_length@pDNameNode@@UEBAHXZ 00000001801dabc8 f i libvcruntime:undname.obj
 0001:001d9bcc       ?raw_length@pairNode@@UEBAHXZ 00000001801dabcc f i libvcruntime:undname.obj
 0001:001d9bd0       __unDName                  00000001801dabd0 f   libvcruntime:undname.obj
 0001:001d9bf8       __unDNameEx                00000001801dabf8 f   libvcruntime:undname.obj
 0001:001d9ce8       snprintf                   00000001801dace8 f i libvcruntime:undname.obj
 0001:001d9d40       sprintf_s                  00000001801dad40 f i libvcruntime:undname.obj
 0001:001d9d94       __vcrt_freefls             00000001801dad94 f   libvcruntime:per_thread_data.obj
 0001:001d9db4       __vcrt_freeptd_for_this_thread 00000001801dadb4 f   libvcruntime:per_thread_data.obj
 0001:001d9dfc       __vcrt_getptd              00000001801dadfc f   libvcruntime:per_thread_data.obj
 0001:001d9e18       __vcrt_getptd_noexit       00000001801dae18 f   libvcruntime:per_thread_data.obj
 0001:001d9ed8       __vcrt_initialize_ptd      00000001801daed8 f   libvcruntime:per_thread_data.obj
 0001:001d9f20       __vcrt_uninitialize_ptd    00000001801daf20 f   libvcruntime:per_thread_data.obj
 0001:001d9f44       __vcrt_initialize_locks    00000001801daf44 f   libvcruntime:locks.obj
 0001:001d9f8c       __vcrt_lock                00000001801daf8c f   libvcruntime:locks.obj
 0001:001d9fa8       __vcrt_uninitialize_locks  00000001801dafa8 f   libvcruntime:locks.obj
 0001:001d9fe0       __vcrt_unlock              00000001801dafe0 f   libvcruntime:locks.obj
 0001:001da030       _NLG_Notify                00000001801db030 f   libvcruntime:notify.obj
 0001:001da050       __NLG_Dispatch2            00000001801db050 f   libvcruntime:notify.obj
 0001:001da060       __NLG_Return2              00000001801db060 f   libvcruntime:notify.obj
 0001:001da064       __except_validate_context_record 00000001801db064 f   libvcruntime:jbcxrval.obj
 0001:001da0b0       memcpy_avx_ermsb_Intel     00000001801db0b0 f   libvcruntime:memcpy_avx_ermsb_aligned.obj
 0001:001da4e0       memcpy_avx_ermsb_amd       00000001801db4e0 f   libvcruntime:memcpy_avx_ermsb_aligned_amd.obj
 0001:001da910       memcpy_sse2_ermsb_Intel    00000001801db910 f   libvcruntime:memcpy_sse2_ermsb_aligned.obj
 0001:001dabc0       memcpy_sse2_ermsb_amd      00000001801dbbc0 f   libvcruntime:memcpy_sse2_ermsb_aligned_amd.obj
 0001:001dae58       ??$_CallSETranslator@V__FrameHandler3@@@@YAHPEAUEHExceptionRecord@@PEA_KPEAU_CONTEXT@@PEAU_xDISPATCHER_CONTEXT@@PEBU_s_FuncInfo@@K1H@Z 00000001801dbe58 f i libvcruntime:risctrnsctrl.obj
 0001:001daeac       ??$_CallSETranslator@V__FrameHandler4@@@@YAHPEAUEHExceptionRecord@@PEA_KPEAU_CONTEXT@@PEAU_xDISPATCHER_CONTEXT@@PEAUFuncInfo4@FH4@@K1H@Z 00000001801dbeac f i libvcruntime:risctrnsctrl.obj
 0001:001daf00       ?CatchTryBlock@__FrameHandler3@@SAPEBU_s_TryBlockMapEntry@@PEBU_s_FuncInfo@@H@Z 00000001801dbf00 f   libvcruntime:risctrnsctrl.obj
 0001:001daf64       ?DecompFuncInfo@FH4@@YA_JPEAEAEAUFuncInfo4@1@_KH_N@Z 00000001801dbf64 f i libvcruntime:risctrnsctrl.obj
 0001:001db098       ?ExecutionInCatch@__FrameHandler3@@SA_NPEAU_xDISPATCHER_CONTEXT@@PEBU_s_FuncInfo@@@Z 00000001801dc098 f   libvcruntime:risctrnsctrl.obj
 0001:001db0c4       ?ExecutionInCatch@__FrameHandler4@@SA_NPEAU_xDISPATCHER_CONTEXT@@PEAUFuncInfo4@FH4@@@Z 00000001801dc0c4 f   libvcruntime:risctrnsctrl.obj
 0001:001db0cc       ?FrameUnwindToEmptyState@__FrameHandler3@@SAXPEA_KPEAU_xDISPATCHER_CONTEXT@@PEBU_s_FuncInfo@@@Z 00000001801dc0cc f   libvcruntime:risctrnsctrl.obj
 0001:001db130       ?FrameUnwindToEmptyState@__FrameHandler4@@SAXPEA_KPEAU_xDISPATCHER_CONTEXT@@PEAUFuncInfo4@FH4@@@Z 00000001801dc130 f   libvcruntime:risctrnsctrl.obj
 0001:001db164       ?GetEstablisherFrame@__FrameHandler3@@SAPEA_KPEA_KPEAU_xDISPATCHER_CONTEXT@@PEBU_s_FuncInfo@@0@Z 00000001801dc164 f   libvcruntime:risctrnsctrl.obj
 0001:001db234       ?GetEstablisherFrame@__FrameHandler4@@SAPEA_KPEA_KPEAU_xDISPATCHER_CONTEXT@@PEAUFuncInfo4@FH4@@0@Z 00000001801dc234 f   libvcruntime:risctrnsctrl.obj
 0001:001db258       ?GetRangeOfTrysToCheck@__FrameHandler3@@SA?AU?$pair@Viterator@TryBlockMap@__FrameHandler3@@V123@@std@@AEAVTryBlockMap@1@HPEAU_xDISPATCHER_CONTEXT@@PEBU_s_FuncInfo@@H@Z 00000001801dc258 f   libvcruntime:risctrnsctrl.obj
 0001:001db38c       ?GetRangeOfTrysToCheck@__FrameHandler4@@SA?AU?$pair@Viterator@TryBlockMap4@FH4@@V123@@std@@AEAVTryBlockMap4@FH4@@HPEAU_xDISPATCHER_CONTEXT@@PEAUFuncInfo4@5@H@Z 00000001801dc38c f   libvcruntime:risctrnsctrl.obj
 0001:001db4f8       ?UnwindNestedFrames@__FrameHandler3@@SAXPEA_KPEAUEHExceptionRecord@@PEAU_CONTEXT@@0PEAXPEBU_s_FuncInfo@@HHPEBU_s_HandlerType@@PEAU_xDISPATCHER_CONTEXT@@E@Z 00000001801dc4f8 f   libvcruntime:risctrnsctrl.obj
 0001:001db5fc       ?UnwindNestedFrames@__FrameHandler4@@SAXPEA_KPEAUEHExceptionRecord@@PEAU_CONTEXT@@0PEAXPEAUFuncInfo4@FH4@@HHPEAUHandlerType4@5@PEAU_xDISPATCHER_CONTEXT@@E@Z 00000001801dc5fc f   libvcruntime:risctrnsctrl.obj
 0001:001db71c       ?setBuffer@TryBlockMap4@FH4@@QEAAXViterator@12@@Z 00000001801dc71c f i libvcruntime:risctrnsctrl.obj
 0001:001db8e0       _CreateFrameInfo           00000001801dc8e0 f   libvcruntime:risctrnsctrl.obj
 0001:001db91c       _FindAndUnlinkFrame        00000001801dc91c f   libvcruntime:risctrnsctrl.obj
 0001:001db970       _GetImageBase              00000001801dc970 f   libvcruntime:risctrnsctrl.obj
 0001:001db984       _GetThrowImageBase         00000001801dc984 f   libvcruntime:risctrnsctrl.obj
 0001:001db998       _SetImageBase              00000001801dc998 f   libvcruntime:risctrnsctrl.obj
 0001:001db9b0       _SetThrowImageBase         00000001801dc9b0 f   libvcruntime:risctrnsctrl.obj
 0001:001db9c8       __CxxFrameHandler3         00000001801dc9c8 f   libvcruntime:risctrnsctrl.obj
 0001:001dba50       __CxxFrameHandler4         00000001801dca50 f   libvcruntime:risctrnsctrl.obj
 0001:001dbc60       __vcrt_FlsAlloc            00000001801dcc60 f   libvcruntime:winapi_downlevel.obj
 0001:001dbca8       __vcrt_FlsFree             00000001801dcca8 f   libvcruntime:winapi_downlevel.obj
 0001:001dbcf0       __vcrt_FlsGetValue         00000001801dccf0 f   libvcruntime:winapi_downlevel.obj
 0001:001dbd38       __vcrt_FlsSetValue         00000001801dcd38 f   libvcruntime:winapi_downlevel.obj
 0001:001dbd8c       __vcrt_InitializeCriticalSectionEx 00000001801dcd8c f   libvcruntime:winapi_downlevel.obj
 0001:001dbe00       memcpy_repmovs_Intel       00000001801dce00 f   libvcruntime:memcpy_repmovs.obj
 0001:001dbe20       memcpy_CopyDown_Intel      00000001801dce20 f   libvcruntime:memcpy_CopyDown.obj
 0001:001dbf10       memcpy_repmovs_amd         00000001801dcf10 f   libvcruntime:memcpy_repmovs_amd.obj
 0001:001dbf30       memcpy_CopyDown_amd        00000001801dcf30 f   libvcruntime:memcpy_CopyDown_amd.obj
 0001:001dc010       ?GetCurrentState@__FrameHandler3@@SAHPEA_KPEAU_xDISPATCHER_CONTEXT@@PEBU_s_FuncInfo@@@Z 00000001801dd010 f   libvcruntime:ehstate.obj
 0001:001dc038       ?GetUnwindTryBlock@__FrameHandler3@@SAHPEA_KPEAU_xDISPATCHER_CONTEXT@@PEBU_s_FuncInfo@@@Z 00000001801dd038 f   libvcruntime:ehstate.obj
 0001:001dc064       ?SetState@__FrameHandler3@@SAXPEA_KPEBU_s_FuncInfo@@H@Z 00000001801dd064 f   libvcruntime:ehstate.obj
 0001:001dc070       ?SetUnwindTryBlock@__FrameHandler3@@SAXPEA_KPEAU_xDISPATCHER_CONTEXT@@PEBU_s_FuncInfo@@H@Z 00000001801dd070 f   libvcruntime:ehstate.obj
 0001:001dc0ac       ?StateFromControlPc@__FrameHandler3@@SAHPEBU_s_FuncInfo@@PEAU_xDISPATCHER_CONTEXT@@@Z 00000001801dd0ac f   libvcruntime:ehstate.obj
 0001:001dc0b4       ?StateFromControlPc@__FrameHandler4@@SAHPEAUFuncInfo4@FH4@@PEAU_xDISPATCHER_CONTEXT@@@Z 00000001801dd0b4 f   libvcruntime:ehstate.obj
 0001:001dc0bc       ?StateFromIp@__FrameHandler3@@SAHPEBU_s_FuncInfo@@PEAU_xDISPATCHER_CONTEXT@@_K@Z 00000001801dd0bc f   libvcruntime:ehstate.obj
 0001:001dc124       ?StateFromIp@__FrameHandler4@@SAHPEAUFuncInfo4@FH4@@PEAU_xDISPATCHER_CONTEXT@@_K@Z 00000001801dd124 f   libvcruntime:ehstate.obj
 0001:001dd87c       ??$TypeMatchHelper@V__FrameHandler3@@@@YAHPEBU_s_HandlerType@@PEBU_s_CatchableType@@PEBU_s_ThrowInfo@@@Z 00000001801de87c f i libvcruntime:frame.obj
 0001:001dd9bc       ??$TypeMatchHelper@V__FrameHandler4@@@@YAHPEAUHandlerType4@FH4@@PEBU_s_CatchableType@@PEBU_s_ThrowInfo@@@Z 00000001801de9bc f i libvcruntime:frame.obj
 0001:001ddb08       ??$__InternalCxxFrameHandler@V__FrameHandler3@@@@YA?AW4_EXCEPTION_DISPOSITION@@PEAUEHExceptionRecord@@PEA_KPEAU_CONTEXT@@PEAU_xDISPATCHER_CONTEXT@@PEBU_s_FuncInfo@@H1E@Z 00000001801deb08 f i libvcruntime:frame.obj
 0001:001ddd40       ??$__InternalCxxFrameHandler@V__FrameHandler4@@@@YA?AW4_EXCEPTION_DISPOSITION@@PEAUEHExceptionRecord@@PEA_KPEAU_CONTEXT@@PEAU_xDISPATCHER_CONTEXT@@PEAUFuncInfo4@FH4@@H1E@Z 00000001801ded40 f i libvcruntime:frame.obj
 0001:001ddfd4       ??$__InternalCxxFrameHandlerWrapper@V__FrameHandler3@@@@YA?AW4_EXCEPTION_DISPOSITION@@PEAUEHExceptionRecord@@PEA_KPEAU_CONTEXT@@PEAU_xDISPATCHER_CONTEXT@@PEBU_s_FuncInfo@@H1E@Z 00000001801defd4 f i libvcruntime:frame.obj
 0001:001ddfdc       ??$__InternalCxxFrameHandlerWrapper@V__FrameHandler4@@@@YA?AW4_EXCEPTION_DISPOSITION@@PEAUEHExceptionRecord@@PEA_KPEAU_CONTEXT@@PEAU_xDISPATCHER_CONTEXT@@PEAUFuncInfo4@FH4@@H1E@Z 00000001801defdc f i libvcruntime:frame.obj
 0001:001de028       ??0HandlerMap4@FH4@@QEAA@PEBUTryBlockMapEntry4@1@_KH@Z 00000001801df028 f i libvcruntime:frame.obj
 0001:001de0ac       ??0TryBlockMap4@FH4@@QEAA@PEBUFuncInfo4@1@_K@Z 00000001801df0ac f i libvcruntime:frame.obj
 0001:001de190       ??0bad_exception@std@@QEAA@AEBV01@@Z 00000001801df190 f i libvcruntime:frame.obj
 0001:001de1cc       ??0bad_exception@std@@QEAA@XZ 00000001801df1cc f i libvcruntime:frame.obj
 0001:001de1ec       ??0exception@std@@QEAA@AEBV01@@Z 00000001801df1ec f i libvcruntime:frame.obj
 0001:001de220       ??1bad_exception@std@@UEAA@XZ 00000001801df220 f i libvcruntime:frame.obj
 0001:001de234       ??_Ebad_exception@std@@UEAAPEAXI@Z 00000001801df234 f i libvcruntime:frame.obj
 0001:001de234       ??_Eexception@std@@UEAAPEAXI@Z 00000001801df234 f i libvcruntime:frame.obj
 0001:001de234       ??_Gbad_exception@std@@UEAAPEAXI@Z 00000001801df234 f i libvcruntime:frame.obj
 0001:001de234       ??_Gexception@std@@UEAAPEAXI@Z 00000001801df234 f i libvcruntime:frame.obj
 0001:001de278       ?CxxCallCatchBlock@__FrameHandler3@@SAPEAXPEAU_EXCEPTION_RECORD@@@Z 00000001801df278 f   libvcruntime:frame.obj
 0001:001de464       ?CxxCallCatchBlock@__FrameHandler4@@SAPEAXPEAU_EXCEPTION_RECORD@@@Z 00000001801df464 f   libvcruntime:frame.obj
 0001:001de6b4       ?DecompHandler@HandlerMap4@FH4@@AEAAXXZ 00000001801df6b4 f i libvcruntime:frame.obj
 0001:001de8fc       ?FrameUnwindToState@__FrameHandler3@@SAXPEA_KPEAU_xDISPATCHER_CONTEXT@@PEBU_s_FuncInfo@@H@Z 00000001801df8fc f   libvcruntime:frame.obj
 0001:001dea88       ?FrameUnwindToState@__FrameHandler4@@SAXPEA_KPEAU_xDISPATCHER_CONTEXT@@PEAUFuncInfo4@FH4@@H@Z 00000001801dfa88 f   libvcruntime:frame.obj
 0001:001ded90       ?GetHandlerSearchState@__FrameHandler3@@SAHPEA_KPEAU_xDISPATCHER_CONTEXT@@PEBU_s_FuncInfo@@@Z 00000001801dfd90 f i libvcruntime:frame.obj
 0001:001defa0       ?ReadEntry@UWMap4@FH4@@AEAAXPEAPEAE@Z 00000001801dffa0 f i libvcruntime:frame.obj
 0001:001df03c       ?_CallMemberFunction1@@YAXQEAX00@Z 00000001801e003c f i libvcruntime:frame.obj
 0001:001df048       ?_CallMemberFunction2@@YAXQEAX00H@Z 00000001801e0048 f i libvcruntime:frame.obj
 0001:001df058       ?getStartStop@UWMap4@FH4@@QEAAXHHAEAViterator@12@0@Z 00000001801e0058 f i libvcruntime:frame.obj
 0001:001df128       ?getStateFromIterators@UWMap4@FH4@@SAHAEBViterator@12@H0H0@Z 00000001801e0128 f i libvcruntime:frame.obj
 0001:001df1d8       ?what@exception@std@@UEBAPEBDXZ 00000001801e01d8 f i libvcruntime:frame.obj
 0001:001df230       _CallSettingFrame          00000001801e0230 f   libvcruntime:handlers.obj
 0001:001df270       _CallSettingFrame_LookupContinuationIndex 00000001801e0270 f   libvcruntime:handlers.obj
 0001:001df2a0       _CallSettingFrame_NotifyContinuationAddr 00000001801e02a0 f   libvcruntime:handlers.obj
 0001:001df2d0       _CallSettingFrameEncoded   00000001801e02d0 f   libvcruntime:handlers.obj
 0001:001df318       __std_exception_copy       00000001801e0318 f   libvcruntime:std_exception.obj
 0001:001df3a8       __std_exception_destroy    00000001801e03a8 f   libvcruntime:std_exception.obj
 0001:001df3d0       _CxxThrowException         00000001801e03d0 f   libvcruntime:throw.obj
 0001:001df480       cosf_sse2                  00000001801e0480 f   libucrt:cosf.obj
 0001:001df720       cosf                       00000001801e0720 f   libucrt:cosf.obj
 0001:001df940       sinf_sse2                  00000001801e0940 f   libucrt:sinf.obj
 0001:001dfcb0       sinf                       00000001801e0cb0 f   libucrt:sinf.obj
 0001:001e0000       tanf_sse2                  00000001801e1000 f   libucrt:tanf.obj
 0001:001e0320       tanf                       00000001801e1320 f   libucrt:tanf.obj
 0001:001e05fc       __acrt_initialize_stdio    00000001801e15fc f   libucrt:_file.obj
 0001:001e071c       __acrt_iob_func            00000001801e171c f   libucrt:_file.obj
 0001:001e0730       __acrt_uninitialize_stdio  00000001801e1730 f   libucrt:_file.obj
 0001:001e078c       _lock_file                 00000001801e178c f   libucrt:_file.obj
 0001:001e0798       _unlock_file               00000001801e1798 f   libucrt:_file.obj
 0001:001e0994       ??$ensure_buffer_is_big_enough@D@formatting_buffer@__crt_stdio_output@@QEAA_N_KAEAV__crt_cached_ptd_host@@@Z 00000001801e1994 f i libucrt:output.obj
 0001:001e0a3c       ??$parse_integer@KV?$c_string_character_source@D@__crt_strtox@@$0A@@__crt_strtox@@YAKAEAV__crt_cached_ptd_host@@V?$c_string_character_source@D@0@H_N@Z 00000001801e1a3c f i libucrt:output.obj
 0001:001e0cf0       ??$type_case_integer@$07@?$output_processor@DV?$stream_output_adapter@D@__crt_stdio_output@@V?$standard_base@DV?$stream_output_adapter@D@__crt_stdio_output@@@2@@__crt_stdio_output@@AEAA_N_N@Z 00000001801e1cf0 f i libucrt:output.obj
 0001:001e0cf0       ??$type_case_integer@$07@?$output_processor@DV?$string_output_adapter@D@__crt_stdio_output@@V?$format_validation_base@DV?$string_output_adapter@D@__crt_stdio_output@@@2@@__crt_stdio_output@@AEAA_N_N@Z 00000001801e1cf0 f i libucrt:output.obj
 0001:001e0cf0       ??$type_case_integer@$07@?$output_processor@DV?$string_output_adapter@D@__crt_stdio_output@@V?$standard_base@DV?$string_output_adapter@D@__crt_stdio_output@@@2@@__crt_stdio_output@@AEAA_N_N@Z 00000001801e1cf0 f i libucrt:output.obj
 0001:001e0ef4       ??$type_case_integer@$09@?$output_processor@DV?$stream_output_adapter@D@__crt_stdio_output@@V?$standard_base@DV?$stream_output_adapter@D@__crt_stdio_output@@@2@@__crt_stdio_output@@AEAA_N_N@Z 00000001801e1ef4 f i libucrt:output.obj
 0001:001e0ef4       ??$type_case_integer@$09@?$output_processor@DV?$string_output_adapter@D@__crt_stdio_output@@V?$format_validation_base@DV?$string_output_adapter@D@__crt_stdio_output@@@2@@__crt_stdio_output@@AEAA_N_N@Z 00000001801e1ef4 f i libucrt:output.obj
 0001:001e0ef4       ??$type_case_integer@$09@?$output_processor@DV?$string_output_adapter@D@__crt_stdio_output@@V?$standard_base@DV?$string_output_adapter@D@__crt_stdio_output@@@2@@__crt_stdio_output@@AEAA_N_N@Z 00000001801e1ef4 f i libucrt:output.obj
 0001:001e10f8       ??$type_case_integer@$0BA@@?$output_processor@DV?$stream_output_adapter@D@__crt_stdio_output@@V?$standard_base@DV?$stream_output_adapter@D@__crt_stdio_output@@@2@@__crt_stdio_output@@AEAA_N_N@Z 00000001801e20f8 f i libucrt:output.obj
 0001:001e10f8       ??$type_case_integer@$0BA@@?$output_processor@DV?$string_output_adapter@D@__crt_stdio_output@@V?$format_validation_base@DV?$string_output_adapter@D@__crt_stdio_output@@@2@@__crt_stdio_output@@AEAA_N_N@Z 00000001801e20f8 f i libucrt:output.obj
 0001:001e10f8       ??$type_case_integer@$0BA@@?$output_processor@DV?$string_output_adapter@D@__crt_stdio_output@@V?$standard_base@DV?$string_output_adapter@D@__crt_stdio_output@@@2@@__crt_stdio_output@@AEAA_N_N@Z 00000001801e20f8 f i libucrt:output.obj
 0001:001e12fc       ??$type_case_integer_parse_into_buffer@I$07@?$output_processor@DV?$stream_output_adapter@D@__crt_stdio_output@@V?$standard_base@DV?$stream_output_adapter@D@__crt_stdio_output@@@2@@__crt_stdio_output@@AEAAXI_N@Z 00000001801e22fc f i libucrt:output.obj
 0001:001e12fc       ??$type_case_integer_parse_into_buffer@I$07@?$output_processor@DV?$string_output_adapter@D@__crt_stdio_output@@V?$format_validation_base@DV?$string_output_adapter@D@__crt_stdio_output@@@2@@__crt_stdio_output@@AEAAXI_N@Z 00000001801e22fc f i libucrt:output.obj
 0001:001e12fc       ??$type_case_integer_parse_into_buffer@I$07@?$output_processor@DV?$string_output_adapter@D@__crt_stdio_output@@V?$standard_base@DV?$string_output_adapter@D@__crt_stdio_output@@@2@@__crt_stdio_output@@AEAAXI_N@Z 00000001801e22fc f i libucrt:output.obj
 0001:001e136c       ??$type_case_integer_parse_into_buffer@I$09@?$output_processor@DV?$stream_output_adapter@D@__crt_stdio_output@@V?$standard_base@DV?$stream_output_adapter@D@__crt_stdio_output@@@2@@__crt_stdio_output@@AEAAXI_N@Z 00000001801e236c f i libucrt:output.obj
 0001:001e136c       ??$type_case_integer_parse_into_buffer@I$09@?$output_processor@DV?$string_output_adapter@D@__crt_stdio_output@@V?$format_validation_base@DV?$string_output_adapter@D@__crt_stdio_output@@@2@@__crt_stdio_output@@AEAAXI_N@Z 00000001801e236c f i libucrt:output.obj
 0001:001e136c       ??$type_case_integer_parse_into_buffer@I$09@?$output_processor@DV?$string_output_adapter@D@__crt_stdio_output@@V?$standard_base@DV?$string_output_adapter@D@__crt_stdio_output@@@2@@__crt_stdio_output@@AEAAXI_N@Z 00000001801e236c f i libucrt:output.obj
 0001:001e1418       ??$type_case_integer_parse_into_buffer@I$0BA@@?$output_processor@DV?$stream_output_adapter@D@__crt_stdio_output@@V?$standard_base@DV?$stream_output_adapter@D@__crt_stdio_output@@@2@@__crt_stdio_output@@AEAAXI_N@Z 00000001801e2418 f i libucrt:output.obj
 0001:001e1418       ??$type_case_integer_parse_into_buffer@I$0BA@@?$output_processor@DV?$string_output_adapter@D@__crt_stdio_output@@V?$format_validation_base@DV?$string_output_adapter@D@__crt_stdio_output@@@2@@__crt_stdio_output@@AEAAXI_N@Z 00000001801e2418 f i libucrt:output.obj
 0001:001e1418       ??$type_case_integer_parse_into_buffer@I$0BA@@?$output_processor@DV?$string_output_adapter@D@__crt_stdio_output@@V?$standard_base@DV?$string_output_adapter@D@__crt_stdio_output@@@2@@__crt_stdio_output@@AEAAXI_N@Z 00000001801e2418 f i libucrt:output.obj
 0001:001e149c       ??$type_case_integer_parse_into_buffer@_K$07@?$output_processor@DV?$stream_output_adapter@D@__crt_stdio_output@@V?$standard_base@DV?$stream_output_adapter@D@__crt_stdio_output@@@2@@__crt_stdio_output@@AEAAX_K_N@Z 00000001801e249c f i libucrt:output.obj
 0001:001e149c       ??$type_case_integer_parse_into_buffer@_K$07@?$output_processor@DV?$string_output_adapter@D@__crt_stdio_output@@V?$format_validation_base@DV?$string_output_adapter@D@__crt_stdio_output@@@2@@__crt_stdio_output@@AEAAX_K_N@Z 00000001801e249c f i libucrt:output.obj
 0001:001e149c       ??$type_case_integer_parse_into_buffer@_K$07@?$output_processor@DV?$string_output_adapter@D@__crt_stdio_output@@V?$standard_base@DV?$string_output_adapter@D@__crt_stdio_output@@@2@@__crt_stdio_output@@AEAAX_K_N@Z 00000001801e249c f i libucrt:output.obj
 0001:001e150c       ??$type_case_integer_parse_into_buffer@_K$09@?$output_processor@DV?$stream_output_adapter@D@__crt_stdio_output@@V?$standard_base@DV?$stream_output_adapter@D@__crt_stdio_output@@@2@@__crt_stdio_output@@AEAAX_K_N@Z 00000001801e250c f i libucrt:output.obj
 0001:001e150c       ??$type_case_integer_parse_into_buffer@_K$09@?$output_processor@DV?$string_output_adapter@D@__crt_stdio_output@@V?$format_validation_base@DV?$string_output_adapter@D@__crt_stdio_output@@@2@@__crt_stdio_output@@AEAAX_K_N@Z 00000001801e250c f i libucrt:output.obj
 0001:001e150c       ??$type_case_integer_parse_into_buffer@_K$09@?$output_processor@DV?$string_output_adapter@D@__crt_stdio_output@@V?$standard_base@DV?$string_output_adapter@D@__crt_stdio_output@@@2@@__crt_stdio_output@@AEAAX_K_N@Z 00000001801e250c f i libucrt:output.obj
 0001:001e15bc       ??$type_case_integer_parse_into_buffer@_K$0BA@@?$output_processor@DV?$stream_output_adapter@D@__crt_stdio_output@@V?$standard_base@DV?$stream_output_adapter@D@__crt_stdio_output@@@2@@__crt_stdio_output@@AEAAX_K_N@Z 00000001801e25bc f i libucrt:output.obj
 0001:001e15bc       ??$type_case_integer_parse_into_buffer@_K$0BA@@?$output_processor@DV?$string_output_adapter@D@__crt_stdio_output@@V?$format_validation_base@DV?$string_output_adapter@D@__crt_stdio_output@@@2@@__crt_stdio_output@@AEAAX_K_N@Z 00000001801e25bc f i libucrt:output.obj
 0001:001e15bc       ??$type_case_integer_parse_into_buffer@_K$0BA@@?$output_processor@DV?$string_output_adapter@D@__crt_stdio_output@@V?$standard_base@DV?$string_output_adapter@D@__crt_stdio_output@@@2@@__crt_stdio_output@@AEAAX_K_N@Z 00000001801e25bc f i libucrt:output.obj
 0001:001e175c       ?crop_zeroes@__crt_stdio_output@@YAXPEADQEAU__crt_locale_pointers@@@Z 00000001801e275c f i libucrt:output.obj
 0001:001e17d0       ?get_raw_ptd@__crt_cached_ptd_host@@QEAAPEAU__acrt_ptd@@XZ 00000001801e27d0 f i libucrt:output.obj
 0001:001e1838       ?parse_int_from_format_string@?$output_processor@DV?$stream_output_adapter@D@__crt_stdio_output@@V?$standard_base@DV?$stream_output_adapter@D@__crt_stdio_output@@@2@@__crt_stdio_output@@AEAA_NQEAH@Z 00000001801e2838 f i libucrt:output.obj
 0001:001e1838       ?parse_int_from_format_string@?$output_processor@DV?$string_output_adapter@D@__crt_stdio_output@@V?$format_validation_base@DV?$string_output_adapter@D@__crt_stdio_output@@@2@@__crt_stdio_output@@AEAA_NQEAH@Z 00000001801e2838 f i libucrt:output.obj
 0001:001e1838       ?parse_int_from_format_string@?$output_processor@DV?$string_output_adapter@D@__crt_stdio_output@@V?$standard_base@DV?$string_output_adapter@D@__crt_stdio_output@@@2@@__crt_stdio_output@@AEAA_NQEAH@Z 00000001801e2838 f i libucrt:output.obj
 0001:001e18c8       ?process@?$output_processor@DV?$stream_output_adapter@D@__crt_stdio_output@@V?$standard_base@DV?$stream_output_adapter@D@__crt_stdio_output@@@2@@__crt_stdio_output@@QEAAHXZ 00000001801e28c8 f i libucrt:output.obj
 0001:001e1c4c       ?process@?$output_processor@DV?$string_output_adapter@D@__crt_stdio_output@@V?$format_validation_base@DV?$string_output_adapter@D@__crt_stdio_output@@@2@@__crt_stdio_output@@QEAAHXZ 00000001801e2c4c f i libucrt:output.obj
 0001:001e1fb4       ?process@?$output_processor@DV?$string_output_adapter@D@__crt_stdio_output@@V?$standard_base@DV?$string_output_adapter@D@__crt_stdio_output@@@2@@__crt_stdio_output@@QEAAHXZ 00000001801e2fb4 f i libucrt:output.obj
 0001:001e2324       ?state_case_size@?$output_processor@DV?$stream_output_adapter@D@__crt_stdio_output@@V?$standard_base@DV?$stream_output_adapter@D@__crt_stdio_output@@@2@@__crt_stdio_output@@AEAA_NXZ 00000001801e3324 f i libucrt:output.obj
 0001:001e24ac       ?state_case_size@?$output_processor@DV?$string_output_adapter@D@__crt_stdio_output@@V?$format_validation_base@DV?$string_output_adapter@D@__crt_stdio_output@@@2@@__crt_stdio_output@@AEAA_NXZ 00000001801e34ac f i libucrt:output.obj
 0001:001e24ac       ?state_case_size@?$output_processor@DV?$string_output_adapter@D@__crt_stdio_output@@V?$standard_base@DV?$string_output_adapter@D@__crt_stdio_output@@@2@@__crt_stdio_output@@AEAA_NXZ 00000001801e34ac f i libucrt:output.obj
 0001:001e2634       ?state_case_type@?$output_processor@DV?$stream_output_adapter@D@__crt_stdio_output@@V?$standard_base@DV?$stream_output_adapter@D@__crt_stdio_output@@@2@@__crt_stdio_output@@AEAA_NXZ 00000001801e3634 f i libucrt:output.obj
 0001:001e2b6c       ?state_case_type@?$output_processor@DV?$string_output_adapter@D@__crt_stdio_output@@V?$format_validation_base@DV?$string_output_adapter@D@__crt_stdio_output@@@2@@__crt_stdio_output@@AEAA_NXZ 00000001801e3b6c f i libucrt:output.obj
 0001:001e2b6c       ?state_case_type@?$output_processor@DV?$string_output_adapter@D@__crt_stdio_output@@V?$standard_base@DV?$string_output_adapter@D@__crt_stdio_output@@@2@@__crt_stdio_output@@AEAA_NXZ 00000001801e3b6c f i libucrt:output.obj
 0001:001e2fdc       ?type_case_Z@?$output_processor@DV?$stream_output_adapter@D@__crt_stdio_output@@V?$standard_base@DV?$stream_output_adapter@D@__crt_stdio_output@@@2@@__crt_stdio_output@@AEAA_NXZ 00000001801e3fdc f i libucrt:output.obj
 0001:001e2fdc       ?type_case_Z@?$output_processor@DV?$string_output_adapter@D@__crt_stdio_output@@V?$format_validation_base@DV?$string_output_adapter@D@__crt_stdio_output@@@2@@__crt_stdio_output@@AEAA_NXZ 00000001801e3fdc f i libucrt:output.obj
 0001:001e2fdc       ?type_case_Z@?$output_processor@DV?$string_output_adapter@D@__crt_stdio_output@@V?$standard_base@DV?$string_output_adapter@D@__crt_stdio_output@@@2@@__crt_stdio_output@@AEAA_NXZ 00000001801e3fdc f i libucrt:output.obj
 0001:001e3058       ?type_case_a@?$output_processor@DV?$stream_output_adapter@D@__crt_stdio_output@@V?$standard_base@DV?$stream_output_adapter@D@__crt_stdio_output@@@2@@__crt_stdio_output@@AEAA_NXZ 00000001801e4058 f i libucrt:output.obj
 0001:001e3058       ?type_case_a@?$output_processor@DV?$string_output_adapter@D@__crt_stdio_output@@V?$format_validation_base@DV?$string_output_adapter@D@__crt_stdio_output@@@2@@__crt_stdio_output@@AEAA_NXZ 00000001801e4058 f i libucrt:output.obj
 0001:001e3058       ?type_case_a@?$output_processor@DV?$string_output_adapter@D@__crt_stdio_output@@V?$standard_base@DV?$string_output_adapter@D@__crt_stdio_output@@@2@@__crt_stdio_output@@AEAA_NXZ 00000001801e4058 f i libucrt:output.obj
 0001:001e32b4       ?type_case_c_tchar@?$output_processor@DV?$stream_output_adapter@D@__crt_stdio_output@@V?$standard_base@DV?$stream_output_adapter@D@__crt_stdio_output@@@2@@__crt_stdio_output@@AEAA_ND@Z 00000001801e42b4 f i libucrt:output.obj
 0001:001e32b4       ?type_case_c_tchar@?$output_processor@DV?$string_output_adapter@D@__crt_stdio_output@@V?$format_validation_base@DV?$string_output_adapter@D@__crt_stdio_output@@@2@@__crt_stdio_output@@AEAA_ND@Z 00000001801e42b4 f i libucrt:output.obj
 0001:001e32b4       ?type_case_c_tchar@?$output_processor@DV?$string_output_adapter@D@__crt_stdio_output@@V?$standard_base@DV?$string_output_adapter@D@__crt_stdio_output@@@2@@__crt_stdio_output@@AEAA_ND@Z 00000001801e42b4 f i libucrt:output.obj
 0001:001e3388       ?type_case_n@?$output_processor@DV?$stream_output_adapter@D@__crt_stdio_output@@V?$standard_base@DV?$stream_output_adapter@D@__crt_stdio_output@@@2@@__crt_stdio_output@@AEAA_NXZ 00000001801e4388 f i libucrt:output.obj
 0001:001e3388       ?type_case_n@?$output_processor@DV?$string_output_adapter@D@__crt_stdio_output@@V?$format_validation_base@DV?$string_output_adapter@D@__crt_stdio_output@@@2@@__crt_stdio_output@@AEAA_NXZ 00000001801e4388 f i libucrt:output.obj
 0001:001e3388       ?type_case_n@?$output_processor@DV?$string_output_adapter@D@__crt_stdio_output@@V?$standard_base@DV?$string_output_adapter@D@__crt_stdio_output@@@2@@__crt_stdio_output@@AEAA_NXZ 00000001801e4388 f i libucrt:output.obj
 0001:001e3440       ?type_case_s@?$output_processor@DV?$stream_output_adapter@D@__crt_stdio_output@@V?$standard_base@DV?$stream_output_adapter@D@__crt_stdio_output@@@2@@__crt_stdio_output@@AEAA_NXZ 00000001801e4440 f i libucrt:output.obj
 0001:001e3440       ?type_case_s@?$output_processor@DV?$string_output_adapter@D@__crt_stdio_output@@V?$format_validation_base@DV?$string_output_adapter@D@__crt_stdio_output@@@2@@__crt_stdio_output@@AEAA_NXZ 00000001801e4440 f i libucrt:output.obj
 0001:001e3440       ?type_case_s@?$output_processor@DV?$string_output_adapter@D@__crt_stdio_output@@V?$standard_base@DV?$string_output_adapter@D@__crt_stdio_output@@@2@@__crt_stdio_output@@AEAA_NXZ 00000001801e4440 f i libucrt:output.obj
 0001:001e34e0       ?update_locale_slow@__crt_cached_ptd_host@@AEAAXXZ 00000001801e44e0 f i libucrt:output.obj
 0001:001e3558       ?validate_stream_is_ansi_if_required@?$__acrt_stdio_char_traits@D@@SA_NQEAU_iobuf@@@Z 00000001801e4558 f i libucrt:output.obj
 0001:001e35f4       ?write_string@?$string_output_adapter@D@__crt_stdio_output@@QEBAXQEBDHQEAHAEAV__crt_cached_ptd_host@@@Z 00000001801e45f4 f i libucrt:output.obj
 0001:001e3698       ?write_string_impl@?$output_adapter_common@DV?$stream_output_adapter@D@__crt_stdio_output@@@__crt_stdio_output@@IEBAXQEBDHQEAHAEAV__crt_cached_ptd_host@@@Z 00000001801e4698 f i libucrt:output.obj
 0001:001e3768       __stdio_common_vfprintf    00000001801e4768 f   libucrt:output.obj
 0001:001e388c       __stdio_common_vsprintf    00000001801e488c f   libucrt:output.obj
 0001:001e3ae0       __stdio_common_vsprintf_s  00000001801e4ae0 f   libucrt:output.obj
 0001:001e3bf4       _fpclass                   00000001801e4bf4 f   libucrt:ieeemisc.obj
 0001:001e3c80       powf                       00000001801e4c80 f   libucrt:powf.obj
 0001:001e4b40       atan2f                     00000001801e5b40 f   libucrt:atan2f.obj
 0001:001e4f60       acosf                      00000001801e5f60 f   libucrt:acosf.obj
 0001:001e51a0       free                       00000001801e61a0 f   libucrt:free.obj
 0001:001e51a8       _seh_filter_dll            00000001801e61a8 f   libucrt:exception_filter.obj
 0001:001e51bc       _seh_filter_exe            00000001801e61bc f   libucrt:exception_filter.obj
 0001:001e5598       __acrt_initialize_thread_local_exit_callback 00000001801e6598 f   libucrt:exit.obj
 0001:001e55a0       _cexit                     00000001801e65a0 f   libucrt:exit.obj
 0001:001e55b0       _exit                      00000001801e65b0 f   libucrt:exit.obj
 0001:001e55bc       _is_c_termination_complete 00000001801e65bc f   libucrt:exit.obj
 0001:001e5784       __acrt_allocate_buffer_for_argv 00000001801e6784 f   libucrt:argv_parsing.obj
 0001:001e57e4       _configure_narrow_argv     00000001801e67e4 f   libucrt:argv_parsing.obj
 0001:001e5b68       __dcrt_uninitialize_environments_nolock 00000001801e6b68 f   libucrt:environment_initialization.obj
 0001:001e5bac       _initialize_narrow_environment 00000001801e6bac f   libucrt:environment_initialization.obj
 0001:001e5ef4       _crt_atexit                00000001801e6ef4 f   libucrt:onexit.obj
 0001:001e5f04       _execute_onexit_table      00000001801e6f04 f   libucrt:onexit.obj
 0001:001e5f48       _initialize_onexit_table   00000001801e6f48 f   libucrt:onexit.obj
 0001:001e5f70       _register_onexit_function  00000001801e6f70 f   libucrt:onexit.obj
 0001:001e5ff0       __acrt_uninitialize_command_line 00000001801e6ff0 f   libucrt:argv_data.obj
 0001:001e60e8       __acrt_initialize          00000001801e70e8 f   libucrt:initialization.obj
 0001:001e60fc       __acrt_thread_attach       00000001801e70fc f   libucrt:initialization.obj
 0001:001e6110       __acrt_thread_detach       00000001801e7110 f   libucrt:initialization.obj
 0001:001e6120       __acrt_uninitialize        00000001801e7120 f   libucrt:initialization.obj
 0001:001e6158       __acrt_uninitialize_critical 00000001801e7158 f   libucrt:initialization.obj
 0001:001e6168       _initterm                  00000001801e7168 f   libucrt:initterm.obj
 0001:001e61a0       _initterm_e                00000001801e71a0 f   libucrt:initterm.obj
 0001:001e61dc       terminate                  00000001801e71dc f   libucrt:terminate.obj
 0001:001e61fc       abort                      00000001801e71fc f   libucrt:abort.obj
 0001:001e6260       malloc                     00000001801e7260 f   libucrt:malloc.obj
 0001:001e6268       strcpy_s                   00000001801e7268 f   libucrt:strcpy_s.obj
 0001:001e62c8       ??$parse_integer@KV?$c_string_character_source@D@__crt_strtox@@$00@__crt_strtox@@YAKAEAV__crt_cached_ptd_host@@V?$c_string_character_source@D@0@H_N@Z 00000001801e72c8 f i libucrt:atox.obj
 0001:001e65a4       _ischartype_l              00000001801e75a4 f i libucrt:atox.obj
 0001:001e661c       atol                       00000001801e761c f   libucrt:atox.obj
 0001:001e66d0       calloc                     00000001801e76d0 f   libucrt:calloc.obj
 0001:001e66d8       wcsncmp                    00000001801e76d8 f   libucrt:wcsncmp.obj
 0001:001e6710       __remainder_piby2d2f_forAsm 00000001801e7710 f   libucrt:remainder_piby2f_forasm.obj
 0001:001e6860       __remainder_piby2_fma3     00000001801e7860 f   libucrt:remainder_piby2_forfma3.obj
 0001:001e6a50       __remainder_piby2_fma3_bdl 00000001801e7a50 f   libucrt:remainder_piby2_forfma3.obj
 0001:001e6ac8       _cosf_special              00000001801e7ac8 f   libucrt:sincos_special.obj
 0001:001e6b64       _sinf_special              00000001801e7b64 f   libucrt:sincos_special.obj
 0001:001e6b78       _tanf_special              00000001801e7b78 f   libucrt:sincos_special.obj
 0001:001e6b8c       _clrfp                     00000001801e7b8c f   libucrt:fpctrl.obj
 0001:001e6bac       _ctrlfp                    00000001801e7bac f   libucrt:fpctrl.obj
 0001:001e6c20       _get_fpcsr                 00000001801e7c20 f   libucrt:fpctrl.obj
 0001:001e6c20       _get_fpsr                  00000001801e7c20 f   libucrt:fpctrl.obj
 0001:001e6c2c       _set_fpcsr                 00000001801e7c2c f   libucrt:fpctrl.obj
 0001:001e6c2c       _set_fpsr                  00000001801e7c2c f   libucrt:fpctrl.obj
 0001:001e6c38       _set_statfp                00000001801e7c38 f   libucrt:fpctrl.obj
 0001:001e6c58       _statfp                    00000001801e7c58 f   libucrt:fpctrl.obj
 0001:001e6c70       __acrt_initialize_fma3     00000001801e7c70 f   libucrt:fma3_available.obj
 0001:001e6d30       __remainder_piby2d2f_forC  00000001801e7d30 f   libucrt:remainder_piby2f_forc.obj
 0001:001e6ebc       ?get_raw_ptd_noexit@__crt_cached_ptd_host@@QEAAPEAU__acrt_ptd@@XZ 00000001801e7ebc f i libucrt:invalid_parameter.obj
 0001:001e6f28       ?value@?$dual_state_global@P6AXPEB_W00I_K@Z@__crt_state_management@@QEAAAEAP6AXPEB_W00I_K@ZAEAV__crt_cached_ptd_host@@@Z 00000001801e7f28 f i libucrt:invalid_parameter.obj
 0001:001e6f74       __acrt_call_reportfault    00000001801e7f74 f   libucrt:invalid_parameter.obj
 0001:001e70e4       __acrt_initialize_invalid_parameter_handler 00000001801e80e4 f   libucrt:invalid_parameter.obj
 0001:001e70ec       _invalid_parameter         00000001801e80ec f   libucrt:invalid_parameter.obj
 0001:001e7188       _invalid_parameter_internal 00000001801e8188 f   libucrt:invalid_parameter.obj
 0001:001e7240       _invalid_parameter_noinfo  00000001801e8240 f   libucrt:invalid_parameter.obj
 0001:001e7260       _invoke_watson             00000001801e8260 f   libucrt:invalid_parameter.obj
 0001:001e72a8       __acrt_errno_from_os_error 00000001801e82a8 f   libucrt:errno.obj
 0001:001e7378       __acrt_errno_map_os_error  00000001801e8378 f   libucrt:errno.obj
 0001:001e73a0       __acrt_errno_map_os_error_ptd 00000001801e83a0 f   libucrt:errno.obj
 0001:001e73c4       __doserrno                 00000001801e83c4 f   libucrt:errno.obj
 0001:001e73e8       _errno                     00000001801e83e8 f   libucrt:errno.obj
 0001:001e7410       _calloc_base               00000001801e8410 f   libucrt:calloc_base.obj
 0001:001e7490       _free_base                 00000001801e8490 f   libucrt:free_base.obj
 0001:001e769c       __acrt_AppPolicyGetProcessTerminationMethodInternal 00000001801e869c f   libucrt:winapi_thunks.obj
 0001:001e76f8       __acrt_AreFileApisANSI     00000001801e86f8 f   libucrt:winapi_thunks.obj
 0001:001e7744       __acrt_FlsAlloc            00000001801e8744 f   libucrt:winapi_thunks.obj
 0001:001e774c       __acrt_FlsFree             00000001801e874c f   libucrt:winapi_thunks.obj
 0001:001e7754       __acrt_FlsGetValue         00000001801e8754 f   libucrt:winapi_thunks.obj
 0001:001e775c       __acrt_FlsGetValue2        00000001801e875c f   libucrt:winapi_thunks.obj
 0001:001e7768       __acrt_FlsSetValue         00000001801e8768 f   libucrt:winapi_thunks.obj
 0001:001e7770       __acrt_InitializeCriticalSectionEx 00000001801e8770 f   libucrt:winapi_thunks.obj
 0001:001e7778       __acrt_LCMapStringEx       00000001801e8778 f   libucrt:winapi_thunks.obj
 0001:001e786c       __acrt_LocaleNameToLCID    00000001801e886c f   libucrt:winapi_thunks.obj
 0001:001e78d0       __acrt_initialize_winapi_thunks 00000001801e88d0 f   libucrt:winapi_thunks.obj
 0001:001e7900       __acrt_tls2_supported      00000001801e8900 f   libucrt:winapi_thunks.obj
 0001:001e7944       __acrt_uninitialize_winapi_thunks 00000001801e8944 f   libucrt:winapi_thunks.obj
 0001:001e7988       _fcloseall                 00000001801e8988 f   libucrt:closeall.obj
 0001:001e7c1c       __acrt_stdio_flush_nolock  00000001801e8c1c f   libucrt:fflush.obj
 0001:001e7ca8       _fflush_nolock             00000001801e8ca8 f   libucrt:fflush.obj
 0001:001e7d7c       _flushall                  00000001801e8d7c f   libucrt:fflush.obj
 0001:001e7d84       __acrt_stdio_free_buffer_nolock 00000001801e8d84 f   libucrt:_freebuf.obj
 0001:001e7fd0       __acrt_initialize_lowio    00000001801e8fd0 f   libucrt:ioinit.obj
 0001:001e800c       __acrt_uninitialize_lowio  00000001801e900c f   libucrt:ioinit.obj
 0001:001e8050       _malloc_base               00000001801e9050 f   libucrt:malloc_base.obj
 0001:001e80b0       strnlen                    00000001801e90b0 f   libucrt:strnlen.obj
 0001:001e821c       wcsnlen                    00000001801e921c f   libucrt:strnlen.obj
 0001:001e8410       __acrt_update_locale_info  00000001801e9410 f   libucrt:locale_update.obj
 0001:001e8444       __acrt_update_locale_info_explicit 00000001801e9444 f   libucrt:locale_update.obj
 0001:001e847c       __acrt_update_multibyte_info 00000001801e947c f   libucrt:locale_update.obj
 0001:001e84b0       __acrt_update_multibyte_info_explicit 00000001801e94b0 f   libucrt:locale_update.obj
 0001:001e8ff8       __acrt_fp_format           00000001801e9ff8 f   libucrt:cvt.obj
 0001:001e92e0       _wctomb_internal           00000001801ea2e0 f   libucrt:wctomb.obj
 0001:001e9490       _mbtowc_internal           00000001801ea490 f   libucrt:mbtowc.obj
 0001:001e9608       ?__mblen_utf8@__crt_mbstring@@YAHPEBD@Z 00000001801ea608 f   libucrt:mbrtoc32.obj
 0001:001e9640       ?__mbrtoc32_utf8@__crt_mbstring@@YA_KPEA_UPEBD_KPEAU_Mbstatet@@AEAV__crt_cached_ptd_host@@@Z 00000001801ea640 f   libucrt:mbrtoc32.obj
 0001:001e9800       ?__c16rtomb_utf8@__crt_mbstring@@YA_KPEAD_SPEAU_Mbstatet@@AEAV__crt_cached_ptd_host@@@Z 00000001801ea800 f   libucrt:c16rtomb.obj
 0001:001e98a4       ?__mbrtowc_utf8@__crt_mbstring@@YA_KPEA_WPEBD_KPEAU_Mbstatet@@AEAV__crt_cached_ptd_host@@@Z 00000001801ea8a4 f   libucrt:mbrtowc.obj
 0001:001e98ec       ?__mbsrtowcs_utf8@__crt_mbstring@@YA_KPEA_WPEAPEBD_KPEAU_Mbstatet@@AEAV__crt_cached_ptd_host@@@Z 00000001801ea8ec f   libucrt:mbrtowc.obj
 0001:001e9aa4       _fileno                    00000001801eaaa4 f   libucrt:fileno.obj
 0001:001e9acc       _get_printf_count_output   00000001801eaacc f   libucrt:printf_count_output.obj
 0001:001e9ae4       _fputc_nolock_internal     00000001801eaae4 f   libucrt:fputc.obj
 0001:001e9afc       __acrt_should_use_temporary_buffer 00000001801eaafc f   libucrt:_sftbuf.obj
 0001:001e9b48       __acrt_stdio_begin_temporary_buffering_nolock 00000001801eab48 f   libucrt:_sftbuf.obj
 0001:001e9c10       __acrt_stdio_end_temporary_buffering_nolock 00000001801eac10 f   libucrt:_sftbuf.obj
 0001:001e9f60       ?internal_get_ptd_head_slow@@YAPEAU__acrt_ptd@@XZ 00000001801eaf60 f   libucrt:per_thread_data.obj
 0001:001ea080       __acrt_freeptd             00000001801eb080 f   libucrt:per_thread_data.obj
 0001:001ea0d0       __acrt_getptd              00000001801eb0d0 f   libucrt:per_thread_data.obj
 0001:001ea0ec       __acrt_getptd_head         00000001801eb0ec f   libucrt:per_thread_data.obj
 0001:001ea130       __acrt_getptd_noexit       00000001801eb130 f   libucrt:per_thread_data.obj
 0001:001ea1c0       __acrt_getptd_noexit_explicit 00000001801eb1c0 f   libucrt:per_thread_data.obj
 0001:001ea21c       __acrt_initialize_ptd      00000001801eb21c f   libucrt:per_thread_data.obj
 0001:001ea260       __acrt_uninitialize_ptd    00000001801eb260 f   libucrt:per_thread_data.obj
 0001:001ea2f4       __acrt_set_locale_changed  00000001801eb2f4 f   libucrt:wsetlocale.obj
 0001:001ea300       __acrt_uninitialize_locale 00000001801eb300 f   libucrt:wsetlocale.obj
 0001:001ea440       _handle_error              00000001801eb440 f   libucrt:libm_error.obj
 0001:001ea580       _handle_errorf             00000001801eb580 f   libucrt:libm_error.obj
 0001:001ea6c0       _handle_nan                00000001801eb6c0 f   libucrt:libm_error.obj
 0001:001ea6e0       _handle_nanf               00000001801eb6e0 f   libucrt:libm_error.obj
 0001:001ea6f0       _powf_special              00000001801eb6f0 f   libucrt:pow_special.obj
 0001:001ea860       atan2f_fma                 00000001801eb860 f   libucrt:atan2f.obj
 0001:001eac40       acosf_fma                  00000001801ebc40 f   libucrt:acosf.obj
 0001:001eae40       __acrt_initialize_locks    00000001801ebe40 f   libucrt:locks.obj
 0001:001eae88       __acrt_lock                00000001801ebe88 f   libucrt:locks.obj
 0001:001eaea4       __acrt_uninitialize_locks  00000001801ebea4 f   libucrt:locks.obj
 0001:001eaedc       __acrt_unlock              00000001801ebedc f   libucrt:locks.obj
 0001:001eaef8       __acrt_app_verifier_enabled 00000001801ebef8 f   libucrt:peb_access.obj
 0001:001eaf14       __acrt_is_secure_process   00000001801ebf14 f   libucrt:peb_access.obj
 0001:001eaf2c       __acrt_get_process_end_policy 00000001801ebf2c f   libucrt:win_policies.obj
 0001:001eaf70       ??$__acrt_convert_wcs_mbs_cp@D_WV<lambda_7c9dea7b4ca7285d2cdb541a38da6275>@@U__crt_win32_buffer_internal_dynamic_resizing@@@@YAHQEBDAEAV?$__crt_win32_buffer@_WU__crt_win32_buffer_internal_dynamic_resizing@@@@AEBV<lambda_7c9dea7b4ca7285d2cdb541a38da6275>@@I@Z 00000001801ebf70 f i libucrt:argv_wildcards.obj
 0001:001eb110       ??$__acrt_convert_wcs_mbs_cp@_WDV<lambda_d8593a27d1aa8c02be35c86a17d324c4>@@U__crt_win32_buffer_internal_dynamic_resizing@@@@YAHQEB_WAEAV?$__crt_win32_buffer@DU__crt_win32_buffer_internal_dynamic_resizing@@@@AEBV<lambda_d8593a27d1aa8c02be35c86a17d324c4>@@I@Z 00000001801ec110 f i libucrt:argv_wildcards.obj
 0001:001eb9dc       ??0_LocaleUpdate@@QEAA@QEAU__crt_locale_pointers@@@Z 00000001801ec9dc f i libucrt:argv_wildcards.obj
 0001:001eba78       __acrt_expand_narrow_argv_wildcards 00000001801eca78 f   libucrt:argv_wildcards.obj
 0001:001eba80       ??$__acrt_convert_wcs_mbs_cp@_WDV<lambda_f788ae46380686e8b737efdd8c720d07>@@U__crt_win32_buffer_no_resizing@@@@YAHQEB_WAEAV?$__crt_win32_buffer@DU__crt_win32_buffer_no_resizing@@@@AEBV<lambda_f788ae46380686e8b737efdd8c720d07>@@I@Z 00000001801eca80 f i libucrt:getmodulefilenamea.obj
 0001:001ebb9c       __acrt_GetModuleFileNameA  00000001801ecb9c f   libucrt:getmodulefilenamea.obj
 0001:001ec4c8       __acrt_initialize_multibyte 00000001801ed4c8 f   libucrt:mbctype.obj
 0001:001ec528       __acrt_update_thread_multibyte_data 00000001801ed528 f   libucrt:mbctype.obj
 0001:001ec544       _setmbcp_nolock            00000001801ed544 f   libucrt:mbctype.obj
 0001:001ec880       _ismbblead                 00000001801ed880 f   libucrt:ismbbyte.obj
 0001:001ec894       __acrt_initialize_command_line 00000001801ed894 f   libucrt:argv_data.obj
 0001:001ec8bc       __acrt_MultiByteToWideChar 00000001801ed8bc f   libucrt:multibytetowidechar.obj
 0001:001ec94c       __acrt_WideCharToMultiByte 00000001801ed94c f   libucrt:widechartomultibyte.obj
 0001:001eca2c       __dcrt_get_narrow_environment_from_os 00000001801eda2c f   libucrt:get_environment_from_os.obj
 0001:001ecb40       _recalloc_base             00000001801edb40 f   libucrt:recalloc.obj
 0001:001ecbe0       _recalloc                  00000001801edbe0 f   libucrt:recalloc.obj
 0001:001ecbf0       _get_heap_handle           00000001801edbf0 f   libucrt:heap_handle.obj
 0001:001ecc00       __acrt_initialize_heap     00000001801edc00 f   libucrt:heap_handle.obj
 0001:001ecc30       __acrt_uninitialize_heap   00000001801edc30 f   libucrt:heap_handle.obj
 0001:001ecc50       __acrt_getheap             00000001801edc50 f   libucrt:heap_handle.obj
 0001:001ecc58       __acrt_execute_initializers 00000001801edc58 f   libucrt:shared_initialization.obj
 0001:001eccd8       __acrt_execute_uninitializers 00000001801edcd8 f   libucrt:shared_initialization.obj
 0001:001ecd20       _callnewh                  00000001801edd20 f   libucrt:new_handler.obj
 0001:001ecd60       __acrt_initialize_new_handler 00000001801edd60 f   libucrt:new_handler.obj
 0001:001ecd70       _query_new_handler         00000001801edd70 f   libucrt:new_handler.obj
 0001:001ecdb0       _set_new_handler           00000001801eddb0 f   libucrt:new_handler.obj
 0001:001ece10       ?_set_new_handler@@YAP6AH_K@ZH@Z 00000001801ede10 f   libucrt:new_handler.obj
 0001:001ece64       __acrt_get_sigabrt_handler 00000001801ede64 f   libucrt:signal.obj
 0001:001ece94       __acrt_initialize_signal_handlers 00000001801ede94 f   libucrt:signal.obj
 0001:001eceb4       raise                      00000001801edeb4 f   libucrt:signal.obj
 0001:001ed110       __acrt_has_user_matherr    00000001801ee110 f   libucrt:matherr.obj
 0001:001ed130       __acrt_initialize_user_matherr 00000001801ee130 f   libucrt:matherr.obj
 0001:001ed140       __acrt_invoke_user_matherr 00000001801ee140 f   libucrt:matherr.obj
 0001:001ed170       __pctype_func              00000001801ee170 f   libucrt:ctype.obj
 0001:001ed1a0       _isctype_l                 00000001801ee1a0 f   libucrt:isctype.obj
 0001:001ed2b0       _query_new_mode            00000001801ee2b0 f   libucrt:new_mode.obj
 0001:001ed2c0       _set_new_mode              00000001801ee2c0 f   libucrt:new_mode.obj
 0001:001ed2ec       __acrt_DownlevelLocaleNameToLCID 00000001801ee2ec f   libucrt:lcidtoname_downlevel.obj
 0001:001ed4b8       fclose                     00000001801ee4b8 f   libucrt:fclose.obj
 0001:001ed5dc       _commit                    00000001801ee5dc f   libucrt:commit.obj
 0001:001ede9c       _write_internal            00000001801eee9c f   libucrt:write.obj
 0001:001edfbc       _write_nolock              00000001801eefbc f   libucrt:write.obj
 0001:001ee2ec       __acrt_lowio_create_handle_array 00000001801ef2ec f   libucrt:osfinfo.obj
 0001:001ee394       __acrt_lowio_destroy_handle_array 00000001801ef394 f   libucrt:osfinfo.obj
 0001:001ee3e4       __acrt_lowio_ensure_fh_exists 00000001801ef3e4 f   libucrt:osfinfo.obj
 0001:001ee48c       __acrt_lowio_lock_fh       00000001801ef48c f   libucrt:osfinfo.obj
 0001:001ee4b4       __acrt_lowio_unlock_fh     00000001801ef4b4 f   libucrt:osfinfo.obj
 0001:001ee4dc       _free_osfhnd               00000001801ef4dc f   libucrt:osfinfo.obj
 0001:001ee598       _get_osfhandle             00000001801ef598 f   libucrt:osfinfo.obj
 0001:001ee610       __acrt_add_locale_ref      00000001801ef610 f   libucrt:locale_refcounting.obj
 0001:001ee69c       __acrt_free_locale         00000001801ef69c f   libucrt:locale_refcounting.obj
 0001:001ee814       __acrt_locale_add_lc_time_reference 00000001801ef814 f   libucrt:locale_refcounting.obj
 0001:001ee83c       __acrt_locale_free_lc_time_if_unreferenced 00000001801ef83c f   libucrt:locale_refcounting.obj
 0001:001ee874       __acrt_locale_release_lc_time_reference 00000001801ef874 f   libucrt:locale_refcounting.obj
 0001:001ee89c       __acrt_release_locale_ref  00000001801ef89c f   libucrt:locale_refcounting.obj
 0001:001ee944       __acrt_update_thread_locale_data 00000001801ef944 f   libucrt:locale_refcounting.obj
 0001:001ee9b4       _updatetlocinfoEx_nolock   00000001801ef9b4 f   libucrt:locale_refcounting.obj
 0001:001eeaec       __acrt_fp_strflt_to_string 00000001801efaec f   libucrt:_fptostr.obj
 0001:001eec00       ?divide@__crt_strtox@@YA_KAEAUbig_integer@1@AEBU21@@Z 00000001801efc00 f i libucrt:cfout.obj
 0001:001ef08c       __acrt_fltout              00000001801f008c f   libucrt:cfout.obj
 0001:001f03a0       fegetround                 00000001801f13a0 f   libucrt:fegetround.obj
 0001:001f03b4       ?__c32rtomb_utf8@__crt_mbstring@@YA_KPEAD_UPEAU_Mbstatet@@AEAV__crt_cached_ptd_host@@@Z 00000001801f13b4 f   libucrt:c32rtomb.obj
 0001:001f0458       ?reset_and_return@__crt_mbstring@@YA_K_KPEAU_Mbstatet@@@Z 00000001801f1458 f   libucrt:common_utf8.obj
 0001:001f0460       ?return_illegal_sequence@__crt_mbstring@@YA_KPEAU_Mbstatet@@AEAV__crt_cached_ptd_host@@@Z 00000001801f1460 f   libucrt:common_utf8.obj
 0001:001f05f4       __acrt_stdio_flush_and_write_narrow_nolock 00000001801f15f4 f   libucrt:_flsbuf.obj
 0001:001f06c0       _isatty                    00000001801f16c0 f   libucrt:isatty.obj
 0001:001f0720       __acrt_locale_free_monetary 00000001801f1720 f   libucrt:initmon.obj
 0001:001f082c       __acrt_locale_free_numeric 00000001801f182c f   libucrt:initnum.obj
 0001:001f08cc       __acrt_locale_free_time    00000001801f18cc f   libucrt:inittime.obj
 0001:001f09d4       __acrt_GetStringTypeA      00000001801f19d4 f   libucrt:getstringtypea.obj
 0001:001f0b70       _raise_exc                 00000001801f1b70 f   libucrt:fpexcept.obj
 0001:001f0ba0       _raise_exc_ex              00000001801f1ba0 f   libucrt:fpexcept.obj
 0001:001f0eb0       _raise_excf                00000001801f1eb0 f   libucrt:fpexcept.obj
 0001:001f0ee0       _set_errno_from_matherr    00000001801f1ee0 f   libucrt:fpexcept.obj
 0001:001f0f20       _handle_nanf_fma           00000001801f1f20 f   libucrt:libm_error.obj
 0001:001f0f30       qsort                      00000001801f1f30 f   libucrt:qsort.obj
 0001:001f12c8       strncpy_s                  00000001801f22c8 f   libucrt:strncpy_s.obj
 0001:001f1430       strpbrk                    00000001801f2430 f   libucrt:strpbrk.obj
 0001:001f17e8       _mbsdec                    00000001801f27e8 f   libucrt:mbsdec.obj
 0001:001f17f0       _mbsdec_l                  00000001801f27f0 f   libucrt:mbsdec.obj
 0001:001f1bb8       __acrt_LCMapStringA        00000001801f2bb8 f   libucrt:lcmapstringa.obj
 0001:001f1c70       _msize_base                00000001801f2c70 f   libucrt:msize.obj
 0001:001f1cb0       _msize                     00000001801f2cb0 f   libucrt:msize.obj
 0001:001f1cc0       _realloc_base              00000001801f2cc0 f   libucrt:realloc_base.obj
 0001:001f1d3c       __ascii_wcsnicmp           00000001801f2d3c f   libucrt:wcsnicmp.obj
 0001:001f1e00       _close_internal            00000001801f2e00 f   libucrt:close.obj
 0001:001f1ec4       _close_nolock_internal     00000001801f2ec4 f   libucrt:close.obj
 0001:001f1f94       ?__acrt_stdio_free_stream@@YAXV__crt_stdio_stream@@@Z 00000001801f2f94 f   libucrt:stream.obj
 0001:001f2180       _lseeki64                  00000001801f3180 f   libucrt:lseek.obj
 0001:001f221c       _lseeki64_nolock_internal  00000001801f321c f   libucrt:lseek.obj
 0001:001f2224       _putwch_nolock             00000001801f3224 f   libucrt:putwch.obj
 0001:001f2264       _query_app_type            00000001801f3264 f   libucrt:report_runtime_error.obj
 0001:001f2270       _controlfp_s               00000001801f3270 f   libucrt:contrlfp.obj
 0001:001f22e0       fegetenv                   00000001801f32e0 f   libucrt:fegetenv.obj
 0001:001f2300       fesetenv                   00000001801f3300 f   libucrt:fesetenv.obj
 0001:001f2370       feholdexcept               00000001801f3370 f   libucrt:feholdexcept.obj
 0001:001f23d0       ceil                       00000001801f33d0 f   libucrt:ceil.obj
 0001:001f24a0       log10                      00000001801f34a0 f   libucrt:log10.obj
 0001:001f2a50       __acrt_fenv_get_common_round_control 00000001801f3a50 f   libucrt:_fenvutils.obj
 0001:001f2a60       __acrt_fenv_get_control    00000001801f3a60 f   libucrt:_fenvutils.obj
 0001:001f2b40       __acrt_fenv_get_status     00000001801f3b40 f   libucrt:_fenvutils.obj
 0001:001f2ba0       __acrt_fenv_set_control    00000001801f3ba0 f   libucrt:_fenvutils.obj
 0001:001f2cd0       __acrt_fenv_set_status     00000001801f3cd0 f   libucrt:_fenvutils.obj
 0001:001f2d44       __acrt_stdio_allocate_buffer_nolock 00000001801f3d44 f   libucrt:_getbuf.obj
 0001:001f2db0       _guard_check_icall         00000001801f3db0 f i libucrt:checkcfg.obj
 0001:001f2dc8       __strncnt                  00000001801f3dc8 f   libucrt:strncnt.obj
 0001:001f2de0       __dcrt_lowio_ensure_console_output_initialized 00000001801f3de0 f   libucrt:initcon.obj
 0001:001f2e34       __dcrt_terminate_console_output 00000001801f3e34 f   libucrt:initcon.obj
 0001:001f2e50       __dcrt_write_console       00000001801f3e50 f   libucrt:initcon.obj
 0001:001f2f10       _clearfp                   00000001801f3f10 f   libucrt:ieee.obj
 0001:001f2f6c       _control87                 00000001801f3f6c f   libucrt:ieee.obj
 0001:001f3210       ceil_sse41                 00000001801f4210 f   libucrt:floorceil_sse41.obj
 0001:001f3220       _log10_special             00000001801f4220 f   libucrt:log_special.obj
 0001:001f32e0       _FindPESection             00000001801f42e0 f   LIBCMT:pesect.obj
 0001:001f3330       _IsNonwritableInCurrentImage 00000001801f4330 f   LIBCMT:pesect.obj
 0001:001f3380       _ValidateImageBase         00000001801f4380 f   LIBCMT:pesect.obj
 0001:001f33ac       __GSHandlerCheck           00000001801f43ac f   LIBCMT:gshandler.obj
 0001:001f33cc       __GSHandlerCheckCommon     00000001801f43cc f   LIBCMT:gshandler.obj
 0001:001f3440       __security_check_cookie    00000001801f4440 f   LIBCMT:amdsecgs.obj
 0001:001f3460       __GSHandlerCheck_SEH       00000001801f4460 f   LIBCMT:gshandlerseh.obj
 0001:001f34e8       __GSHandlerCheck_EH        00000001801f44e8 f   LIBCMT:gshandlereh.obj
 0001:001f3568       __raise_securityfailure    00000001801f4568 f   LIBCMT:gs_report.obj
 0001:001f359c       __report_gsfailure         00000001801f459c f   LIBCMT:gs_report.obj
 0001:001f36e4       __C_specific_handler_noexcept 00000001801f46e4 f   libvcruntime:chandler_noexcept.obj
 0001:001f3730       strrchr                    00000001801f4730 f   libvcruntime:strrchr.obj
 0001:001f3880       _guard_dispatch_icall_nop  00000001801f4880 f   LIBCMT:guard_dispatch.obj
 0001:001f38a0       _guard_xfg_dispatch_icall_nop 00000001801f48a0 f   LIBCMT:guard_xfg_dispatch.obj
 0001:001f38c0       _guard_dispatch_icall      00000001801f48c0 f   libucrt:dispatchcfg.obj
 0001:001f38c0       _guard_dispatch_icall_$fo_default$ 00000001801f48c0     libucrt:dispatchcfg.obj
 0001:001f38f0       memcpy_repmovs             00000001801f48f0 f   libvcruntime:memcpy.obj
 0001:001f3900       memcpy                     00000001801f4900 f   libvcruntime:memcpy.obj
 0001:001f3900       memcpy_$fo_default$        00000001801f4900     libvcruntime:memcpy.obj
 0001:001f3900       memmove                    00000001801f4900 f   libvcruntime:memcpy.obj
 0001:001f3f90       memset_repstos             00000001801f4f90 f   libvcruntime:memset.obj
 0001:001f3fa0       memset                     00000001801f4fa0 f   libvcruntime:memset.obj
 0001:001f4340       strncmp                    00000001801f5340 f   libucrt:strncmp.obj
 0002:00000000       __imp_GetLastError         00000001801f6000     kernel32:KERNEL32.dll
 0002:00000008       __imp_FreeLibrary          00000001801f6008     kernel32:KERNEL32.dll
 0002:00000010       __imp_GetProcAddress       00000001801f6010     kernel32:KERNEL32.dll
 0002:00000018       __imp_LoadLibraryA         00000001801f6018     kernel32:KERNEL32.dll
 0002:00000020       __imp_RaiseException       00000001801f6020     kernel32:KERNEL32.dll
 0002:00000028       __imp_GetSystemInfo        00000001801f6028     kernel32:KERNEL32.dll
 0002:00000030       __imp_VirtualProtect       00000001801f6030     kernel32:KERNEL32.dll
 0002:00000038       __imp_VirtualQuery         00000001801f6038     kernel32:KERNEL32.dll
 0002:00000040       __imp_GetModuleHandleW     00000001801f6040     kernel32:KERNEL32.dll
 0002:00000048       __imp_LoadLibraryExA       00000001801f6048     kernel32:KERNEL32.dll
 0002:00000050       __imp_InitializeSListHead  00000001801f6050     kernel32:KERNEL32.dll
 0002:00000058       __imp_RtlCaptureContext    00000001801f6058     kernel32:KERNEL32.dll
 0002:00000060       __imp_RtlLookupFunctionEntry 00000001801f6060     kernel32:KERNEL32.dll
 0002:00000068       __imp_RtlVirtualUnwind     00000001801f6068     kernel32:KERNEL32.dll
 0002:00000070       __imp_IsDebuggerPresent    00000001801f6070     kernel32:KERNEL32.dll
 0002:00000078       __imp_UnhandledExceptionFilter 00000001801f6078     kernel32:KERNEL32.dll
 0002:00000080       __imp_SetUnhandledExceptionFilter 00000001801f6080     kernel32:KERNEL32.dll
 0002:00000088       __imp_GetStartupInfoW      00000001801f6088     kernel32:KERNEL32.dll
 0002:00000090       __imp_IsProcessorFeaturePresent 00000001801f6090     kernel32:KERNEL32.dll
 0002:00000098       __imp_QueryPerformanceCounter 00000001801f6098     kernel32:KERNEL32.dll
 0002:000000a0       __imp_GetCurrentProcessId  00000001801f60a0     kernel32:KERNEL32.dll
 0002:000000a8       __imp_GetCurrentThreadId   00000001801f60a8     kernel32:KERNEL32.dll
 0002:000000b0       __imp_GetSystemTimeAsFileTime 00000001801f60b0     kernel32:KERNEL32.dll
 0002:000000b8       __imp_InterlockedPushEntrySList 00000001801f60b8     kernel32:KERNEL32.dll
 0002:000000c0       __imp_InterlockedFlushSList 00000001801f60c0     kernel32:KERNEL32.dll
 0002:000000c8       __imp_RtlUnwindEx          00000001801f60c8     kernel32:KERNEL32.dll
 0002:000000d0       __imp_SetLastError         00000001801f60d0     kernel32:KERNEL32.dll
 0002:000000d8       __imp_EnterCriticalSection 00000001801f60d8     kernel32:KERNEL32.dll
 0002:000000e0       __imp_LeaveCriticalSection 00000001801f60e0     kernel32:KERNEL32.dll
 0002:000000e8       __imp_DeleteCriticalSection 00000001801f60e8     kernel32:KERNEL32.dll
 0002:000000f0       __imp_InitializeCriticalSectionAndSpinCount 00000001801f60f0     kernel32:KERNEL32.dll
 0002:000000f8       __imp_TlsAlloc             00000001801f60f8     kernel32:KERNEL32.dll
 0002:00000100       __imp_TlsGetValue          00000001801f6100     kernel32:KERNEL32.dll
 0002:00000108       __imp_TlsSetValue          00000001801f6108     kernel32:KERNEL32.dll
 0002:00000110       __imp_TlsFree              00000001801f6110     kernel32:KERNEL32.dll
 0002:00000118       __imp_LoadLibraryExW       00000001801f6118     kernel32:KERNEL32.dll
 0002:00000120       __imp_EncodePointer        00000001801f6120     kernel32:KERNEL32.dll
 0002:00000128       __imp_RtlPcToFileHeader    00000001801f6128     kernel32:KERNEL32.dll
 0002:00000130       __imp_GetCurrentProcess    00000001801f6130     kernel32:KERNEL32.dll
 0002:00000138       __imp_ExitProcess          00000001801f6138     kernel32:KERNEL32.dll
 0002:00000140       __imp_TerminateProcess     00000001801f6140     kernel32:KERNEL32.dll
 0002:00000148       __imp_GetModuleHandleExW   00000001801f6148     kernel32:KERNEL32.dll
 0002:00000150       __imp_GetModuleFileNameW   00000001801f6150     kernel32:KERNEL32.dll
 0002:00000158       __imp_HeapAlloc            00000001801f6158     kernel32:KERNEL32.dll
 0002:00000160       __imp_HeapFree             00000001801f6160     kernel32:KERNEL32.dll
 0002:00000168       __imp_FlsAlloc             00000001801f6168     kernel32:KERNEL32.dll
 0002:00000170       __imp_FlsGetValue          00000001801f6170     kernel32:KERNEL32.dll
 0002:00000178       __imp_FlsSetValue          00000001801f6178     kernel32:KERNEL32.dll
 0002:00000180       __imp_FlsFree              00000001801f6180     kernel32:KERNEL32.dll
 0002:00000188       __imp_InitializeCriticalSectionEx 00000001801f6188     kernel32:KERNEL32.dll
 0002:00000190       __imp_LCMapStringW         00000001801f6190     kernel32:KERNEL32.dll
 0002:00000198       __imp_GetStdHandle         00000001801f6198     kernel32:KERNEL32.dll
 0002:000001a0       __imp_GetFileType          00000001801f61a0     kernel32:KERNEL32.dll
 0002:000001a8       __imp_FindClose            00000001801f61a8     kernel32:KERNEL32.dll
 0002:000001b0       __imp_FindFirstFileExW     00000001801f61b0     kernel32:KERNEL32.dll
 0002:000001b8       __imp_FindNextFileW        00000001801f61b8     kernel32:KERNEL32.dll
 0002:000001c0       __imp_IsValidCodePage      00000001801f61c0     kernel32:KERNEL32.dll
 0002:000001c8       __imp_GetACP               00000001801f61c8     kernel32:KERNEL32.dll
 0002:000001d0       __imp_GetOEMCP             00000001801f61d0     kernel32:KERNEL32.dll
 0002:000001d8       __imp_GetCPInfo            00000001801f61d8     kernel32:KERNEL32.dll
 0002:000001e0       __imp_GetCommandLineA      00000001801f61e0     kernel32:KERNEL32.dll
 0002:000001e8       __imp_GetCommandLineW      00000001801f61e8     kernel32:KERNEL32.dll
 0002:000001f0       __imp_MultiByteToWideChar  00000001801f61f0     kernel32:KERNEL32.dll
 0002:000001f8       __imp_WideCharToMultiByte  00000001801f61f8     kernel32:KERNEL32.dll
 0002:00000200       __imp_GetEnvironmentStringsW 00000001801f6200     kernel32:KERNEL32.dll
 0002:00000208       __imp_FreeEnvironmentStringsW 00000001801f6208     kernel32:KERNEL32.dll
 0002:00000210       __imp_GetProcessHeap       00000001801f6210     kernel32:KERNEL32.dll
 0002:00000218       __imp_FlushFileBuffers     00000001801f6218     kernel32:KERNEL32.dll
 0002:00000220       __imp_WriteFile            00000001801f6220     kernel32:KERNEL32.dll
 0002:00000228       __imp_GetConsoleOutputCP   00000001801f6228     kernel32:KERNEL32.dll
 0002:00000230       __imp_GetConsoleMode       00000001801f6230     kernel32:KERNEL32.dll
 0002:00000238       __imp_SetStdHandle         00000001801f6238     kernel32:KERNEL32.dll
 0002:00000240       __imp_GetFileSizeEx        00000001801f6240     kernel32:KERNEL32.dll
 0002:00000248       __imp_SetFilePointerEx     00000001801f6248     kernel32:KERNEL32.dll
 0002:00000250       __imp_GetStringTypeW       00000001801f6250     kernel32:KERNEL32.dll
 0002:00000258       __imp_HeapSize             00000001801f6258     kernel32:KERNEL32.dll
 0002:00000260       __imp_HeapReAlloc          00000001801f6260     kernel32:KERNEL32.dll
 0002:00000268       __imp_CloseHandle          00000001801f6268     kernel32:KERNEL32.dll
 0002:00000270       __imp_CreateFileW          00000001801f6270     kernel32:KERNEL32.dll
 0002:00000278       __imp_WriteConsoleW        00000001801f6278     kernel32:KERNEL32.dll
 0002:00000280       \177KERNEL32_NULL_THUNK_DATA 00000001801f6280     kernel32:KERNEL32.dll
 0002:00000288       __guard_check_icall_fptr   00000001801f6288     LIBCMT:guard_support.obj
 0002:00000290       __guard_xfg_check_icall_fptr 00000001801f6290     LIBCMT:guard_support.obj
 0002:00000298       __guard_dispatch_icall_fptr 00000001801f6298     LIBCMT:guard_support.obj
 0002:000002a0       __guard_xfg_dispatch_icall_fptr 00000001801f62a0     LIBCMT:guard_support.obj
 0002:000002a8       __guard_xfg_table_dispatch_icall_fptr 00000001801f62a8     LIBCMT:guard_support.obj
 0002:000002b0       __castguard_check_failure_os_handled_fptr 00000001801f62b0     LIBCMT:guard_support.obj
 0002:000002b8       __guard_memcpy_fptr        00000001801f62b8     libvcruntime:softmemtag.obj
 0002:000002c0       __xc_a                     00000001801f62c0     LIBCMT:initializers.obj
 0002:00001db8       __xc_z                     00000001801f7db8     LIBCMT:initializers.obj
 0002:00001dc0       __xi_a                     00000001801f7dc0     LIBCMT:initializers.obj
 0002:00001dc8       __acrt_stdio_initializer   00000001801f7dc8     libucrt:stdio_initializer.obj
 0002:00001dd0       __acrt_tran_fma3_initializer 00000001801f7dd0     libucrt:fma3_initializer.obj
 0002:00001dd8       __acrt_multibyte_initializer 00000001801f7dd8     libucrt:multibyte_initializer.obj
 0002:00001de0       __xi_z                     00000001801f7de0     LIBCMT:initializers.obj
 0002:00001de8       __xp_a                     00000001801f7de8     LIBCMT:initializers.obj
 0002:00001df0       __acrt_locale_terminator   00000001801f7df0     libucrt:locale_initializer.obj
 0002:00001df8       __dcrt_console_output_terminator 00000001801f7df8     libucrt:console_output_initializer.obj
 0002:00001e00       __acrt_stdio_terminator    00000001801f7e00     libucrt:stdio_initializer.obj
 0002:00001e08       __xp_z                     00000001801f7e08     LIBCMT:initializers.obj
 0002:00001e10       __xt_a                     00000001801f7e10     LIBCMT:initializers.obj
 0002:00001e18       __xt_z                     00000001801f7e18     LIBCMT:initializers.obj
 0002:00001e20       ??_7PxCollection@physx@@6B@ 00000001801f7e20     CmCollection.obj
 0002:00001ea0       ??_C@_00CNPNBAHC@@         00000001801f7ea0     CmCollection.obj
 0002:00001ea8       ??_7Collection@Cm@physx@@6B@ 00000001801f7ea8     CmCollection.obj
 0002:00001f30       ??_C@_0GE@GBACBMOC@PxCollection?3?3add?5called?5for?5an@ 00000001801f7f30     CmCollection.obj
 0002:00001fa0       ??_C@_0EL@KLBJPKFO@C?3?2Dev?2Tool?2PhysX?9main?2PhysX?9ma@ 00000001801f7fa0     CmCollection.obj
 0002:00001ff0       ??_C@_0EM@OMMGDOMK@PxCollection?3?3add?5called?5with?5a@ 00000001801f7ff0     CmCollection.obj
 0002:00002040       ??_C@_0EN@OHJALLIH@C?3?2Dev?2Tool?2PhysX?9main?2PhysX?9ma@ 00000001801f8040     CmCollection.obj
 0002:00002090       ??_C@_0BM@OIFKLHDN@?$DMallocation?5names?5disabled?$DO@ 00000001801f8090     CmCollection.obj
 0002:000020b0       ??_7RadixSort@Cm@physx@@6B@ 00000001801f80b0     CmRadixSort.obj
 0002:000020b8       ??_7RadixSortBuffered@Cm@physx@@6B@ 00000001801f80b8     CmRadixSort.obj
 0002:000020c0       ??_C@_0EK@BAFHGFBO@C?3?2Dev?2Tool?2PhysX?9main?2PhysX?9ma@ 00000001801f80c0     CmRadixSort.obj
 0002:00002110       __xmm@00000001000000010000000100000001 00000001801f8110     CmRadixSort.obj
 0002:00002120       __xmm@00000003000000020000000100000000 00000001801f8120     CmRadixSort.obj
 0002:00002130       __real@3d4ccccd            00000001801f8130     CmVisualization.obj
 0002:00002134       __real@3e19999a            00000001801f8134     CmVisualization.obj
 0002:00002138       __real@3e490fdb            00000001801f8138     CmVisualization.obj
 0002:0000213c       __real@3e800000            00000001801f813c     CmVisualization.obj
 0002:00002140       __real@3e99999a            00000001801f8140     CmVisualization.obj
 0002:00002144       __real@3ea0d97c            00000001801f8144     CmVisualization.obj
 0002:00002148       __real@3eddb3d7            00000001801f8148     CmVisualization.obj
 0002:0000214c       __real@3f3504f3            00000001801f814c     CmVisualization.obj
 0002:00002150       __real@3f800000            00000001801f8150     CmVisualization.obj
 0002:00002154       __real@3fc00000            00000001801f8154     CmVisualization.obj
 0002:00002158       __real@3fddb3d7            00000001801f8158     CmVisualization.obj
 0002:0000215c       __real@40100000            00000001801f815c     CmVisualization.obj
 0002:00002160       __real@40c90fdb            00000001801f8160     CmVisualization.obj
 0002:00002164       __real@c0000000            00000001801f8164     CmVisualization.obj
 0002:00002170       __xmm@3f800000000000000000000000000000 00000001801f8170     CmVisualization.obj
 0002:00002180       __xmm@7fffffff7fffffff7fffffff7fffffff 00000001801f8180     CmVisualization.obj
 0002:00002190       __xmm@80000000800000008000000080000000 00000001801f8190     CmVisualization.obj
 0002:000021a0       ??_C@_0BB@CPDDPFKD@GetUpdatedModule@ 00000001801f81a0     CmWindowsModuleUpdateLoader.obj
 0002:000021c0       ??_C@_0GC@GILKDAMN@C?3?2Dev?2Tool?2PhysX?9main?2PhysX?9ma@ 00000001801f81c0     CmWindowsModuleUpdateLoader.obj
 0002:00002228       ??_C@_0CP@PGOIOJOO@?$CFs?3?$CFi?3?5loadLibrary?5error?5when?5l@ 00000001801f8228     CmWindowsModuleUpdateLoader.obj
 0002:00002258       ??_C@_0BA@EGLNOO@PhysXFoundation@ 00000001801f8258     CmWindowsDelayLoadHook.obj
 0002:00002268       ??_C@_0M@ILKNCJKN@PhysXCommon@ 00000001801f8268     CmWindowsDelayLoadHook.obj
 0002:000022a0       __real@3f000000            00000001801f82a0     GuBox.obj
 0002:000022a4       __real@3f7ff972            00000001801f82a4     GuBox.obj
 0002:000022b0       __xmm@000000003a83126f3a83126f3a83126f 00000001801f82b0     GuBox.obj
 0002:000022c0       __xmm@00000000ba83126fba83126fba83126f 00000001801f82c0     GuBox.obj
 0002:000022d0       __xmm@3a83126f3a83126f3a83126f3a83126f 00000001801f82d0     GuBox.obj
 0002:000022e0       __xmm@ba83126fba83126fba83126fba83126f 00000001801f82e0     GuBox.obj
 0002:00002310       ??_7EntityReport@Gu@physx@@6B@ 00000001801f8310     GuSweepsHF.obj
 0002:00002310       ??_7OverlapCallback@PxBVH@physx@@6B@ 00000001801f8310     GuQuerySystem.obj
 0002:00002310       ??_7OverlapReport@Gu@physx@@6B@ 00000001801f8310     GuCCTSweepTests.obj
 0002:00002310       ??_7RaycastCallback@PxBVH@physx@@6B@ 00000001801f8310     GuQuerySystem.obj
 0002:00002310       ??_7RemapCallback@RTreeCooker@physx@@6B@ 00000001801f8310     GuCookingTriangleMesh.obj
 0002:00002330       __real@3b03126f            00000001801f8330     GuCCTSweepTests.obj
 0002:00002334       __real@40000000            00000001801f8334     GuCCTSweepTests.obj
 0002:00002370       ??_7SupportLocal@Gu@physx@@6B@ 00000001801f8370     GuGeometryQuery.obj
 0002:00002390       ??_7?$SupportLocalImpl@VBoxV@Gu@physx@@@Gu@physx@@6B@ 00000001801f8390     GuGeometryQuery.obj
 0002:000023b0       ??_7?$SupportLocalImpl@VConvexHullV@Gu@physx@@@Gu@physx@@6B@ 00000001801f83b0     GuGeometryQuery.obj
 0002:000023d0       ??_C@_0EF@MCLCPMPF@C?3?2Dev?2Tool?2PhysX?9main?2PhysX?9ma@ 00000001801f83d0     GuGeometryQuery.obj
 0002:00002418       __real@30d1b7e9            00000001801f8418     GuGeometryQuery.obj
 0002:0000241c       __real@322bcc77            00000001801f841c     GuGeometryQuery.obj
 0002:00002420       __real@358637bd            00000001801f8420     GuGeometryQuery.obj
 0002:00002424       __real@3a83126f            00000001801f8424     GuGeometryQuery.obj
 0002:00002428       __real@3ccccccd            00000001801f8428     GuGeometryQuery.obj
 0002:0000242c       __real@3dcccccd            00000001801f842c     GuGeometryQuery.obj
 0002:00002430       __real@49742400            00000001801f8430     GuGeometryQuery.obj
 0002:00002434       __real@7f7fffff            00000001801f8434     GuGeometryQuery.obj
 0002:00002438       __real@bf800000            00000001801f8438     GuGeometryQuery.obj
 0002:00002440       __xmm@0000000000000000000000003f800000 00000001801f8440     GuGeometryQuery.obj
 0002:00002450       __xmm@00000000000000003f80000000000000 00000001801f8450     GuGeometryQuery.obj
 0002:00002460       __xmm@00000000000000003f8000003f800000 00000001801f8460     GuGeometryQuery.obj
 0002:00002470       __xmm@000000003f8000000000000000000000 00000001801f8470     GuGeometryQuery.obj
 0002:00002480       __xmm@000000003f8000003f8000003f800000 00000001801f8480     GuGeometryQuery.obj
 0002:00002490       __xmm@00000000ffffffffffffffffffffffff 00000001801f8490     GuGeometryQuery.obj
 0002:000024a0       __xmm@3d4ccccd3d4ccccd3d4ccccd3d4ccccd 00000001801f84a0     GuGeometryQuery.obj
 0002:000024b0       __xmm@3e19999a3e19999a3e19999a3e19999a 00000001801f84b0     GuGeometryQuery.obj
 0002:000024c0       __xmm@3e4ccccd3e4ccccd3e4ccccd3e4ccccd 00000001801f84c0     GuGeometryQuery.obj
 0002:000024d0       __xmm@3e8000003e8000003e8000003e800000 00000001801f84d0     GuGeometryQuery.obj
 0002:000024e0       __xmm@3f7ef9db3f7ef9db3f7ef9db3f7ef9db 00000001801f84e0     GuGeometryQuery.obj
 0002:000024f0       __xmm@3f7ff2e53f7ff2e53f7ff2e53f7ff2e5 00000001801f84f0     GuGeometryQuery.obj
 0002:00002500       __xmm@3f8000003f8000003f8000003f800000 00000001801f8500     GuGeometryQuery.obj
 0002:00002510       __xmm@7f7fffff7f7fffff7f7fffff7f7fffff 00000001801f8510     GuGeometryQuery.obj
 0002:00002520       __xmm@bf000000bf000000bf000000bf000000 00000001801f8520     GuGeometryQuery.obj
 0002:00002570       ??_C@_0EP@KKAHIBMK@C?3?2Dev?2Tool?2PhysX?9main?2PhysX?9ma@ 00000001801f8570     GuMeshFactory.obj
 0002:000025c0       ??_7CallbackRaycast@RTree@Gu@physx@@6B@ 00000001801f85c0     GuMidphaseRTree.obj
 0002:000025c0       ??_7CallbackRefit@RTree@Gu@physx@@6B@ 00000001801f85c0     GuTriangleMeshRTree.obj
 0002:000025c0       ??_7PxInsertionCallback@physx@@6B@ 00000001801f85c0     GuMeshFactory.obj
 0002:000025e0       ??_C@_0EM@BDFDGBD@Inserting?5object?5failed?3?5Object@ 00000001801f85e0     GuMeshFactory.obj
 0002:00002630       ??_7PxCollisionMeshMappingData@physx@@6B@ 00000001801f8630     GuMeshFactory.obj
 0002:00002640       ??_7MeshFactory@Gu@physx@@6B@ 00000001801f8640     GuMeshFactory.obj
 0002:00002648       ??_7MeshDataBase@Gu@physx@@6B@ 00000001801f8648     GuMeshFactory.obj
 0002:00002650       ??_C@_0EP@EENBIPEN@C?3?2Dev?2Tool?2PhysX?9main?2PhysX?9ma@ 00000001801f8650     GuMeshFactory.obj
 0002:000026a0       ??_7TriangleMeshData@Gu@physx@@6B@ 00000001801f86a0     GuMeshFactory.obj
 0002:000026a8       ??_7RTreeTriangleData@Gu@physx@@6B@ 00000001801f86a8     GuMeshFactory.obj
 0002:000026b0       ??_7BV4TriangleData@Gu@physx@@6B@ 00000001801f86b0     GuMeshFactory.obj
 0002:000026b8       ??_7DeformableVolumeCollisionData@Gu@physx@@6B@ 00000001801f86b8     GuMeshFactory.obj
 0002:000026c0       ??_7CollisionMeshMappingData@Gu@physx@@6B@ 00000001801f86c0     GuMeshFactory.obj
 0002:000026d0       ??_7DeformableVolumeSimulationData@Gu@physx@@6B@ 00000001801f86d0     GuMeshFactory.obj
 0002:000026e0       ??_C@_0GP@NHELMDAL@Loading?5triangle?5mesh?5failed?3?5D@ 00000001801f86e0     GuMeshFactory.obj
 0002:00002750       ??_C@_0BP@CDOKDACA@RTree?5binary?5image?5load?5error?4@ 00000001801f8750     GuMeshFactory.obj
 0002:00002770       ??_C@_0BN@MJPNIELF@BV4?5binary?5image?5load?5error?4@ 00000001801f8770     GuMeshFactory.obj
 0002:00002790       ??_C@_0BO@JDPABAOF@BV32?5binary?5image?5load?5error?4@ 00000001801f8790     GuMeshFactory.obj
 0002:000027b0       ??_C@_0EF@MLNPPFIM@C?3?2Dev?2Tool?2PhysX?9main?2PhysX?9ma@ 00000001801f87b0     GuMeshFactory.obj
 0002:00002800       __xmm@fe7fffff7e7fffff7e7fffff7e7fffff 00000001801f8800     GuMeshFactory.obj
 0002:00002810       ??_7?$SupportLocalImpl@VConvexHullNoScaleV@Gu@physx@@@Gu@physx@@6B@ 00000001801f8810     GuMTD.obj
 0002:00002850       ?absMask@?1??FAbs@aos@physx@@YA?AT__m128@@T4@@Z@4QBIB 00000001801f8850     GuMTD.obj
 0002:00002860       ??_7GjkConvex@Gu@physx@@6B@ 00000001801f8860     GuMTD.obj
 0002:00002890       ??_7?$LocalConvex@VCapsuleV@Gu@physx@@@Gu@physx@@6B@ 00000001801f8890     GuMTD.obj
 0002:000028c0       ??_7?$LocalConvex@VConvexHullV@Gu@physx@@@Gu@physx@@6B@ 00000001801f88c0     GuMTD.obj
 0002:000028f0       __real@2edbe6ff            00000001801f88f0     GuMTD.obj
 0002:000028f4       __real@34000000            00000001801f88f4     GuMTD.obj
 0002:000028f8       __real@ff7fffff            00000001801f88f8     GuMTD.obj
 0002:00002900       __xmm@28800000288000002880000028800000 00000001801f8900     GuMTD.obj
 0002:00002910       __xmm@34000000340000003400000034000000 00000001801f8910     GuMTD.obj
 0002:00002920       __xmm@358637bd358637bd358637bd358637bd 00000001801f8920     GuMTD.obj
 0002:00002930       __xmm@3dcccccd3dcccccd3dcccccd3dcccccd 00000001801f8930     GuMTD.obj
 0002:00002940       __xmm@3f7ff1413f7ff1413f7ff1413f7ff141 00000001801f8940     GuMTD.obj
 0002:00002970       ??_7?$RelativeConvex@VBoxV@Gu@physx@@@Gu@physx@@6B@ 00000001801f8970     GuOverlapTests.obj
 0002:000029a0       ??_7?$RelativeConvex@VConvexHullV@Gu@physx@@@Gu@physx@@6B@ 00000001801f89a0     GuOverlapTests.obj
 0002:000029d0       __real@3727c5ac            00000001801f89d0     GuOverlapTests.obj
 0002:000029d4       __real@3c23d70a            00000001801f89d4     GuOverlapTests.obj
 0002:000029d8       __real@bf000000            00000001801f89d8     GuOverlapTests.obj
 0002:000029e0       ??_7Support@PxGjkQuery@physx@@6B@ 00000001801f89e0     GuRaycastTests.obj
 0002:00002a48       __real@1e3ce508            00000001801f8a48     GuRaycastTests.obj
 0002:00002a4c       __real@28800000            00000001801f8a4c     GuRaycastTests.obj
 0002:00002a50       __real@33d6bf95            00000001801f8a50     GuRaycastTests.obj
 0002:00002a54       __real@38d1b717            00000001801f8a54     GuRaycastTests.obj
 0002:00002a58       __real@3f0147ae            00000001801f8a58     GuRaycastTests.obj
 0002:00002a5c       __real@3f7ffffe            00000001801f8a5c     GuRaycastTests.obj
 0002:00002a60       __real@3f800347            00000001801f8a60     GuRaycastTests.obj
 0002:00002a64       __real@41200000            00000001801f8a64     GuRaycastTests.obj
 0002:00002a68       __real@80000000            00000001801f8a68     GuRaycastTests.obj
 0002:00002a6c       __real@b3d6bf95            00000001801f8a6c     GuRaycastTests.obj
 0002:00002a70       __real@b8d1b717            00000001801f8a70     GuRaycastTests.obj
 0002:00002a74       __real@c1200000            00000001801f8a74     GuRaycastTests.obj
 0002:00002ab0       ??_7?$MeshHitCallback@UPxGeomRaycastHit@physx@@@Gu@physx@@6B@ 00000001801f8ab0     GuSweepMTD.obj
 0002:00002ac0       ??_7MeshMTDGenerationCallback@@6B@ 00000001801f8ac0     GuSweepMTD.obj
 0002:00002ad0       ??_7MidPhaseQueryLocalReport@@6B@ 00000001801f8ad0     GuSweepMTD.obj
 0002:00002ae0       __real@3f8147ae            00000001801f8ae0     GuSweepMTD.obj
 0002:00002ae4       __real@3f933333            00000001801f8ae4     GuSweepMTD.obj
 0002:00002b10       __real@42c80000            00000001801f8b10     GuSweepSharedTests.obj
 0002:00002b20       __xmm@ffffffffffffffffffffffffffffffff 00000001801f8b20     GuSweepSharedTests.obj
 0002:00002ba0       ??_7?$LocalConvex@VBoxV@Gu@physx@@@Gu@physx@@6B@ 00000001801f8ba0     GuSweepTests.obj
 0002:00002bd0       ??_7?$LocalConvex@VTriangleV@Gu@physx@@@Gu@physx@@6B@ 00000001801f8bd0     GuSweepTests.obj
 0002:00002c00       __real@00000000            00000001801f8c00     GuSweepTests.obj
 0002:00002c10       __xmm@00000002000000020000000200000002 00000001801f8c10     GuSweepTests.obj
 0002:00002c20       __xmm@3eaaaa9f3eaaaa9f3eaaaa9f3eaaaa9f 00000001801f8c20     GuSweepTests.obj
 0002:00002cd8       ??_7PxRunnable@physx@@6B@  00000001801f8cd8     GuSDF.obj
 0002:00002cf0       ??_C@_0EH@KMGOIDEE@C?3?2Dev?2Tool?2PhysX?9main?2PhysX?9ma@ 00000001801f8cf0     GuSDF.obj
 0002:00002d38       ??_7PointOntoTriangleMeshProjector@Gu@physx@@6B@ 00000001801f8d38     GuSDF.obj
 0002:00002d50       ??_7?$PxThreadT@V?$PxReflectionAllocator@VPxThreadImpl@physx@@@physx@@@physx@@6B@ 00000001801f8d50     GuSDF.obj
 0002:00002d60       ??_C@_06FJHNOCKE@thread@   00000001801f8d60     GuSDF.obj
 0002:00002d70       ??_C@_0BAK@OPLLKLNG@SDF?5creation?3?5Mesh?5is?5not?5suita@ 00000001801f8d70     GuSDF.obj
 0002:00002e80       ??_C@_0FB@OMEANACP@SDF?5creation?3?5Input?5mesh?5is?5not@ 00000001801f8e80     GuSDF.obj
 0002:00002ee0       ??_C@_0EC@LILMFABM@No?5distance?5data?5available?5?$CInul@ 00000001801f8ee0     GuSDF.obj
 0002:00002f30       ??_C@_0EF@PBPCGDDJ@No?5sparse?5grid?5data?5available?5?$CI@ 00000001801f8f30     GuSDF.obj
 0002:00002f80       ??_C@_0EG@CAKCKIGD@C?3?2Dev?2Tool?2PhysX?9main?2PhysX?9ma@ 00000001801f8f80     GuSDF.obj
 0002:00002fd0       ??_C@_0EE@MBHEFAGP@C?3?2Dev?2Tool?2PhysX?9main?2PhysX?9ma@ 00000001801f8fd0     GuSDF.obj
 0002:00003020       ??_C@_0EN@FKNEIIG@C?3?2Dev?2Tool?2PhysX?9main?2PhysX?9ma@ 00000001801f9020     GuSDF.obj
 0002:00003070       __real@37800080            00000001801f9070     GuSDF.obj
 0002:00003074       __real@3b808081            00000001801f9074     GuSDF.obj
 0002:00003078       __real@3e2aaaab            00000001801f9078     GuSDF.obj
 0002:0000307c       __real@3eaaaaab            00000001801f907c     GuSDF.obj
 0002:00003080       __real@3f7d70a4            00000001801f9080     GuSDF.obj
 0002:00003084       __real@7e7fffff            00000001801f9084     GuSDF.obj
 0002:00003088       __real@fe7fffff            00000001801f9088     GuSDF.obj
 0002:00003090       __xmm@00000001000000010000000100000000 00000001801f9090     GuSDF.obj
 0002:000030c0       ??_7?$RelativeConvex@UCustomConvexV@@@Gu@physx@@6B@ 00000001801f90c0     GuGjkQuery.obj
 0002:000030f0       ??_7?$LocalConvex@UCustomConvexV@@@Gu@physx@@6B@ 00000001801f90f0     GuGjkQuery.obj
 0002:00003120       ??_7?$LocalConvex@UPointConvexV@@@Gu@physx@@6B@ 00000001801f9120     GuGjkQuery.obj
 0002:00003170       __real@3da2f983            00000001801f9170     GuWindingNumber.obj
 0002:00003174       __real@3e22f983            00000001801f9174     GuWindingNumber.obj
 0002:00003178       __real@3f99999a            00000001801f9178     GuWindingNumber.obj
 0002:000031a0       __real@38aaaaab            00000001801f91a0     GuConvexGeometry.obj
 0002:000031a4       __real@3d000000            00000001801f91a4     GuConvexGeometry.obj
 0002:000031a8       __real@3daaaaab            00000001801f91a8     GuConvexGeometry.obj
 0002:000031ac       __real@3ecccccd            00000001801f91ac     GuConvexGeometry.obj
 0002:000031b0       __real@3fc90fdb            00000001801f91b0     GuConvexGeometry.obj
 0002:000031b4       __real@40400000            00000001801f91b4     GuConvexGeometry.obj
 0002:000031b8       __real@40490fdb            00000001801f91b8     GuConvexGeometry.obj
 0002:000031bc       __real@40860a92            00000001801f91bc     GuConvexGeometry.obj
 0002:000031c0       __xmm@3f800000bf8000003f8000003f800000 00000001801f91c0     GuConvexGeometry.obj
 0002:000031d0       __xmm@bf8000003f800000bf800000bf800000 00000001801f91d0     GuConvexGeometry.obj
 0002:00003260       __real@3c343958            00000001801f9260     GuCCDSweepConvexMesh.obj
 0002:00003264       __real@3ca3d70a            00000001801f9264     GuCCDSweepConvexMesh.obj
 0002:00003268       __real@3f0ccccd            00000001801f9268     GuCCDSweepConvexMesh.obj
 0002:0000326c       __real@3f8ccccd            00000001801f926c     GuCCDSweepConvexMesh.obj
 0002:00003270       __real@b58637bd            00000001801f9270     GuCCDSweepConvexMesh.obj
 0002:000032a0       ??_7?$RelativeConvex@VCapsuleV@Gu@physx@@@Gu@physx@@6B@ 00000001801f92a0     GuCCDSweepPrimitives.obj
 0002:000032d0       ??_7?$RelativeConvex@VTriangleV@Gu@physx@@@Gu@physx@@6B@ 00000001801f92d0     GuCCDSweepPrimitives.obj
 0002:00003300       __real@3ba3d70a            00000001801f9300     GuCCDSweepPrimitives.obj
 0002:00003304       __real@501502f9            00000001801f9304     GuCCDSweepPrimitives.obj
 0002:00003330       ??_C@_0FG@GPOCKOHH@C?3?2Dev?2Tool?2PhysX?9main?2PhysX?9ma@ 00000001801f9330     GuAdjacencies.obj
 0002:00003388       ??_C@_0DA@FMEHLBKI@Adjacencies?3?3UpdateLink?3?5invali@ 00000001801f9388     GuAdjacencies.obj
 0002:000033c0       ??_C@_0EA@CPHOACLK@Adjacencies?3?3CreateDatabase?3?5ca@ 00000001801f93c0     GuAdjacencies.obj
 0002:00003400       ??_C@_0FD@FCIPNCFE@C?3?2Dev?2Tool?2PhysX?9main?2PhysX?9ma@ 00000001801f9400     GuEdgeList.obj
 0002:00003458       ??_C@_0CO@GBNJFPN@EdgeList?3?3CreateFacesToEdges?3?5N@ 00000001801f9458     GuEdgeList.obj
 0002:00003488       ??_C@_0CO@EHJBBMNK@EdgeList?3?3ComputeActiveEdges?3?5N@ 00000001801f9488     GuEdgeList.obj
 0002:000034b8       ??_C@_0DI@GBHLFOFP@ActiveEdges?3?3ComputeConvexEdges@ 00000001801f94b8     GuEdgeList.obj
 0002:000034f0       ??_C@_0DM@JOGBLHDI@ActiveEdges?3?3ComputeConvexEdges@ 00000001801f94f0     GuEdgeList.obj
 0002:00003530       ??_C@_0ED@FEMJKPEL@ActiveEdges?3?3ComputeConvexEdges@ 00000001801f9530     GuEdgeList.obj
 0002:00003580       ??_C@_0EB@BFDPMFCD@ActiveEdges?3?3ComputeConvexEdges@ 00000001801f9580     GuEdgeList.obj
 0002:000035c4       __real@bf7fbe77            00000001801f95c4     GuEdgeList.obj
 0002:000035c8       ??_7Quantizer@Gu@physx@@6B@ 00000001801f95c8     GuQuantizer.obj
 0002:000035f0       ??_7QuantizerImpl@@6B@     00000001801f95f0     GuQuantizer.obj
 0002:00003620       ??_C@_0FE@KFLJGPNN@C?3?2Dev?2Tool?2PhysX?9main?2PhysX?9ma@ 00000001801f9620     GuQuantizer.obj
 0002:00003674       __real@3f0020c5            00000001801f9674     GuQuantizer.obj
 0002:00003678       __real@3f8020c5            00000001801f9678     GuQuantizer.obj
 0002:00003680       ??_C@_0FG@EKLJIDCD@C?3?2Dev?2Tool?2PhysX?9main?2PhysX?9ma@ 00000001801f9680     GuMeshCleaner.obj
 0002:000036d8       __real@40800000            00000001801f96d8     GuMeshCleaner.obj
 0002:000036e0       ??_C@_0FI@BMNHLPOI@C?3?2Dev?2Tool?2PhysX?9main?2PhysX?9ma@ 00000001801f96e0     GuVertexReducer.obj
 0002:00003830       __real@3f7fbe77            00000001801f9830     GuContactBoxBox.obj
 0002:00003880       __real@3f7ff2e5            00000001801f9880     GuContactCapsuleCapsule.obj
 0002:00003910       __real@358637be            00000001801f9910     GuContactCapsuleMesh.obj
 0002:00003914       __real@ba83126f            00000001801f9914     GuContactCapsuleMesh.obj
 0002:00003970       ??_7ConvexMeshContactGenerationCallback@@6B@ 00000001801f9970     GuContactConvexMesh.obj
 0002:000039e0       __real@2edbe6fe            00000001801f99e0     GuContactConvexCoreMesh.obj
 0002:000039e4       __real@3e0f5c29            00000001801f99e4     GuContactConvexCoreMesh.obj
 0002:000039e8       __real@3f7fff58            00000001801f99e8     GuContactConvexCoreMesh.obj
 0002:000039ec       __real@b727c5ac            00000001801f99ec     GuContactConvexCoreMesh.obj
 0002:000039f0       __real@bf7d70a4            00000001801f99f0     GuContactConvexCoreMesh.obj
 0002:00003aa0       ??_C@_0EG@GEIGOBKP@C?3?2Dev?2Tool?2PhysX?9main?2PhysX?9ma@ 00000001801f9aa0     GuContactPlaneMesh.obj
 0002:00003b10       __real@3ec90fdb            00000001801f9b10     GuContactPolygonPolygon.obj
 0002:00003b14       __real@3f490fdb            00000001801f9b14     GuContactPolygonPolygon.obj
 0002:00003b18       __real@3f96cbe4            00000001801f9b18     GuContactPolygonPolygon.obj
 0002:00003b1c       __real@3ffb53d2            00000001801f9b1c     GuContactPolygonPolygon.obj
 0002:00003b20       __real@4016cbe4            00000001801f9b20     GuContactPolygonPolygon.obj
 0002:00003b24       __real@402feddf            00000001801f9b24     GuContactPolygonPolygon.obj
 0002:00003b50       __real@3b800000            00000001801f9b50     GuContactMeshMesh.obj
 0002:00003b54       __real@3ed64e4c            00000001801f9b54     GuContactMeshMesh.obj
 0002:00003b58       __real@3f12648a            00000001801f9b58     GuContactMeshMesh.obj
 0002:00003b5c       __real@3f349e9b            00000001801f9b5c     GuContactMeshMesh.obj
 0002:00003b60       __real@3f4ccccd            00000001801f9b60     GuContactMeshMesh.obj
 0002:00003b64       __real@3f59999a            00000001801f9b64     GuContactMeshMesh.obj
 0002:00003b68       __real@3f7fdf3b            00000001801f9b68     GuContactMeshMesh.obj
 0002:00003bd0       ??_C@_0FI@EOFENLMM@C?3?2Dev?2Tool?2PhysX?9main?2PhysX?9ma@ 00000001801f9bd0     GuBigConvexData.obj
 0002:00003c50       ??_C@_06EJKDJEDO@PxBase@   00000001801f9c50     GuConvexMesh.obj
 0002:00003c58       ??_C@_0N@CDGINLLF@PxConvexMesh@ 00000001801f9c58     GuConvexMesh.obj
 0002:00003c68       ??_7PxBase@physx@@6B@      00000001801f9c68     GuConvexMesh.obj
 0002:00003c90       ??_C@_0CE@IDAGNPDH@isKindOf?5called?5with?5invalid?5st@ 00000001801f9c90     GuConvexMesh.obj
 0002:00003cb8       ??_C@_0N@OPPDBGAG@PxRefCounted@ 00000001801f9cb8     GuConvexMesh.obj
 0002:00003cd0       ??_C@_0EI@JCAGABEP@C?3?2Dev?2Tool?2PhysX?9main?2PhysX?9ma@ 00000001801f9cd0     GuConvexMesh.obj
 0002:00003d18       ??_7ConvexMesh@Gu@physx@@6B@ 00000001801f9d18     GuConvexMesh.obj
 0002:00003db0       ??_C@_0FF@CHPLJGHK@C?3?2Dev?2Tool?2PhysX?9main?2PhysX?9ma@ 00000001801f9db0     GuConvexMesh.obj
 0002:00003e08       ??_C@_0DM@NEJKOFIP@Loading?5convex?5mesh?5failed?3?5Dep@ 00000001801f9e08     GuConvexMesh.obj
 0002:00003e48       ??_C@_0DB@PAHEPIEL@PxConvexMesh?3?3release?3?5double?5d@ 00000001801f9e48     GuConvexMesh.obj
 0002:00003e80       ??_C@_0EN@BDAOPIAN@C?3?2Dev?2Tool?2PhysX?9main?2PhysX?9ma@ 00000001801f9e80     GuConvexMesh.obj
 0002:00003ef0       __xmm@000000000000000000000000ffffffff 00000001801f9ef0     GuConvexSupportTable.obj
 0002:00003f00       __xmm@0000000000000000ffffffff00000000 00000001801f9f00     GuConvexSupportTable.obj
 0002:00003f10       __xmm@0000000000000000ffffffffffffffff 00000001801f9f10     GuConvexSupportTable.obj
 0002:00003f20       __xmm@00000000ffffffff0000000000000000 00000001801f9f20     GuConvexSupportTable.obj
 0002:00003f30       __xmm@00000000ffffffff00000000ffffffff 00000001801f9f30     GuConvexSupportTable.obj
 0002:00003f40       __xmm@00000000ffffffffffffffff00000000 00000001801f9f40     GuConvexSupportTable.obj
 0002:00003fd0       __xmm@2b8cbccc2b8cbccc2b8cbccc2b8cbccc 00000001801f9fd0     GuDistancePointTriangle.obj
 0002:00004020       __xmm@3f0000003f0000003f0000003f000000 00000001801fa020     GuDistanceSegmentSegment.obj
 0002:00004050       __real@2b8cbccc            00000001801fa050     GuDistanceSegmentTriangle.obj
 0002:00004060       __xmm@3f8000013f8000013f8000013f800001 00000001801fa060     GuDistanceSegmentTriangle.obj
 0002:00004070       __xmm@b4000000b4000000b4000000b4000000 00000001801fa070     GuDistanceSegmentTriangle.obj
 0002:000040a0       __real@26901d7d            00000001801fa0a0     GuDistanceTriangleTriangle.obj
 0002:00004120       __xmm@38d1b71738d1b71738d1b71738d1b717 00000001801fa120     GuGJKSimplex.obj
 0002:00004150       ??_C@_0O@PBAKPCEC@PxHeightField@ 00000001801fa150     GuHeightField.obj
 0002:00004160       ??_C@_0EJ@MODBEAL@C?3?2Dev?2Tool?2PhysX?9main?2PhysX?9ma@ 00000001801fa160     GuHeightField.obj
 0002:000041b0       ??_7HeightField@Gu@physx@@6B@ 00000001801fa1b0     GuHeightField.obj
 0002:00004268       ??_C@_0DC@BDMMBOKH@PxHeightField?3?3release?3?5double?5@ 00000001801fa268     GuHeightField.obj
 0002:000042a0       ??_C@_0FC@HEIMLCKA@C?3?2Dev?2Tool?2PhysX?9main?2PhysX?9ma@ 00000001801fa2a0     GuHeightField.obj
 0002:000042f8       ??_C@_0CI@DMKEKGNK@Gu?3?3HeightField?3?3load?3?5PX_ALLOC@ 00000001801fa2f8     GuHeightField.obj
 0002:00004340       __real@3a03126f            00000001801fa340     GuHeightFieldUtil.obj
 0002:00004344       __real@3f19999a            00000001801fa344     GuHeightFieldUtil.obj
 0002:00004350       __xmm@40000000000000000000000000000000 00000001801fa350     GuHeightFieldUtil.obj
 0002:000043e0       ??_7HeightFieldTraceSegmentReport@@6B@ 00000001801fa3e0     GuSweepsHF.obj
 0002:000043f0       ??_7CapsuleTraceSegmentReport@@6B@ 00000001801fa3f0     GuSweepsHF.obj
 0002:00004400       ??_7ConvexTraceSegmentReport@@6B@ 00000001801fa400     GuSweepsHF.obj
 0002:00004410       ??_7BoxTraceSegmentReport@@6B@ 00000001801fa410     GuSweepsHF.obj
 0002:00004420       __real@aedbe6ff            00000001801fa420     GuSweepsHF.obj
 0002:00004450       __real@3089705f            00000001801fa450     GuIntersectionRayBox.obj
 0002:00004454       __real@b4000000            00000001801fa454     GuIntersectionRayBox.obj
 0002:00004460       __xmm@000000003089705f3089705f3089705f 00000001801fa460     GuIntersectionRayBox.obj
 0002:00004470       __xmm@00000000bf800000bf800000bf800000 00000001801fa470     GuIntersectionRayBox.obj
 0002:000044c0       ??_7SourceMeshBase@Gu@physx@@6B@ 00000001801fa4c0     GuBV4.obj
 0002:000044e8       ??_7SourceMesh@Gu@physx@@6B@ 00000001801fa4e8     GuBV4.obj
 0002:00004510       ??_7TetrahedronSourceMesh@Gu@physx@@6B@ 00000001801fa510     GuBV4.obj
 0002:00004540       ??_C@_0EM@FDOKBNMG@C?3?2Dev?2Tool?2PhysX?9main?2PhysX?9ma@ 00000001801fa540     GuBV4.obj
 0002:00004590       __xmm@ff7fffffff7fffffff7fffffff7fffff 00000001801fa590     GuBV4.obj
 0002:000045c0       ??_C@_0FB@JJIHFPAF@C?3?2Dev?2Tool?2PhysX?9main?2PhysX?9ma@ 00000001801fa5c0     GuBV4Build.obj
 0002:00004614       __real@38000100            00000001801fa614     GuBV4Build.obj
 0002:00004618       __real@3e93cd3a            00000001801fa618     GuBV4Build.obj
 0002:0000461c       __real@46fffe00            00000001801fa61c     GuBV4Build.obj
 0002:00004620       __real@be93cd3a            00000001801fa620     GuBV4Build.obj
 0002:00004650       __xmm@0000ffff0000ffff0000ffff0000ffff 00000001801fa650     GuBV4_AABBSweep.obj
 0002:00004660       __xmm@3089705f3089705f3089705f3089705f 00000001801fa660     GuBV4_AABBSweep.obj
 0002:00004670       __xmm@33d6bf9533d6bf9533d6bf9533d6bf95 00000001801fa670     GuBV4_AABBSweep.obj
 0002:00004680       __xmm@40000000400000004000000040000000 00000001801fa680     GuBV4_AABBSweep.obj
 0002:00004710       __xmm@322bcc77322bcc77322bcc77322bcc77 00000001801fa710     GuBV4_MeshMeshOverlap.obj
 0002:00004780       __real@4f7fffff            00000001801fa780     GuBV4_SphereOverlap.obj
 0002:000047d0       __xmm@000000007f7fffff0000000000000000 00000001801fa7d0     GuMidphaseBV4.obj
 0002:00004840       ??_C@_0FD@EHCCILIF@Adjacency?5information?5not?5creat@ 00000001801fa840     GuMeshQuery.obj
 0002:000048a0       ??_C@_0FC@HHGEEKML@C?3?2Dev?2Tool?2PhysX?9main?2PhysX?9ma@ 00000001801fa8a0     GuMeshQuery.obj
 0002:00004900       ??_C@_0FL@BKNMAHIA@PxMeshQuery?3?3findOverlapTriangl@ 00000001801fa900     GuMeshQuery.obj
 0002:0000495c       __real@4cbebc20            00000001801fa95c     GuMeshQuery.obj
 0002:00004980       ??_7Callback@RTree@Gu@physx@@6B@ 00000001801fa980     GuMidphaseRTree.obj
 0002:00004998       ??_7?$RayRTreeCallback@$00$0A@@@6BCallbackRaycast@RTree@Gu@physx@@@ 00000001801fa998     GuMidphaseRTree.obj
 0002:00004998       ??_7?$RayRTreeCallback@$0A@$0A@@@6BCallbackRaycast@RTree@Gu@physx@@@ 00000001801fa998     GuMidphaseRTree.obj
 0002:000049a8       ??_7?$RayRTreeCallback@$00$0A@@@6BCallback@RTree@Gu@physx@@@ 00000001801fa9a8     GuMidphaseRTree.obj
 0002:000049a8       ??_7?$RayRTreeCallback@$0A@$0A@@@6BCallback@RTree@Gu@physx@@@ 00000001801fa9a8     GuMidphaseRTree.obj
 0002:000049c0       ??_7RayMeshColliderCallback@@6B@ 00000001801fa9c0     GuMidphaseRTree.obj
 0002:000049d0       ??_C@_0EN@DPPFLBLF@Point?9mesh?5distance?5query?5not?5s@ 00000001801fa9d0     GuMidphaseRTree.obj
 0002:00004a20       ??_C@_0FG@CLDKEAAF@C?3?2Dev?2Tool?2PhysX?9main?2PhysX?9ma@ 00000001801faa20     GuMidphaseRTree.obj
 0002:00004a78       ??_7?$RayRTreeCallback@$0A@$00@@6BCallbackRaycast@RTree@Gu@physx@@@ 00000001801faa78     GuMidphaseRTree.obj
 0002:00004a88       ??_7?$RayRTreeCallback@$0A@$00@@6BCallback@RTree@Gu@physx@@@ 00000001801faa88     GuMidphaseRTree.obj
 0002:00004aa0       ??_7?$RayRTreeCallback@$00$00@@6BCallbackRaycast@RTree@Gu@physx@@@ 00000001801faaa0     GuMidphaseRTree.obj
 0002:00004ab0       ??_7?$RayRTreeCallback@$00$00@@6BCallback@RTree@Gu@physx@@@ 00000001801faab0     GuMidphaseRTree.obj
 0002:00004b30       __xmm@7f7fffff000000000000000000000000 00000001801fab30     GuMidphaseRTree.obj
 0002:00004ba0       ??_7PxReportCallbackBase@physx@@6B@ 00000001801faba0     GuOverlapTestsMesh.obj
 0002:00004bd0       ??_C@_0EP@CEFGCJKJ@PxGeometryQuery?3?3overlap?$CI?$CJ?3?5onl@ 00000001801fabd0     GuOverlapTestsMesh.obj
 0002:00004c20       ??_C@_0FJ@KOELFJE@C?3?2Dev?2Tool?2PhysX?9main?2PhysX?9ma@ 00000001801fac20     GuOverlapTestsMesh.obj
 0002:00004ca0       ?MN@RTreePage@Gu@physx@@2MB 00000001801faca0     GuRTree.obj
 0002:00004ca4       ?MX@RTreePage@Gu@physx@@2MB 00000001801faca4     GuRTree.obj
 0002:00004cb0       ??_C@_0EO@DGBIHHBM@C?3?2Dev?2Tool?2PhysX?9main?2PhysX?9ma@ 00000001801facb0     GuRTree.obj
 0002:00004d70       ??_7SweepShapeMeshHitCallback@Gu@physx@@6B@ 00000001801fad70     GuSweepsMesh.obj
 0002:00004d80       ??_7SweepCapsuleMeshHitCallback@Gu@physx@@6B@ 00000001801fad80     GuSweepsMesh.obj
 0002:00004d90       ??_7SweepBoxMeshHitCallback@Gu@physx@@6B@ 00000001801fad90     GuSweepsMesh.obj
 0002:00004da0       ??_7SweepConvexMeshHitCallback@Gu@physx@@6B@ 00000001801fada0     GuSweepsMesh.obj
 0002:00004dd0       ??_C@_0P@GGNFNHKF@PxTriangleMesh@ 00000001801fadd0     GuTriangleMesh.obj
 0002:00004de0       ??_C@_0EK@HAIGKIDM@C?3?2Dev?2Tool?2PhysX?9main?2PhysX?9ma@ 00000001801fade0     GuTriangleMesh.obj
 0002:00004e30       ??_7TriangleMesh@Gu@physx@@6B@ 00000001801fae30     GuTriangleMesh.obj
 0002:00004f08       ??_C@_0DD@LOOPMCGG@PxTriangleMesh?3?3release?3?5double@ 00000001801faf08     GuTriangleMesh.obj
 0002:00004f40       ??_C@_0FH@PMPAJDGI@PxTriangleMesh?3?3getVerticesForM@ 00000001801faf40     GuTriangleMesh.obj
 0002:00004fa0       ??_C@_0FF@BJKLDJJL@C?3?2Dev?2Tool?2PhysX?9main?2PhysX?9ma@ 00000001801fafa0     GuTriangleMesh.obj
 0002:00005000       ??_C@_0EF@GMNFLDH@PxTriangleMesh?3?3refitBVH?$CI?$CJ?5is?5n@ 00000001801fb000     GuTriangleMesh.obj
 0002:00005050       __xmm@38383838383838383838383838383838 00000001801fb050     GuTriangleMesh.obj
 0002:00005080       ??_C@_0BE@CNJKIINO@PxBVH34TriangleMesh@ 00000001801fb080     GuTriangleMeshBV4.obj
 0002:00005098       ??_7BV4TriangleMesh@Gu@physx@@6B@ 00000001801fb098     GuTriangleMeshBV4.obj
 0002:00005170       ??_C@_0EF@JLFNNPLP@BVH34?5trees?3?5refit?5operation?5on@ 00000001801fb170     GuTriangleMeshBV4.obj
 0002:000051c0       ??_C@_0FI@ICGOOPEI@C?3?2Dev?2Tool?2PhysX?9main?2PhysX?9ma@ 00000001801fb1c0     GuTriangleMeshBV4.obj
 0002:00005218       __real@3951b717            00000001801fb218     GuTriangleMeshBV4.obj
 0002:00005240       ??_C@_0BE@EIFHCCBO@PxBVH33TriangleMesh@ 00000001801fb240     GuTriangleMeshRTree.obj
 0002:00005258       ??_7RTreeTriangleMesh@Gu@physx@@6B@ 00000001801fb258     GuTriangleMeshRTree.obj
 0002:00005330       ??_7?$RefitCallback@G@physx@@6B@ 00000001801fb330     GuTriangleMeshRTree.obj
 0002:00005340       ??_7?$RefitCallback@I@physx@@6B@ 00000001801fb340     GuTriangleMeshRTree.obj
 0002:00005370       ??_C@_0EN@OBHGMIJ@C?3?2Dev?2Tool?2PhysX?9main?2PhysX?9ma@ 00000001801fb370     GuBV32.obj
 0002:000053e0       ??_C@_0FC@CCKOJEPO@C?3?2Dev?2Tool?2PhysX?9main?2PhysX?9ma@ 00000001801fb3e0     GuBV32Build.obj
 0002:00005460       ??_C@_0BC@FDAIDHBP@PxTetrahedronMesh@ 00000001801fb460     GuTetrahedronMesh.obj
 0002:00005480       ??_C@_0EN@IKCBIMFK@C?3?2Dev?2Tool?2PhysX?9main?2PhysX?9ma@ 00000001801fb480     GuTetrahedronMesh.obj
 0002:000054d0       ??_C@_0BK@EPBIEMIB@PxDeformableVolumeAuxData@ 00000001801fb4d0     GuTetrahedronMesh.obj
 0002:000054f0       ??_C@_0BH@OHONILPI@PxDeformableVolumeMesh@ 00000001801fb4f0     GuTetrahedronMesh.obj
 0002:00005508       ??_7DeformableVolumeAuxData@Gu@physx@@6B@ 00000001801fb508     GuTetrahedronMesh.obj
 0002:00005550       ??_7TetrahedronMesh@Gu@physx@@6B@ 00000001801fb550     GuTetrahedronMesh.obj
 0002:000055c8       ??_7BVTetrahedronMesh@Gu@physx@@6B@ 00000001801fb5c8     GuTetrahedronMesh.obj
 0002:00005640       ??_7DeformableVolumeMesh@Gu@physx@@6B@ 00000001801fb640     GuTetrahedronMesh.obj
 0002:000056c0       ??_C@_0DG@JJNMDPMD@PxTetrahedronMesh?3?3release?3?5dou@ 00000001801fb6c0     GuTetrahedronMesh.obj
 0002:000056f8       ??_C@_0DL@IHNCIOFH@PxDeformableVolumeMesh?3?3release@ 00000001801fb6f8     GuTetrahedronMesh.obj
 0002:00005740       ??_C@_0FI@GACNAFNM@C?3?2Dev?2Tool?2PhysX?9main?2PhysX?9ma@ 00000001801fb740     GuTetrahedronMesh.obj
 0002:000057e0       __xmm@00000000358637bd358637bd358637bd 00000001801fb7e0     GuPCMContactBoxBox.obj
 0002:000057f0       __xmm@3f4ccccd3f4ccccd3f4ccccd3f4ccccd 00000001801fb7f0     GuPCMContactBoxBox.obj
 0002:00005800       __xmm@3f8003473f8003473f8003473f800347 00000001801fb800     GuPCMContactBoxBox.obj
 0002:00005810       __xmm@ffffffff00000000ffffffffffffffff 00000001801fb810     GuPCMContactBoxBox.obj
 0002:00005840       ??_7?$LocalConvex@VConvexHullNoScaleV@Gu@physx@@@Gu@physx@@6B@ 00000001801fb840     GuPCMContactBoxConvex.obj
 0002:00005870       __xmm@3f3504f33f3504f33f3504f33f3504f3 00000001801fb870     GuPCMContactBoxConvex.obj
 0002:000058c0       __xmm@ffffffffffffffffffffffff00000000 00000001801fb8c0     GuPCMContactCapsuleCapsule.obj
 0002:000058f0       __xmm@3fa000003fa000003fa000003fa00000 00000001801fb8f0     GuPCMContactCapsuleConvex.obj
 0002:00005920       ??_7PCMCapsuleVsHeightfieldContactGenerationCallback@@6B@ 00000001801fb920     GuPCMContactCapsuleHeightField.obj
 0002:00005930       __real@3f7f3b64            00000001801fb930     GuPCMContactCapsuleHeightField.obj
 0002:00005980       __xmm@3f7ff9723f7ff9723f7ff9723f7ff972 00000001801fb980     GuPCMContactCapsuleMesh.obj
 0002:00005990       __xmm@3f7fffef3f7fffef3f7fffef3f7fffef 00000001801fb990     GuPCMContactCapsuleMesh.obj
 0002:000059a0       __xmm@60ad78ec60ad78ec60ad78ec60ad78ec 00000001801fb9a0     GuPCMContactCapsuleMesh.obj
 0002:000059d0       ??_7?$SupportLocalImpl@VTriangleV@Gu@physx@@@Gu@physx@@6B@ 00000001801fb9d0     GuPCMContactConvexCommon.obj
 0002:000059f0       __xmm@3cf5c2803cf5c2803cf5c2803cf5c280 00000001801fb9f0     GuPCMContactConvexCommon.obj
 0002:00005a00       __xmm@3f7851ec3f7851ec3f7851ec3f7851ec 00000001801fba00     GuPCMContactConvexCommon.obj
 0002:00005a30       ??_7?$RelativeConvex@VConvexHullNoScaleV@Gu@physx@@@Gu@physx@@6B@ 00000001801fba30     GuPCMContactConvexConvex.obj
 0002:00005a90       __xmm@3f19999a3f19999a3f19999a3f19999a 00000001801fba90     GuPCMContactConvexHeightField.obj
 0002:00005b00       __xmm@3f34fdf43f34fdf43f34fdf43f34fdf4 00000001801fbb00     GuPCMContactGenBoxConvex.obj
 0002:00005b30       __xmm@3f80a3d73f80a3d73f80a3d73f80a3d7 00000001801fbb30     GuPCMContactGenSphereCapsule.obj
 0002:00005b40       __xmm@bba3d70abba3d70abba3d70abba3d70a 00000001801fbb40     GuPCMContactGenSphereCapsule.obj
 0002:00005b70       __xmm@3f7ffd613f7ffd613f7ffd613f7ffd61 00000001801fbb70     GuPCMContactPlaneBox.obj
 0002:00005ba0       __real@3b23d70b            00000001801fbba0     GuPCMContactPlaneCapsule.obj
 0002:00005bb0       __xmm@3ca3d70a3ca3d70a3ca3d70a3ca3d70a 00000001801fbbb0     GuPCMContactPlaneCapsule.obj
 0002:00005be0       __xmm@3a03126f3a03126f3a03126f3a03126f 00000001801fbbe0     GuPCMContactPlaneConvex.obj
 0002:00005d00       __xmm@3727c5ac3727c5ac3727c5ac3727c5ac 00000001801fbd00     GuPCMContactSphereSphere.obj
 0002:00005d30       __xmm@3f7f06f73f7f06f73f7f06f73f7f06f7 00000001801fbd30     GuPCMContactCustomGeometry.obj
 0002:00005d40       ?gPCMBoxPolygonData@Gu@physx@@3QBEB 00000001801fbd40     GuPCMShapeConvex.obj
 0002:00005dc0       ?invalidateThresholds@Gu@physx@@3QBMB 00000001801fbdc0     GuPersistentContactManifold.obj
 0002:00005dd8       ?invalidateQuatThresholds@Gu@physx@@3QBMB 00000001801fbdd8     GuPersistentContactManifold.obj
 0002:00005df0       ?invalidateThresholds2@Gu@physx@@3QBMB 00000001801fbdf0     GuPersistentContactManifold.obj
 0002:00005e00       ?invalidateQuatThresholds2@Gu@physx@@3QBMB 00000001801fbe00     GuPersistentContactManifold.obj
 0002:00005e10       __xmm@00000000340000003400000034000000 00000001801fbe10     GuPersistentContactManifold.obj
 0002:00005e20       __xmm@000000003f8000003f80000000000000 00000001801fbe20     GuPersistentContactManifold.obj
 0002:00005e30       __xmm@00000000bf8000003f80000000000000 00000001801fbe30     GuPersistentContactManifold.obj
 0002:00005e40       __xmm@ffffffffffffffff00000000ffffffff 00000001801fbe40     GuPersistentContactManifold.obj
 0002:00005e70       __xmm@c1200000c1200000c1200000c1200000 00000001801fbe70     GuPCMContactGenUtil.obj
 0002:00005fc0       ??_C@_0CH@DHJGKCPD@Gu?3?3computeBounds?3?5Unknown?5shap@ 00000001801fbfc0     GuBounds.obj
 0002:00005ff0       ??_C@_0EK@LNJOALHA@C?3?2Dev?2Tool?2PhysX?9main?2PhysX?9ma@ 00000001801fbff0     GuBounds.obj
 0002:0000603c       __real@34800000            00000001801fc03c     GuBounds.obj
 0002:00006040       __real@3f7fffef            00000001801fc040     GuBounds.obj
 0002:00006050       __xmm@3f800000800000008000000080000000 00000001801fc050     GuBounds.obj
 0002:00006060       __xmm@3f8147ae3f8147ae3f8147ae3f8147ae 00000001801fc060     GuBounds.obj
 0002:00006090       ??_C@_0EM@GMJIFOKG@C?3?2Dev?2Tool?2PhysX?9main?2PhysX?9ma@ 00000001801fc090     GuAABBTree.obj
 0002:000060e0       __xmm@5a60b17f5a60b17f5a60b17f5a60b17f 00000001801fc0e0     GuAABBTree.obj
 0002:000060f0       __xmm@da60b17fda60b17fda60b17fda60b17f 00000001801fc0f0     GuAABBTree.obj
 0002:00006160       ??_C@_0FH@GNMLFAB@C?3?2Dev?2Tool?2PhysX?9main?2PhysX?9ma@ 00000001801fc160     GuIncrementalAABBTree.obj
 0002:000061c0       ??_C@_0EE@PNEBGGLB@C?3?2Dev?2Tool?2PhysX?9main?2PhysX?9ma@ 00000001801fc1c0     GuIncrementalAABBTree.obj
 0002:00006210       ??_C@_0EH@MEFMMNJD@C?3?2Dev?2Tool?2PhysX?9main?2PhysX?9ma@ 00000001801fc210     GuSAH.obj
 0002:00006280       ??_7PxBVH@physx@@6B@       00000001801fc280     GuBVH.obj
 0002:000062f8       ??_C@_05OKJNPKBM@PxBVH@    00000001801fc2f8     GuBVH.obj
 0002:00006300       ??_C@_0EB@BIMMNMBJ@C?3?2Dev?2Tool?2PhysX?9main?2PhysX?9ma@ 00000001801fc300     GuBVH.obj
 0002:00006348       ??_7RefCountable@Cm@physx@@6B@ 00000001801fc348     GuBVH.obj
 0002:00006358       ??_7BVH@Gu@physx@@6BPxBVH@2@@ 00000001801fc358     GuBVH.obj
 0002:000063d0       ??_7BVH@Gu@physx@@6BRefCountable@Cm@2@@ 00000001801fc3d0     GuBVH.obj
 0002:000063e0       ??_C@_0EH@NGDEFOGG@C?3?2Dev?2Tool?2PhysX?9main?2PhysX?9ma@ 00000001801fc3e0     GuBVH.obj
 0002:00006428       ??_C@_0CK@HAIOEINI@PxBVH?3?3release?3?5double?5deletion@ 00000001801fc428     GuBVH.obj
 0002:00006480       ??_C@_0FN@LENNGFMN@C?3?2Dev?2Tool?2PhysX?9main?2PhysX?9ma@ 00000001801fc480     GuIncrementalAABBPrunerCore.obj
 0002:000064e0       __real@3f80a3d7            00000001801fc4e0     GuIncrementalAABBPrunerCore.obj
 0002:00006510       ??_7BasePruner@Gu@physx@@6B@ 00000001801fc510     GuIncrementalAABBPruner.obj
 0002:00006528       ??_7IncrementalAABBPruner@Gu@physx@@6B@ 00000001801fc528     GuIncrementalAABBPruner.obj
 0002:000065b0       ??_C@_0FJ@NDKEDFPL@C?3?2Dev?2Tool?2PhysX?9main?2PhysX?9ma@ 00000001801fc5b0     GuIncrementalAABBPruner.obj
 0002:00006630       ??_C@_0EP@LIJHFEIP@C?3?2Dev?2Tool?2PhysX?9main?2PhysX?9ma@ 00000001801fc630     GuPruningPool.obj
 0002:000066c0       ??_7BucketPruner@Gu@physx@@6B@ 00000001801fc6c0     GuBucketPruner.obj
 0002:00006750       ??_C@_0FA@EBBMLELP@C?3?2Dev?2Tool?2PhysX?9main?2PhysX?9ma@ 00000001801fc750     GuBucketPruner.obj
 0002:000067a0       __real@bf13cd3a            00000001801fc7a0     GuBucketPruner.obj
 0002:000067b0       __xmm@000000007e7fffff7e7fffff7e7fffff 00000001801fc7b0     GuBucketPruner.obj
 0002:000067c0       __xmm@00000000fe7ffffffe7ffffffe7fffff 00000001801fc7c0     GuBucketPruner.obj
 0002:000067d0       __xmm@3f13cd3a3f13cd3a3f13cd3a3f13cd3a 00000001801fc7d0     GuBucketPruner.obj
 0002:000067e0       __xmm@bf13cd3abf13cd3abf13cd3a3f13cd3a 00000001801fc7e0     GuBucketPruner.obj
 0002:000067f0       __xmm@bf8000003f8000003f800000bf800000 00000001801fc7f0     GuBucketPruner.obj
 0002:00006800       __xmm@bf8000003f800000bf8000003f800000 00000001801fc800     GuBucketPruner.obj
 0002:00006810       __xmm@bf800000bf8000003f8000003f800000 00000001801fc810     GuBucketPruner.obj
 0002:00006820       __xmm@bf800000bf800000bf8000003f800000 00000001801fc820     GuBucketPruner.obj
 0002:00006830       ?mIndices@MaverickNode@Gu@physx@@2QBIB 00000001801fc830     GuMaverickNode.obj
 0002:00006890       ??_C@_0FI@DEGHMGDB@C?3?2Dev?2Tool?2PhysX?9main?2PhysX?9ma@ 00000001801fc890     GuExtendedBucketPruner.obj
 0002:00006910       ??_7CompanionPruner@Gu@physx@@6B@ 00000001801fc910     GuSecondaryPruner.obj
 0002:00006990       ??_7CompanionPrunerBucket@@6B@ 00000001801fc990     GuSecondaryPruner.obj
 0002:00006a10       ??_7CompanionPrunerIncremental@@6B@ 00000001801fca10     GuSecondaryPruner.obj
 0002:00006a90       ??_7CompanionPrunerAABBTree@@6B@ 00000001801fca90     GuSecondaryPruner.obj
 0002:00006b10       ??_C@_0FD@JLNPKHPH@C?3?2Dev?2Tool?2PhysX?9main?2PhysX?9ma@ 00000001801fcb10     GuSecondaryPruner.obj
 0002:00006b90       ??_7AABBPruner@Gu@physx@@6B@ 00000001801fcb90     GuAABBPruner.obj
 0002:00006c30       ??_C@_0LA@IHBEIKND@SceneQuery?5static?5AABB?5Tree?5reb@ 00000001801fcc30     GuAABBPruner.obj
 0002:00006ce0       ??_C@_0EO@FDKEOGB@C?3?2Dev?2Tool?2PhysX?9main?2PhysX?9ma@ 00000001801fcce0     GuAABBPruner.obj
 0002:00006d30       ??_C@_0FB@JLDAAFNG@C?3?2Dev?2Tool?2PhysX?9main?2PhysX?9ma@ 00000001801fcd30     GuActorShapeMap.obj
 0002:00006db0       ??_C@_0BF@DNABLJAF@Invalid?5pruner?5index@ 00000001801fcdb0     GuQuerySystem.obj
 0002:00006dd0       ??_C@_0EP@OGPBKMAF@C?3?2Dev?2Tool?2PhysX?9main?2PhysX?9ma@ 00000001801fcdd0     GuQuerySystem.obj
 0002:00006e70       ??_C@_0EL@DFPAPENM@C?3?2Dev?2Tool?2PhysX?9main?2PhysX?9ma@ 00000001801fce70     GuFactory.obj
 0002:00006ed0       ?reductionFactors@SubSortQuick@physx@@2QBMB 00000001801fced0     GuRTreeCooking.obj
 0002:00006ee0       ?stopAtTrisPerLeaf1@SubSortQuick@physx@@2QBIB 00000001801fcee0     GuRTreeCooking.obj
 0002:00006fa0       ??_C@_0FI@NCLDIMME@C?3?2Dev?2Tool?2PhysX?9main?2PhysX?9ma@ 00000001801fcfa0     GuRTreeCooking.obj
 0002:00006ff8       __real@41100000            00000001801fcff8     GuRTreeCooking.obj
 0002:00006ffc       __real@41700000            00000001801fcffc     GuRTreeCooking.obj
 0002:00007000       __real@42200000            00000001801fd000     GuRTreeCooking.obj
 0002:00007010       __xmm@00000004000000030000000200000001 00000001801fd010     GuRTreeCooking.obj
 0002:00007040       ??_C@_0FG@ONELDJHF@C?3?2Dev?2Tool?2PhysX?9main?2PhysX?9ma@ 00000001801fd040     GuCookingBVH.obj
 0002:00007098       ??_C@_0DL@JHPKHGFA@Cooking?3?3cookBVH?3?5user?9provided@ 00000001801fd098     GuCookingBVH.obj
 0002:000070d8       ??_C@_0DN@PLNPGFEB@Cooking?3?3createBVH?3?5user?9provid@ 00000001801fd0d8     GuCookingBVH.obj
 0002:00007120       ??_C@_0EL@JCJBAPHL@Cooking?3?3cookHeightField?3?5user?9@ 00000001801fd120     GuCookingHF.obj
 0002:00007170       ??_C@_0FF@GFHFGGEN@C?3?2Dev?2Tool?2PhysX?9main?2PhysX?9ma@ 00000001801fd170     GuCookingHF.obj
 0002:000071d0       ??_C@_0EN@FCEPCAFC@Cooking?3?3createHeightField?3?5use@ 00000001801fd1d0     GuCookingHF.obj
 0002:00007220       ??_C@_0EK@EKAIJEBL@Cooking?3?3cookConvexMesh?3?5user?9p@ 00000001801fd220     GuCookingConvexMesh.obj
 0002:00007270       ??_C@_0FA@GFFGAPML@Cooking?3?3cookConvexMesh?3?5provid@ 00000001801fd270     GuCookingConvexMesh.obj
 0002:000072c0       ??_C@_0EP@PKDCPNNO@Cooking?3?3cookConvexMesh?3?5provid@ 00000001801fd2c0     GuCookingConvexMesh.obj
 0002:00007310       ??_C@_0EO@LKFMMDE@Cooking?3?3cookConvexMesh?3?5user?9p@ 00000001801fd310     GuCookingConvexMesh.obj
 0002:00007360       ??_C@_0EL@KJEPJALG@Cooking?3?3cookConvexMesh?3?5user?9p@ 00000001801fd360     GuCookingConvexMesh.obj
 0002:000073b0       ??_C@_0FM@LHMEBKMM@Cooking?3?3cookConvexMesh?3?5GPU?9co@ 00000001801fd3b0     GuCookingConvexMesh.obj
 0002:00007410       ??_C@_0FJ@FHCFFABE@Cooking?3?3cookConvexMesh?3?5GPU?9co@ 00000001801fd410     GuCookingConvexMesh.obj
 0002:00007470       ??_C@_0LM@CHONPBFM@Cooking?3?3cookConvexMesh?3?5GPU?9co@ 00000001801fd470     GuCookingConvexMesh.obj
 0002:00007530       ??_C@_0FN@KKBIBNNA@C?3?2Dev?2Tool?2PhysX?9main?2PhysX?9ma@ 00000001801fd530     GuCookingConvexMesh.obj
 0002:000075b0       ??_7TriangleMeshBuilder@physx@@6B@ 00000001801fd5b0     GuCookingTriangleMesh.obj
 0002:000075d8       ??_7RTreeTriangleMeshBuilder@physx@@6B@ 00000001801fd5d8     GuCookingTriangleMesh.obj
 0002:00007600       ??_7BV4TriangleMeshBuilder@physx@@6B@ 00000001801fd600     GuCookingTriangleMesh.obj
 0002:00007630       ??_C@_0FP@JHMLHAPI@C?3?2Dev?2Tool?2PhysX?9main?2PhysX?9ma@ 00000001801fd630     GuCookingTriangleMesh.obj
 0002:00007690       ??_C@_0EM@DBPINPE@TriangleMeshBuilder?3?3cleanMesh?3@ 00000001801fd690     GuCookingTriangleMesh.obj
 0002:000076e0       ??_C@_0EF@MLNDPEDJ@TriangleMeshBuilder?3?3cleanMesh?3@ 00000001801fd6e0     GuCookingTriangleMesh.obj
 0002:00007730       ??_C@_0FJ@HHJLKGDF@TriangleMesh?3?5triangles?5are?5too@ 00000001801fd730     GuCookingTriangleMesh.obj
 0002:00007790       ??_C@_0CN@KGPHHHLK@TriangleMesh?3?5mesh?5is?5too?5big?5f@ 00000001801fd790     GuCookingTriangleMesh.obj
 0002:000077c0       ??_C@_0DD@CMJGDCNN@TriangleMesh?3?3loadFromDesc?3?5des@ 00000001801fd7c0     GuCookingTriangleMesh.obj
 0002:00007800       ??_C@_0ED@ILJJNHIP@TriangleMesh?3?3loadFromDesc?3?5mPa@ 00000001801fd800     GuCookingTriangleMesh.obj
 0002:00007850       ??_C@_0EP@FHJBNFFH@Requesting?5SDF?5for?5mesh?5without@ 00000001801fd850     GuCookingTriangleMesh.obj
 0002:000078a0       ??_C@_0BK@JIDHMMCE@BV4?5tree?5failed?5to?5build?4@ 00000001801fd8a0     GuCookingTriangleMesh.obj
 0002:000078c0       ??_C@_0BL@DHNECNBE@BV32?5tree?5failed?5to?5build?4@ 00000001801fd8c0     GuCookingTriangleMesh.obj
 0002:000078e0       ??_7RTreeCookerRemap@@6B@  00000001801fd8e0     GuCookingTriangleMesh.obj
 0002:000078f0       ??_C@_0FC@PJIHAFK@Cooking?3?3validateTriangleMesh?3?5@ 00000001801fd8f0     GuCookingTriangleMesh.obj
 0002:000079d0       ??_7PxCollisionTetrahedronMeshData@physx@@6B@ 00000001801fd9d0     GuCookingTetrahedronMesh.obj
 0002:00007a00       ??_7PxSimulationTetrahedronMeshData@physx@@6B@ 00000001801fda00     GuCookingTetrahedronMesh.obj
 0002:00007a20       ??_7CollisionTetrahedronMeshData@Gu@physx@@6B@ 00000001801fda20     GuCookingTetrahedronMesh.obj
 0002:00007a50       ??_7SimulationTetrahedronMeshData@Gu@physx@@6B@ 00000001801fda50     GuCookingTetrahedronMesh.obj
 0002:00007a70       ??_C@_0GC@EGLFOFDP@C?3?2Dev?2Tool?2PhysX?9main?2PhysX?9ma@ 00000001801fda70     GuCookingTetrahedronMesh.obj
 0002:00007ad8       ??_7?$LocalConvex@VTetrahedronV@Gu@physx@@@Gu@physx@@6B@ 00000001801fdad8     GuCookingTetrahedronMesh.obj
 0002:00007b08       ??_C@_0CD@OJGNHLOE@BV4_AABBTree?5tree?5failed?5to?5bui@ 00000001801fdb08     GuCookingTetrahedronMesh.obj
 0002:00007b30       ??_C@_0DG@NCNIEEHB@TetrahedronMesh?3?3loadFromDesc?3?5@ 00000001801fdb30     GuCookingTetrahedronMesh.obj
 0002:00007b70       ??_C@_0EG@CJIFGLMC@TetrahedronMesh?3?3loadFromDesc?3?5@ 00000001801fdb70     GuCookingTetrahedronMesh.obj
 0002:00007bb8       __real@be2aaaab            00000001801fdbb8     GuCookingTetrahedronMesh.obj
 0002:00007bc0       __xmm@00000003000000030000000300000003 00000001801fdbc0     GuCookingTetrahedronMesh.obj
 0002:00007bf0       __real@3bc79ca10c924223    00000001801fdbf0     GuCookingVolumeIntegration.obj
 0002:00007bf8       __real@3f91111111111111    00000001801fdbf8     GuCookingVolumeIntegration.obj
 0002:00007c00       __real@3fa5555555555555    00000001801fdc00     GuCookingVolumeIntegration.obj
 0002:00007c08       __real@3fa999999999999a    00000001801fdc08     GuCookingVolumeIntegration.obj
 0002:00007c10       __real@3fb5555555555555    00000001801fdc10     GuCookingVolumeIntegration.obj
 0002:00007c18       __real@3fc5555555555555    00000001801fdc18     GuCookingVolumeIntegration.obj
 0002:00007c20       __real@3fe0000000000000    00000001801fdc20     GuCookingVolumeIntegration.obj
 0002:00007c28       __real@3ff0000000000000    00000001801fdc28     GuCookingVolumeIntegration.obj
 0002:00007c30       __real@4008000000000000    00000001801fdc30     GuCookingVolumeIntegration.obj
 0002:00007c38       __real@4010000000000000    00000001801fdc38     GuCookingVolumeIntegration.obj
 0002:00007c40       __real@bf91111111111111    00000001801fdc40     GuCookingVolumeIntegration.obj
 0002:00007c48       __real@bfa999999999999a    00000001801fdc48     GuCookingVolumeIntegration.obj
 0002:00007c50       __real@bfb5555555555555    00000001801fdc50     GuCookingVolumeIntegration.obj
 0002:00007c58       __real@bfc5555555555555    00000001801fdc58     GuCookingVolumeIntegration.obj
 0002:00007c60       __xmm@3c0888893c0888893c0888893c088889 00000001801fdc60     GuCookingVolumeIntegration.obj
 0002:00007c70       __xmm@3c8888893c8888893c8888893c888889 00000001801fdc70     GuCookingVolumeIntegration.obj
 0002:00007c80       __xmm@3d2aaaab3d2aaaab3d2aaaab3d2aaaab 00000001801fdc80     GuCookingVolumeIntegration.obj
 0002:00007c90       __xmm@3e2aaaab3e2aaaab3e2aaaab3e2aaaab 00000001801fdc90     GuCookingVolumeIntegration.obj
 0002:00007ca0       __xmm@3f811111111111113f81111111111111 00000001801fdca0     GuCookingVolumeIntegration.obj
 0002:00007cb0       __xmm@3f811111111111113f91111111111111 00000001801fdcb0     GuCookingVolumeIntegration.obj
 0002:00007cc0       __xmm@3f911111111111113f91111111111111 00000001801fdcc0     GuCookingVolumeIntegration.obj
 0002:00007cd0       __xmm@3fa55555555555553fa5555555555555 00000001801fdcd0     GuCookingVolumeIntegration.obj
 0002:00007ce0       __xmm@3fa55555555555553fc5555555555555 00000001801fdce0     GuCookingVolumeIntegration.obj
 0002:00007cf0       __xmm@3fd55555555555553fd5555555555555 00000001801fdcf0     GuCookingVolumeIntegration.obj
 0002:00007d00       __xmm@3fe00000000000003fe0000000000000 00000001801fdd00     GuCookingVolumeIntegration.obj
 0002:00007d10       __xmm@7fffffffffffffff7fffffffffffffff 00000001801fdd10     GuCookingVolumeIntegration.obj
 0002:00007d20       __xmm@80000000000000008000000000000000 00000001801fdd20     GuCookingVolumeIntegration.obj
 0002:00007d30       ??_7ConvexHullLib@physx@@6B@ 00000001801fdd30     GuCookingQuickHullConvexHullLib.obj
 0002:00007d50       ??_7QuickHullConvexHullLib@physx@@6B@ 00000001801fdd50     GuCookingQuickHullConvexHullLib.obj
 0002:00007d70       ??_C@_0GJ@EDPBDFMD@C?3?2Dev?2Tool?2PhysX?9main?2PhysX?9ma@ 00000001801fdd70     GuCookingQuickHullConvexHullLib.obj
 0002:00007de0       ??_C@_0GA@EPPAEJPM@QuickHullConvexHullLib?3?3findSim@ 00000001801fdde0     GuCookingQuickHullConvexHullLib.obj
 0002:00007e40       ??_C@_0FB@NEBIJMML@QuickHullConvexHullLib?3?3findSim@ 00000001801fde40     GuCookingQuickHullConvexHullLib.obj
 0002:00007ea0       ??_C@_0FB@CLLCBEMM@QuickHullConvexHullLib?3?3findSim@ 00000001801fdea0     GuCookingQuickHullConvexHullLib.obj
 0002:00007ef4       __real@34c00000            00000001801fdef4     GuCookingQuickHullConvexHullLib.obj
 0002:00007ef8       ??_C@_0DP@PJBJBEGF@Meshmerizer?3?3extractHullPolygon@ 00000001801fdef8     GuCookingConvexPolygonsBuilder.obj
 0002:00007f40       ??_C@_0GI@BHMBICKN@C?3?2Dev?2Tool?2PhysX?9main?2PhysX?9ma@ 00000001801fdf40     GuCookingConvexPolygonsBuilder.obj
 0002:00007fa8       ??_C@_0DL@IAFKOCCK@ConvexHullBuilder?3?5convex?5hull?5@ 00000001801fdfa8     GuCookingConvexPolygonsBuilder.obj
 0002:00007ff0       ??_C@_0GF@OJLJHAMH@ConvexHullBuilder?3?3CreateTriang@ 00000001801fdff0     GuCookingConvexPolygonsBuilder.obj
 0002:00008080       ??_C@_0DF@LLFJIJGM@Gu?3?3ConvexMesh?3?3loadFromDesc?3?5d@ 00000001801fe080     GuCookingConvexMeshBuilder.obj
 0002:000080c0       ??_C@_0HK@JOGKIEAA@Gu?3?3ConvexMesh?3?5Mesh?5has?5a?5nega@ 00000001801fe0c0     GuCookingConvexMeshBuilder.obj
 0002:00008140       ??_C@_0DH@NJPPHFFD@Gu?3?3ConvexMesh?3?5Error?5computing@ 00000001801fe140     GuCookingConvexMeshBuilder.obj
 0002:00008178       ??_C@_0DJ@LJDLGLDJ@Gu?3?3ConvexMesh?3?3loadConvexHull?3@ 00000001801fe178     GuCookingConvexMeshBuilder.obj
 0002:000081c0       ??_C@_0HJ@KJANPPOE@ConvexMeshBuilder?3?3computeHullP@ 00000001801fe1c0     GuCookingConvexMeshBuilder.obj
 0002:00008240       ??_C@_0GE@HLPALKID@C?3?2Dev?2Tool?2PhysX?9main?2PhysX?9ma@ 00000001801fe240     GuCookingConvexMeshBuilder.obj
 0002:000082a4       ??_C@_06KDGGGLIJ@PxVec3@   00000001801fe2a4     GuCookingConvexMeshBuilder.obj
 0002:000082ac       ??_C@_05LMJPANIN@PxU32@    00000001801fe2ac     GuCookingConvexMeshBuilder.obj
 0002:000082b8       ??_C@_0O@JMAGMMGG@PxHullPolygon@ 00000001801fe2b8     GuCookingConvexMeshBuilder.obj
 0002:000082c8       __real@3f13cd3a            00000001801fe2c8     GuCookingConvexMeshBuilder.obj
 0002:000082f0       ??_C@_0GC@DHDCLFCE@C?3?2Dev?2Tool?2PhysX?9main?2PhysX?9ma@ 00000001801fe2f0     GuCookingConvexHullUtils.obj
 0002:00008354       __real@3e20d97c            00000001801fe354     GuCookingConvexHullUtils.obj
 0002:00008360       ??_C@_0GA@HBELJKJL@C?3?2Dev?2Tool?2PhysX?9main?2PhysX?9ma@ 00000001801fe360     GuCookingConvexHullLib.obj
 0002:000083c0       ??_C@_0JE@PABBNGEL@ConvexHullLib?3?3cleanupVertices?3@ 00000001801fe3c0     GuCookingConvexHullLib.obj
 0002:00008480       ??_C@_0GE@LFFEBKNG@C?3?2Dev?2Tool?2PhysX?9main?2PhysX?9ma@ 00000001801fe480     GuCookingConvexHullBuilder.obj
 0002:000084f0       ??_C@_0EB@DCEIFDGC@ConvexHullBuilder?3?3init?3?5convex@ 00000001801fe4f0     GuCookingConvexHullBuilder.obj
 0002:00008540       ??_C@_0FM@KICBLCBH@Gu?3?3ConvexMesh?3?3checkHullPolygo@ 00000001801fe540     GuCookingConvexHullBuilder.obj
 0002:000085a0       ??_C@_0GO@HBFIOGLL@Gu?3?3ConvexMesh?3?3checkHullPolygo@ 00000001801fe5a0     GuCookingConvexHullBuilder.obj
 0002:00008610       ??_C@_0HF@OLJFBIEL@ConvexHullBuilder?3?5convex?5hull?5@ 00000001801fe610     GuCookingConvexHullBuilder.obj
 0002:00008690       ??_C@_0OG@JNHFOIL@ConvexHullBuilder?3?5convex?5hull?5@ 00000001801fe690     GuCookingConvexHullBuilder.obj
 0002:00008780       ??_C@_0EJ@NIOIBAKH@Cooking?3?3cookConvexMesh?3?5non?9ma@ 00000001801fe780     GuCookingConvexHullBuilder.obj
 0002:000087f0       ??_C@_0GH@GGMFHPIN@C?3?2Dev?2Tool?2PhysX?9main?2PhysX?9ma@ 00000001801fe7f0     GuCookingBigConvexDataBuilder.obj
 0002:00008858       __real@437f0000            00000001801fe858     GuCookingSDF.obj
 0002:0000885c       __real@477fff00            00000001801fe85c     GuCookingSDF.obj
 0002:00008860       __sz_PhysXFoundation_64_dll 00000001801fe860     PhysXFoundation_64:PhysXFoundation_64.dll
 0002:00008878       ??_C@_1BK@DBDEIDLH@?$AAK?$AAE?$AAR?$AAN?$AAE?$AAL?$AA3?$AA2?$AA?4?$AAD?$AAL?$AAL@ 00000001801fe878     Delayimp:delayhlp.obj
 0002:00008898       ??_C@_0BI@OMNLIJDB@AcquireSRWLockExclusive@ 00000001801fe898     Delayimp:delayhlp.obj
 0002:000088b0       ??_C@_0BI@HMIEPCNJ@ReleaseSRWLockExclusive@ 00000001801fe8b0     Delayimp:delayhlp.obj
 0002:000088c8       __pfnDliFailureHook2       00000001801fe8c8     Delayimp:delayhk1.obj
 0002:000088d8       ??_7type_info@@6B@         00000001801fe8d8     LIBCMT:std_type_info_static.obj
 0002:00008940       _pDefaultRawDllMain        00000001801fe940     LIBCMT:dll_dllmain.obj
 0002:00008940       _pRawDllMain               00000001801fe940     LIBCMT:dll_dllmain.obj
 0002:00008950       _load_config_used          00000001801fe950     LIBCMT:loadcfg.obj
 0002:00008a90       _pDestructExceptionObject  00000001801fea90     libvcruntime:ehhelpers.obj
 0002:000091b0       ??_C@_08EHJDFFNH@__based?$CI@ 00000001801ff1b0     libvcruntime:undname.obj
 0002:000091c0       ??_C@_07KOLFKCDI@__cdecl@  00000001801ff1c0     libvcruntime:undname.obj
 0002:000091c8       ??_C@_08GHMPAG@__pascal@   00000001801ff1c8     libvcruntime:undname.obj
 0002:000091d8       ??_C@_09IFJBGAPI@__stdcall@ 00000001801ff1d8     libvcruntime:undname.obj
 0002:000091e8       ??_C@_0L@NPHFGOKO@__thiscall@ 00000001801ff1e8     libvcruntime:undname.obj
 0002:000091f8       ??_C@_0L@JMKHOMEK@__fastcall@ 00000001801ff1f8     libvcruntime:undname.obj
 0002:00009208       ??_C@_0N@BCKKPABJ@__vectorcall@ 00000001801ff208     libvcruntime:undname.obj
 0002:00009218       ??_C@_09HIJEGCPM@__clrcall@ 00000001801ff218     libvcruntime:undname.obj
 0002:00009224       ??_C@_06GHPCKEAG@__eabi@   00000001801ff224     libvcruntime:undname.obj
 0002:00009230       ??_C@_09IOPIDJLG@__swift_1@ 00000001801ff230     libvcruntime:undname.obj
 0002:00009240       ??_C@_09KFNFGKHF@__swift_2@ 00000001801ff240     libvcruntime:undname.obj
 0002:00009250       ??_C@_09LMMOFLDE@__swift_3@ 00000001801ff250     libvcruntime:undname.obj
 0002:00009260       ??_C@_07JOMMBBKO@__ptr64@  00000001801ff260     libvcruntime:undname.obj
 0002:00009268       ??_C@_0L@PILCLIHE@__restrict@ 00000001801ff268     libvcruntime:undname.obj
 0002:00009278       ??_C@_0M@GFIIJFMG@__unaligned@ 00000001801ff278     libvcruntime:undname.obj
 0002:00009288       ??_C@_09DHDLOLLB@restrict?$CI@ 00000001801ff288     libvcruntime:undname.obj
 0002:00009294       ??_C@_04NIHEBCM@?5new@     00000001801ff294     libvcruntime:undname.obj
 0002:000092a0       ??_C@_07FPCDHGMM@?5delete@ 00000001801ff2a0     libvcruntime:undname.obj
 0002:000092a8       ??_C@_01NEMOKFLO@?$DN@     00000001801ff2a8     libvcruntime:undname.obj
 0002:000092ac       ??_C@_02GPIOPFAK@?$DO?$DO@ 00000001801ff2ac     libvcruntime:undname.obj
 0002:000092b0       ??_C@_02FODMEDOG@?$DM?$DM@ 00000001801ff2b0     libvcruntime:undname.obj
 0002:000092b4       ??_C@_01DCLJPIOD@?$CB@     00000001801ff2b4     libvcruntime:undname.obj
 0002:000092b8       ??_C@_02EGOFBIJA@?$DN?$DN@ 00000001801ff2b8     libvcruntime:undname.obj
 0002:000092bc       ??_C@_02FDNJECIE@?$CB?$DN@ 00000001801ff2bc     libvcruntime:undname.obj
 0002:000092c0       ??_C@_02GPECMEKF@?$FL?$FN@ 00000001801ff2c0     libvcruntime:undname.obj
 0002:000092c8       ??_C@_08LHJFAFGD@operator@ 00000001801ff2c8     libvcruntime:undname.obj
 0002:000092d4       ??_C@_02HBOOOICD@?9?$DO@   00000001801ff2d4     libvcruntime:undname.obj
 0002:000092d8       ??_C@_01NBENCBCI@?$CK@     00000001801ff2d8     libvcruntime:undname.obj
 0002:000092dc       ??_C@_02ECNGHCIF@?$CL?$CL@ 00000001801ff2dc     libvcruntime:undname.obj
 0002:000092e0       ??_C@_02BAABKJLB@?9?9@     00000001801ff2e0     libvcruntime:undname.obj
 0002:000092e4       ??_C@_01JOAMLHOP@?9@       00000001801ff2e4     libvcruntime:undname.obj
 0002:000092e8       ??_C@_01MIFGBAGJ@?$CL@     00000001801ff2e8     libvcruntime:undname.obj
 0002:000092ec       ??_C@_01HNPIGOCE@?$CG@     00000001801ff2ec     libvcruntime:undname.obj
 0002:000092f0       ??_C@_03MNHNFDLC@?9?$DO?$CK@ 00000001801ff2f0     libvcruntime:undname.obj
 0002:000092f4       ??_C@_01KMDKNFGN@?1@       00000001801ff2f4     libvcruntime:undname.obj
 0002:000092f8       ??_C@_01FGNFDNOH@?$CF@     00000001801ff2f8     libvcruntime:undname.obj
 0002:000092fc       ??_C@_01MNNFJEPP@?$DM@     00000001801ff2fc     libvcruntime:undname.obj
 0002:00009300       ??_C@_02EHCHHCKH@?$DM?$DN@ 00000001801ff300     libvcruntime:undname.obj
 0002:00009304       ??_C@_01PPODPGHN@?$DO@     00000001801ff304     libvcruntime:undname.obj
 0002:00009308       ??_C@_02EEKDKGMJ@?$DO?$DN@ 00000001801ff308     libvcruntime:undname.obj
 0002:0000930c       ??_C@_01IHBHIGKO@?0@       00000001801ff30c     libvcruntime:undname.obj
 0002:00009310       ??_C@_02HCKGKOFO@?$CI?$CJ@ 00000001801ff310     libvcruntime:undname.obj
 0002:00009314       ??_C@_01PJKLJHI@?$HO@      00000001801ff314     libvcruntime:undname.obj
 0002:00009318       ??_C@_01JKBOJNNK@?$FO@     00000001801ff318     libvcruntime:undname.obj
 0002:0000931c       ??_C@_01DNKMNLPK@?$HM@     00000001801ff31c     libvcruntime:undname.obj
 0002:00009320       ??_C@_02PPKAJPJL@?$CG?$CG@ 00000001801ff320     libvcruntime:undname.obj
 0002:00009324       ??_C@_02NONPIBCD@?$HM?$HM@ 00000001801ff324     libvcruntime:undname.obj
 0002:00009328       ??_C@_02FPIMKNGF@?$CK?$DN@ 00000001801ff328     libvcruntime:undname.obj
 0002:0000932c       ??_C@_02FOEOMHFC@?$CL?$DN@ 00000001801ff32c     libvcruntime:undname.obj
 0002:00009330       ??_C@_02FKMDLLOA@?9?$DN@   00000001801ff330     libvcruntime:undname.obj
 0002:00009334       ??_C@_02FJEHGPIO@?1?$DN@   00000001801ff334     libvcruntime:undname.obj
 0002:00009338       ??_C@_02FENAOKFI@?$CF?$DN@ 00000001801ff338     libvcruntime:undname.obj
 0002:0000933c       ??_C@_03IKFCCPFF@?$DO?$DO?$DN@ 00000001801ff33c     libvcruntime:undname.obj
 0002:00009340       ??_C@_03CDNPDDLA@?$DM?$DM?$DN@ 00000001801ff340     libvcruntime:undname.obj
 0002:00009344       ??_C@_02FGJGFEAB@?$CG?$DN@ 00000001801ff344     libvcruntime:undname.obj
 0002:00009348       ??_C@_02DHLNPPGH@?$HM?$DN@ 00000001801ff348     libvcruntime:undname.obj
 0002:0000934c       ??_C@_02MHEGNOJ@?$FO?$DN@  00000001801ff34c     libvcruntime:undname.obj
 0002:00009350       ??_C@_09IFPLHPGF@?$GAvftable?8@ 00000001801ff350     libvcruntime:undname.obj
 0002:00009360       ??_C@_09BLBHBJP@?$GAvbtable?8@ 00000001801ff360     libvcruntime:undname.obj
 0002:00009370       ??_C@_07FEEIOKP@?$GAvcall?8@ 00000001801ff370     libvcruntime:undname.obj
 0002:00009378       ??_C@_08LLFFHHDJ@?$GAtypeof?8@ 00000001801ff378     libvcruntime:undname.obj
 0002:00009388       ??_C@_0BF@KDPPACIK@?$GAlocal?5static?5guard?8@ 00000001801ff388     libvcruntime:undname.obj
 0002:000093a0       ??_C@_08OBABFOLI@?$GAstring?8@ 00000001801ff3a0     libvcruntime:undname.obj
 0002:000093b0       ??_C@_0BD@JDLKDPAB@?$GAvbase?5destructor?8@ 00000001801ff3b0     libvcruntime:undname.obj
 0002:000093c8       ??_C@_0BN@DEGPLNFK@?$GAvector?5deleting?5destructor?8@ 00000001801ff3c8     libvcruntime:undname.obj
 0002:000093e8       ??_C@_0BO@OBMKPJIG@?$GAdefault?5constructor?5closure?8@ 00000001801ff3e8     libvcruntime:undname.obj
 0002:00009408       ??_C@_0BN@IMDCHIKM@?$GAscalar?5deleting?5destructor?8@ 00000001801ff408     libvcruntime:undname.obj
 0002:00009428       ??_C@_0BO@PFGOCPJJ@?$GAvector?5constructor?5iterator?8@ 00000001801ff428     libvcruntime:undname.obj
 0002:00009448       ??_C@_0BN@LFPFMEDL@?$GAvector?5destructor?5iterator?8@ 00000001801ff448     libvcruntime:undname.obj
 0002:00009468       ??_C@_0CE@IKBNEHA@?$GAvector?5vbase?5constructor?5itera@ 00000001801ff468     libvcruntime:undname.obj
 0002:00009490       ??_C@_0BL@NILFHHPC@?$GAvirtual?5displacement?5map?8@ 00000001801ff490     libvcruntime:undname.obj
 0002:000094b0       ??_C@_0CB@JONCMFFK@?$GAeh?5vector?5constructor?5iterator@ 00000001801ff4b0     libvcruntime:undname.obj
 0002:000094d8       ??_C@_0CA@GCEOPDGL@?$GAeh?5vector?5destructor?5iterator?8@ 00000001801ff4d8     libvcruntime:undname.obj
 0002:000094f8       ??_C@_0CH@OOJPLCPH@?$GAeh?5vector?5vbase?5constructor?5it@ 00000001801ff4f8     libvcruntime:undname.obj
 0002:00009520       ??_C@_0BL@LLKPOHJI@?$GAcopy?5constructor?5closure?8@ 00000001801ff520     libvcruntime:undname.obj
 0002:00009540       ??_C@_0BA@KBCDOMBN@?$GAudt?5returning?8@ 00000001801ff540     libvcruntime:undname.obj
 0002:00009550       ??_C@_03KLGMFNMG@?$GAEH@   00000001801ff550     libvcruntime:undname.obj
 0002:00009554       ??_C@_05KHLCHHI@?$GARTTI@  00000001801ff554     libvcruntime:undname.obj
 0002:00009560       ??_C@_0BA@KKLDJDLB@?$GAlocal?5vftable?8@ 00000001801ff560     libvcruntime:undname.obj
 0002:00009570       ??_C@_0CE@IIHCMGGL@?$GAlocal?5vftable?5constructor?5clos@ 00000001801ff570     libvcruntime:undname.obj
 0002:00009594       ??_C@_06FHBGPFGH@?5new?$FL?$FN@ 00000001801ff594     libvcruntime:undname.obj
 0002:000095a0       ??_C@_09LBNFPBCA@?5delete?$FL?$FN@ 00000001801ff5a0     libvcruntime:undname.obj
 0002:000095b0       ??_C@_0P@HJKNJFNN@?$GAomni?5callsig?8@ 00000001801ff5b0     libvcruntime:undname.obj
 0002:000095c0       ??_C@_0BL@CNOONJFP@?$GAplacement?5delete?5closure?8@ 00000001801ff5c0     libvcruntime:undname.obj
 0002:000095e0       ??_C@_0BN@CKNJLHMB@?$GAplacement?5delete?$FL?$FN?5closure?8@ 00000001801ff5e0     libvcruntime:undname.obj
 0002:00009600       ??_C@_0CG@CFDHKGGD@?$GAmanaged?5vector?5constructor?5ite@ 00000001801ff600     libvcruntime:undname.obj
 0002:00009628       ??_C@_0CF@IMGKMJNO@?$GAmanaged?5vector?5destructor?5iter@ 00000001801ff628     libvcruntime:undname.obj
 0002:00009650       ??_C@_0CG@HLDDJMAG@?$GAeh?5vector?5copy?5constructor?5ite@ 00000001801ff650     libvcruntime:undname.obj
 0002:00009678       ??_C@_0CM@FCBBDIGB@?$GAeh?5vector?5vbase?5copy?5construct@ 00000001801ff678     libvcruntime:undname.obj
 0002:000096a8       ??_C@_0BL@CLIPGLGB@?$GAdynamic?5initializer?5for?5?8@ 00000001801ff6a8     libvcruntime:undname.obj
 0002:000096c8       ??_C@_0CB@PDBIFEP@?$GAdynamic?5atexit?5destructor?5for?5@ 00000001801ff6c8     libvcruntime:undname.obj
 0002:000096f0       ??_C@_0CD@CGAJBKEJ@?$GAvector?5copy?5constructor?5iterat@ 00000001801ff6f0     libvcruntime:undname.obj
 0002:00009718       ??_C@_0CJ@GJELGAMM@?$GAvector?5vbase?5copy?5constructor?5@ 00000001801ff718     libvcruntime:undname.obj
 0002:00009748       ??_C@_0CL@FGIJHLCE@?$GAmanaged?5vector?5copy?5constructo@ 00000001801ff748     libvcruntime:undname.obj
 0002:00009778       ??_C@_0BM@PMGGMLDN@?$GAlocal?5static?5thread?5guard?8@ 00000001801ff778     libvcruntime:undname.obj
 0002:00009798       ??_C@_0N@BDNMDMOL@operator?5?$CC?$CC?5@ 00000001801ff798     libvcruntime:undname.obj
 0002:000097a8       ??_C@_0BC@GGEBGALA@operator?5co_await@ 00000001801ff7a8     libvcruntime:undname.obj
 0002:000097c0       ??_C@_0M@GAAIMMOH@operator?$DM?$DN?$DO@ 00000001801ff7c0     libvcruntime:undname.obj
 0002:000097d0       ??_C@_0BC@DAFEJGAK@?5Type?5Descriptor?8@ 00000001801ff7d0     libvcruntime:undname.obj
 0002:000097e8       ??_C@_0BM@LDKODKLH@?5Base?5Class?5Descriptor?5at?5?$CI@ 00000001801ff7e8     libvcruntime:undname.obj
 0002:00009808       ??_C@_0BD@LGICGFMM@?5Base?5Class?5Array?8@ 00000001801ff808     libvcruntime:undname.obj
 0002:00009820       ??_C@_0BN@MECKDCOJ@?5Class?5Hierarchy?5Descriptor?8@ 00000001801ff820     libvcruntime:undname.obj
 0002:00009840       ??_C@_0BK@CFCOFLF@?5Complete?5Object?5Locator?8@ 00000001801ff840     libvcruntime:undname.obj
 0002:00009860       ??_C@_0BG@JNJLAMPM@?$GAanonymous?5namespace?8@ 00000001801ff860     libvcruntime:undname.obj
 0002:00009878       ??_C@_04HEJADOOB@CV?3?5@   00000001801ff878     libvcruntime:undname.obj
 0002:00009880       ??_C@_02MOLJINC@?3?3@      00000001801ff880     libvcruntime:undname.obj
 0002:00009888       ??_C@_0BE@JAEOCHPE@template?9parameter?9@ 00000001801ff888     libvcruntime:undname.obj
 0002:000098a0       ??_C@_0BF@LNLGBBNL@?$GAtemplate?9parameter?9@ 00000001801ff8a0     libvcruntime:undname.obj
 0002:000098b8       ??_C@_0O@KHGCOMHP@generic?9type?9@ 00000001801ff8b8     libvcruntime:undname.obj
 0002:000098c8       ??_C@_0P@ODDENDLM@?$GAgeneric?9type?9@ 00000001801ff8c8     libvcruntime:undname.obj
 0002:000098d8       ??_C@_02OHHJMEON@?8?8@     00000001801ff8d8     libvcruntime:undname.obj
 0002:000098e0       ??_C@_0BN@IBLMMFAP@?$GAnon?9type?9template?9parameter@ 00000001801ff8e0     libvcruntime:undname.obj
 0002:00009900       ??_C@_03DLDNIBIK@?$CFlf@   00000001801ff900     libvcruntime:undname.obj
 0002:00009904       ??_C@_04OFALKAJ@?$DP?$DP_C@ 00000001801ff904     libvcruntime:undname.obj
 0002:0000990c       ??_C@_03KHICJKCI@?4?4?4@   00000001801ff90c     libvcruntime:undname.obj
 0002:00009910       ??_C@_04HIBGFPH@NULL@      00000001801ff910     libvcruntime:undname.obj
 0002:00009918       ??_C@_02DPKJAMEF@?$CFd@    00000001801ff918     libvcruntime:undname.obj
 0002:00009920       ??_C@_0BK@IHCCFNEL@?$GAtemplate?9type?9parameter?9@ 00000001801ff920     libvcruntime:undname.obj
 0002:00009940       ??_C@_0BK@OFCNNNKO@?$GAgeneric?9class?9parameter?9@ 00000001801ff940     libvcruntime:undname.obj
 0002:00009960       ??_C@_0BL@NGJBLFIL@?$GAgeneric?9method?9parameter?9@ 00000001801ff960     libvcruntime:undname.obj
 0002:00009980       ??_C@_07OHNGEDJK@nullptr@  00000001801ff980     libvcruntime:undname.obj
 0002:00009988       ??_C@_06COJIGPIB@lambda@   00000001801ff988     libvcruntime:undname.obj
 0002:00009990       ??_C@_04GKJNKENE@void@     00000001801ff990     libvcruntime:undname.obj
 0002:00009998       ??_C@_0BE@EODMJLIF@?$GAtemplate?9parameter@ 00000001801ff998     libvcruntime:undname.obj
 0002:000099ac       ??_C@_03OPGICMGF@?$HN?8?5@ 00000001801ff9ac     libvcruntime:undname.obj
 0002:000099b0       ??_C@_02IGFCGPIL@?$HN?8@   00000001801ff9b0     libvcruntime:undname.obj
 0002:000099b8       ??_C@_0N@CBHHHENL@?$GAvtordispex?$HL@ 00000001801ff9b8     libvcruntime:undname.obj
 0002:000099c8       ??_C@_0L@GHPFDFH@?$GAvtordisp?$HL@ 00000001801ff9c8     libvcruntime:undname.obj
 0002:000099d8       ??_C@_0L@HNGCOGAE@?$GAadjustor?$HL@ 00000001801ff9d8     libvcruntime:undname.obj
 0002:000099e8       ??_C@_0CB@KJDOOODE@?$GAlocal?5static?5destructor?5helper@ 00000001801ff9e8     libvcruntime:undname.obj
 0002:00009a10       ??_C@_0DB@ILEFOCIJ@?$GAtemplate?5static?5data?5member?5co@ 00000001801ffa10     libvcruntime:undname.obj
 0002:00009a48       ??_C@_0DA@HGFJFBBE@?$GAtemplate?5static?5data?5member?5de@ 00000001801ffa48     libvcruntime:undname.obj
 0002:00009a78       ??_C@_07PGOEDBHP@static?5@ 00000001801ffa78     libvcruntime:undname.obj
 0002:00009a80       ??_C@_08NIEOINHE@virtual?5@ 00000001801ffa80     libvcruntime:undname.obj
 0002:00009a90       ??_C@_09LAPHOOG@private?3?5@ 00000001801ffa90     libvcruntime:undname.obj
 0002:00009aa0       ??_C@_0M@GAIFPFIP@protected?3?5@ 00000001801ffaa0     libvcruntime:undname.obj
 0002:00009ab0       ??_C@_08GPDDCMKI@public?3?5@ 00000001801ffab0     libvcruntime:undname.obj
 0002:00009ac0       ??_C@_08KJLFOPNE@?$FLthunk?$FN?3@ 00000001801ffac0     libvcruntime:undname.obj
 0002:00009ad0       ??_C@_0M@DHNBOJMP@extern?5?$CCC?$CC?5@ 00000001801ffad0     libvcruntime:undname.obj
 0002:00009adc       ??_C@_02KCKGHPCA@?$CJ?5@   00000001801ffadc     libvcruntime:undname.obj
 0002:00009ae0       ??_C@_05CIHEBHNO@char?5@   00000001801ffae0     libvcruntime:undname.obj
 0002:00009ae8       ??_C@_06EHJMALKF@short?5@  00000001801ffae8     libvcruntime:undname.obj
 0002:00009af0       ??_C@_04LAHKHJMA@int?5@    00000001801ffaf0     libvcruntime:undname.obj
 0002:00009af8       ??_C@_05CJIMAING@long?5@   00000001801ffaf8     libvcruntime:undname.obj
 0002:00009b00       ??_C@_09EBBEKKIH@unsigned?5@ 00000001801ffb00     libvcruntime:undname.obj
 0002:00009b0c       ??_C@_05BEFAKPML@void?5@   00000001801ffb0c     libvcruntime:undname.obj
 0002:00009b18       ??_C@_09GAIEOBLP@volatile?5@ 00000001801ffb18     libvcruntime:undname.obj
 0002:00009b28       ??_C@_08PABEKFH@volatile@  00000001801ffb28     libvcruntime:undname.obj
 0002:00009b38       ??_C@_0BA@LKIJLKPP@std?3?3nullptr_t?5@ 00000001801ffb38     libvcruntime:undname.obj
 0002:00009b48       ??_C@_0P@GCOCNKDM@std?3?3nullptr_t@ 00000001801ffb48     libvcruntime:undname.obj
 0002:00009b58       ??_C@_0L@EGPHHEKN@?$DMellipsis?$DO@ 00000001801ffb58     libvcruntime:undname.obj
 0002:00009b64       ??_C@_04EENFHACM@?0?4?4?4@ 00000001801ffb64     libvcruntime:undname.obj
 0002:00009b70       ??_C@_0M@ELJOJFFH@?0?$DMellipsis?$DO@ 00000001801ffb70     libvcruntime:undname.obj
 0002:00009b80       ??_C@_09DNHFEOJI@?5noexcept@ 00000001801ffb80     libvcruntime:undname.obj
 0002:00009b8c       ??_C@_03PBJBJNON@cpu@      00000001801ffb8c     libvcruntime:undname.obj
 0002:00009b90       ??_C@_03DCBBJBAA@amp@      00000001801ffb90     libvcruntime:undname.obj
 0002:00009b94       ??_C@_02KEGNLNML@?0?5@     00000001801ffb94     libvcruntime:undname.obj
 0002:00009b98       ??_C@_04ENMBGAPA@char@     00000001801ffb98     libvcruntime:undname.obj
 0002:00009ba0       ??_C@_05BFKKPKCG@short@    00000001801ffba0     libvcruntime:undname.obj
 0002:00009ba8       ??_C@_03JBIPMCLC@int@      00000001801ffba8     libvcruntime:undname.obj
 0002:00009bac       ??_C@_04GOKPGOLB@long@     00000001801ffbac     libvcruntime:undname.obj
 0002:00009bb4       ??_C@_05KNFBNCOH@float@    00000001801ffbb4     libvcruntime:undname.obj
 0002:00009bbc       ??_C@_06BNJCAIGJ@double@   00000001801ffbbc     libvcruntime:undname.obj
 0002:00009bc4       ??_C@_04DDKJGDCM@bool@     00000001801ffbc4     libvcruntime:undname.obj
 0002:00009bcc       ??_C@_06EBGKOKIG@__int8@   00000001801ffbcc     libvcruntime:undname.obj
 0002:00009bd8       ??_C@_07ICFHOGAF@__int16@  00000001801ffbd8     libvcruntime:undname.obj
 0002:00009be0       ??_C@_07OFLPPHGP@__int32@  00000001801ffbe0     libvcruntime:undname.obj
 0002:00009be8       ??_C@_07LFCOJCAC@__int64@  00000001801ffbe8     libvcruntime:undname.obj
 0002:00009bf0       ??_C@_08GAHOLHEO@__int128@ 00000001801ffbf0     libvcruntime:undname.obj
 0002:00009c00       ??_C@_09EEKGDCPH@?$DMunknown?$DO@ 00000001801ffc00     libvcruntime:undname.obj
 0002:00009c10       ??_C@_07CFHGOPCN@char8_t@  00000001801ffc10     libvcruntime:undname.obj
 0002:00009c18       ??_C@_08HBIPOFJB@char16_t@ 00000001801ffc18     libvcruntime:undname.obj
 0002:00009c28       ??_C@_08IECNCBKG@char32_t@ 00000001801ffc28     libvcruntime:undname.obj
 0002:00009c38       ??_C@_07CLGGIAMF@wchar_t@  00000001801ffc38     libvcruntime:undname.obj
 0002:00009c40       ??_C@_04HAPDLBFF@auto@     00000001801ffc40     libvcruntime:undname.obj
 0002:00009c48       ??_C@_0P@LHCGKIGK@decltype?$CIauto?$CJ@ 00000001801ffc48     libvcruntime:undname.obj
 0002:00009c58       ??_C@_05PCNBGHCF@this?5@   00000001801ffc58     libvcruntime:undname.obj
 0002:00009c60       ??_C@_06GCICPBLB@__w64?5@  00000001801ffc60     libvcruntime:undname.obj
 0002:00009c68       ??_C@_07NFANNNEC@UNKNOWN@  00000001801ffc68     libvcruntime:undname.obj
 0002:00009c70       ??_C@_07EDHNAJHC@signed?5@ 00000001801ffc70     libvcruntime:undname.obj
 0002:00009c78       ??_C@_05BNCCCJPP@const@    00000001801ffc78     libvcruntime:undname.obj
 0002:00009c80       ??_C@_09EFNPDFFP@?5volatile@ 00000001801ffc80     libvcruntime:undname.obj
 0002:00009c90       ??_C@_0P@GCIFDJCJ@?$GAunknown?5ecsu?8@ 00000001801ffc90     libvcruntime:undname.obj
 0002:00009ca0       ??_C@_06MOJHIBMG@union?5@  00000001801ffca0     libvcruntime:undname.obj
 0002:00009ca8       ??_C@_07DIBCDNGL@struct?5@ 00000001801ffca8     libvcruntime:undname.obj
 0002:00009cb0       ??_C@_06LJBABKPM@class?5@  00000001801ffcb0     libvcruntime:undname.obj
 0002:00009cb8       ??_C@_08KOFANOFK@coclass?5@ 00000001801ffcb8     libvcruntime:undname.obj
 0002:00009cc8       ??_C@_0N@DLIEFKNA@cointerface?5@ 00000001801ffcc8     libvcruntime:undname.obj
 0002:00009cd8       ??_C@_05LJGMCFOG@enum?5@   00000001801ffcd8     libvcruntime:undname.obj
 0002:00009ce0       ??_C@_06LIJLOJAG@const?5@  00000001801ffce0     libvcruntime:undname.obj
 0002:00009ce8       ??_C@_02KJPKDIBN@?$CG?5@   00000001801ffce8     libvcruntime:undname.obj
 0002:00009cec       ??_C@_03PCKGMOPB@?$CG?$CG?5@ 00000001801ffcec     libvcruntime:undname.obj
 0002:00009cf0       ??_C@_0M@EALIELKG@cli?3?3array?$DM@ 00000001801ffcf0     libvcruntime:undname.obj
 0002:00009d00       ??_C@_0O@GKABPPIF@cli?3?3pin_ptr?$DM@ 00000001801ffd00     libvcruntime:undname.obj
 0002:00009d10       ??_C@_02GOGNNPBN@?$CJ?$FL@ 00000001801ffd10     libvcruntime:undname.obj
 0002:00009d14       ??_C@_06EEGAIFAK@?$HLflat?$HN@ 00000001801ffd14     libvcruntime:undname.obj
 0002:00009d1c       ??_C@_05JIBOFOHK@?$HLfor?5@ 00000001801ffd1c     libvcruntime:undname.obj
 0002:00009d24       ??_C@_02MDINNEEG@s?5@      00000001801ffd24     libvcruntime:undname.obj
 0002:00009d30       ??_7charNode@@6B@          00000001801ffd30     libvcruntime:undname.obj
 0002:00009d58       ??_7pcharNode@@6B@         00000001801ffd58     libvcruntime:undname.obj
 0002:00009d80       ??_7pDNameNode@@6B@        00000001801ffd80     libvcruntime:undname.obj
 0002:00009da8       ??_7DNameStatusNode@@6B@   00000001801ffda8     libvcruntime:undname.obj
 0002:00009dd0       ??_7pairNode@@6B@          00000001801ffdd0     libvcruntime:undname.obj
 0002:00009ef0       ??_C@_04OKOHEJBO@?5?$DP?$DP?5@ 00000001801ffef0     libvcruntime:undname.obj
 0002:00009f00       ?nodes@?1??make@DNameStatusNode@@SAPEBV2@W4DNameStatus@@@Z@4QBV2@B 00000001801fff00     libvcruntime:undname.obj
 0002:00009f40       ?s_negLengthTab@FH4@@3QBCB 00000001801fff40     libvcruntime:risctrnsctrl.obj
 0002:00009f50       ?s_shiftTab@FH4@@3QBEB     00000001801fff50     libvcruntime:risctrnsctrl.obj
 0002:0000a0b0       ??_C@_1DM@KHCHBNEB@?$AAa?$AAp?$AAi?$AA?9?$AAm?$AAs?$AA?9?$AAw?$AAi?$AAn?$AA?9?$AAc?$AAo?$AAr?$AAe@ 00000001802000b0     libvcruntime:winapi_downlevel.obj
 0002:0000a0f0       ??_C@_1DK@LPPGFMPP@?$AAa?$AAp?$AAi?$AA?9?$AAm?$AAs?$AA?9?$AAw?$AAi?$AAn?$AA?9?$AAc?$AAo?$AAr?$AAe@ 00000001802000f0     libvcruntime:winapi_downlevel.obj
 0002:0000a130       ??_C@_1BC@GDMECMAK@?$AAk?$AAe?$AAr?$AAn?$AAe?$AAl?$AA3?$AA2@ 0000000180200130     libvcruntime:winapi_downlevel.obj
 0002:0000a148       ??_C@_1BA@PFFKHIOG@?$AAa?$AAp?$AAi?$AA?9?$AAm?$AAs?$AA?9@ 0000000180200148     libvcruntime:winapi_downlevel.obj
 0002:0000a160       ??_C@_08KNHFBNJ@FlsAlloc@  0000000180200160     libvcruntime:winapi_downlevel.obj
 0002:0000a178       ??_C@_07PEJMOBNF@FlsFree@  0000000180200178     libvcruntime:winapi_downlevel.obj
 0002:0000a188       ??_C@_0M@GDNOONDI@FlsGetValue@ 0000000180200188     libvcruntime:winapi_downlevel.obj
 0002:0000a1a0       ??_C@_0M@JCPCPOEF@FlsSetValue@ 00000001802001a0     libvcruntime:winapi_downlevel.obj
 0002:0000a1b8       ??_C@_0BM@HCFOFFN@InitializeCriticalSectionEx@ 00000001802001b8     libvcruntime:winapi_downlevel.obj
 0002:0000a1e0       ??_7exception@std@@6B@     00000001802001e0     libvcruntime:frame.obj
 0002:0000a1f0       ??_C@_0BC@EOODALEL@Unknown?5exception@ 00000001802001f0     libvcruntime:frame.obj
 0002:0000a210       ??_7bad_exception@std@@6B@ 0000000180200210     libvcruntime:frame.obj
 0002:0000a220       ??_C@_0O@DPKOEFFH@bad?5exception@ 0000000180200220     libvcruntime:frame.obj
 0002:0000a570       ?standard_lookup_table_spectre@__crt_stdio_output@@3V?$spectre_mitigated_lookup_table@Ustate_transition_pair@__crt_stdio_output@@$0IA@@1@B 0000000180200570     libucrt:output.obj
 0002:0000a670       ?format_validation_lookup_table_spectre@__crt_stdio_output@@3V?$spectre_mitigated_lookup_table@Ustate_transition_pair@__crt_stdio_output@@$0IA@@1@B 0000000180200670     libucrt:output.obj
 0002:0000a7c0       ??_C@_1O@CEDCILHN@?$AA?$CI?$AAn?$AAu?$AAl?$AAl?$AA?$CJ@ 00000001802007c0     libucrt:output.obj
 0002:0000a7d0       ??_C@_06OJHGLDPL@?$CInull?$CJ@ 00000001802007d0     libucrt:output.obj
 0002:0000b868       __real@3f1a36e2eb1c432d    0000000180201868     libucrt:atan2f.obj
 0002:0000b870       __real@3fb0000000000000    0000000180201870     libucrt:atan2f.obj
 0002:0000b878       __real@3fc2492482bd6be1    0000000180201878     libucrt:atan2f.obj
 0002:0000b880       __real@3fc99999999643a3    0000000180201880     libucrt:atan2f.obj
 0002:0000b888       __real@3fd5555555550877    0000000180201888     libucrt:atan2f.obj
 0002:0000b890       __real@3fd5555555555538    0000000180201890     libucrt:atan2f.obj
 0002:0000b898       __real@3ff921fb54442d18    0000000180201898     libucrt:atan2f.obj
 0002:0000b8a0       __real@400921fb54442d18    00000001802018a0     libucrt:atan2f.obj
 0002:0000b8a8       __real@4070000000000000    00000001802018a8     libucrt:atan2f.obj
 0002:0000b8b0       __real@bf490fdb            00000001802018b0     libucrt:atan2f.obj
 0002:0000b8b4       __real@bfc90fdb            00000001802018b4     libucrt:atan2f.obj
 0002:0000b8b8       __real@c016cbe4            00000001802018b8     libucrt:atan2f.obj
 0002:0000b8bc       __real@c0490fdb            00000001802018bc     libucrt:atan2f.obj
 0002:0000b8c0       ??_C@_05FFFCHCED@acosf@    00000001802018c0     libucrt:acosf.obj
 0002:0000b8c8       __real@3b81ce6b            00000001802018c8     libucrt:acosf.obj
 0002:0000b8d0       __real@3c91a62633145c07    00000001802018d0     libucrt:acosf.obj
 0002:0000b8d8       __real@3d678bdd            00000001802018d8     libucrt:acosf.obj
 0002:0000b8dc       __real@3e3c94dc            00000001802018dc     libucrt:acosf.obj
 0002:0000b8e0       __real@3f561f0d            00000001802018e0     libucrt:acosf.obj
 0002:0000b8e4       __real@3f8d6fa5            00000001802018e4     libucrt:acosf.obj
 0002:0000b8e8       __real@bc5b3fe1            00000001802018e8     libucrt:acosf.obj
 0002:0000b8f0       __acrt_exception_action_table 00000001802018f0     libucrt:exception_filter.obj
 0002:0000b9b0       __acrt_signal_action_table_count 00000001802019b0     libucrt:exception_filter.obj
 0002:0000b9b8       __acrt_signal_action_first_fpe_index 00000001802019b8     libucrt:exception_filter.obj
 0002:0000b9c0       __acrt_signal_action_fpe_count 00000001802019c0     libucrt:exception_filter.obj
 0002:0000ba18       ??_C@_1BI@BGOHAHKC@?$AAm?$AAs?$AAc?$AAo?$AAr?$AAe?$AAe?$AA?4?$AAd?$AAl?$AAl@ 0000000180201a18     libucrt:exit.obj
 0002:0000ba30       ??_C@_0P@MIGLKIOC@CorExitProcess@ 0000000180201a30     libucrt:exit.obj
 0002:0000bd00       ??_C@_04LAGPAAHP@sinf@     0000000180201d00     libucrt:sincos_special.obj
 0002:0000bd08       ??_C@_04OBBKPIAC@cosf@     0000000180201d08     libucrt:sincos_special.obj
 0002:0000bd10       ??_C@_04MHPLPEIA@tanf@     0000000180201d10     libucrt:sincos_special.obj
 0002:0000bd20       __Lcosfarray               0000000180201d20     libucrt:lsincosf_array.obj
 0002:0000bd50       __Lsinfarray               0000000180201d50     libucrt:lsincosf_array.obj
 0002:0000bd70       __L_2_by_pi_bits           0000000180201d70     libucrt:l2_by_pi_bits.obj
 0002:0000c0f0       ??_C@_1EA@JGEFHKEI@?$AAa?$AAp?$AAi?$AA?9?$AAm?$AAs?$AA?9?$AAw?$AAi?$AAn?$AA?9?$AAc?$AAo?$AAr?$AAe@ 00000001802020f0     libucrt:winapi_thunks.obj
 0002:0000c130       ??_C@_1DM@LFJCLCKP@?$AAa?$AAp?$AAi?$AA?9?$AAm?$AAs?$AA?9?$AAw?$AAi?$AAn?$AA?9?$AAc?$AAo?$AAr?$AAe@ 0000000180202130     libucrt:winapi_thunks.obj
 0002:0000c170       ??_C@_1DI@KMEPCBPN@?$AAa?$AAp?$AAi?$AA?9?$AAm?$AAs?$AA?9?$AAw?$AAi?$AAn?$AA?9?$AAc?$AAo?$AAr?$AAe@ 0000000180202170     libucrt:winapi_thunks.obj
 0002:0000c1a8       ??_C@_1DI@IJCEHOCB@?$AAa?$AAp?$AAi?$AA?9?$AAm?$AAs?$AA?9?$AAw?$AAi?$AAn?$AA?9?$AAc?$AAo?$AAr?$AAe@ 00000001802021a8     libucrt:winapi_thunks.obj
 0002:0000c1e0       ??_C@_1DI@FFFOPEOO@?$AAa?$AAp?$AAi?$AA?9?$AAm?$AAs?$AA?9?$AAw?$AAi?$AAn?$AA?9?$AAc?$AAo?$AAr?$AAe@ 00000001802021e0     libucrt:winapi_thunks.obj
 0002:0000c220       ??_C@_1EI@MPIAOHOC@?$AAa?$AAp?$AAi?$AA?9?$AAm?$AAs?$AA?9?$AAw?$AAi?$AAn?$AA?9?$AAc?$AAo?$AAr?$AAe@ 0000000180202220     libucrt:winapi_thunks.obj
 0002:0000c270       ??_C@_1FK@FPHCKFIE@?$AAa?$AAp?$AAi?$AA?9?$AAm?$AAs?$AA?9?$AAw?$AAi?$AAn?$AA?9?$AAc?$AAo?$AAr?$AAe@ 0000000180202270     libucrt:winapi_thunks.obj
 0002:0000c2d0       ??_C@_1EM@DILCGIIO@?$AAa?$AAp?$AAi?$AA?9?$AAm?$AAs?$AA?9?$AAw?$AAi?$AAn?$AA?9?$AAc?$AAo?$AAr?$AAe@ 00000001802022d0     libucrt:winapi_thunks.obj
